ARM GAS  C:\Users\Daro\AppData\Local\Temp\cckG19tx.s 			page 1


   1              		.syntax unified
   2              		.cpu cortex-m4
   3              		.eabi_attribute 27, 3	@ Tag_ABI_HardFP_use
   4              		.eabi_attribute 28, 1	@ Tag_ABI_VFP_args
   5              		.fpu fpv4-sp-d16
   6              		.eabi_attribute 23, 1	@ Tag_ABI_FP_number_model
   7              		.eabi_attribute 24, 1	@ Tag_ABI_align8_needed
   8              		.eabi_attribute 25, 1	@ Tag_ABI_align8_preserved
   9              		.eabi_attribute 26, 1	@ Tag_ABI_enum_size
  10              		.eabi_attribute 30, 6	@ Tag_ABI_optimization_goals
  11              		.eabi_attribute 34, 1	@ Tag_CPU_unaligned_access
  12              		.eabi_attribute 18, 4	@ Tag_ABI_PCS_wchar_t
  13              		.file	"config.c"
  14              	@ GNU C (GNU Tools for ARM Embedded Processors / bleeding-edge-toolchain-141220) version 4.9.3 2014
  15              	@	compiled by GNU C version 4.9.2, GMP version 6.0.0, MPFR version 3.1.2, MPC version 1.0.2
  16              	@ GGC heuristics: --param ggc-min-expand=100 --param ggc-min-heapsize=131072
  17              	@ options passed:  -I . -I C:\DEV\arm\lib\cmsis -I C:\DEV\arm\lib\stm32f4xx
  18              	@ -I include -imultilib armv7e-m/fpu
  19              	@ -iprefix c:\dev\arm\gcc-arm-none-eabi-4_9-141220\bin\../lib/gcc/arm-none-eabi/4.9.3/
  20              	@ -isysroot c:\dev\arm\gcc-arm-none-eabi-4_9-141220\bin\../arm-none-eabi
  21              	@ -MD bin/config.d -MF bin/config.d -MP -MQ bin/config.o
  22              	@ -D__USES_INITFINI__ -D STM32F4XX -D ARM_MATH_CM4 -D __FPU_PRESENT
  23              	@ src/config.c -mcpu=cortex-m4 -mthumb -mfloat-abi=hard -mfpu=fpv4-sp-d16
  24              	@ -auxbase-strip bin/config.o -g -ggdb3 -O0 -Wall -Wstrict-prototypes
  25              	@ -Wextra -std=c99 -ffast-math -ffunction-sections -fdata-sections
  26              	@ -fverbose-asm
  27              	@ options enabled:  -faggressive-loop-optimizations -fassociative-math
  28              	@ -fauto-inc-dec -fcommon -fcx-limited-range -fdata-sections
  29              	@ -fdelete-null-pointer-checks -fdwarf2-cfi-asm -fearly-inlining
  30              	@ -feliminate-unused-debug-types -ffinite-math-only -ffunction-cse
  31              	@ -ffunction-sections -fgcse-lm -fgnu-runtime -fgnu-unique -fident
  32              	@ -finline-atomics -fira-hoist-pressure -fira-share-save-slots
  33              	@ -fira-share-spill-slots -fivopts -fkeep-static-consts
  34              	@ -fleading-underscore -fmerge-debug-strings -fpeephole
  35              	@ -fprefetch-loop-arrays -freciprocal-math -freg-struct-return
  36              	@ -fsched-critical-path-heuristic -fsched-dep-count-heuristic
  37              	@ -fsched-group-heuristic -fsched-interblock -fsched-last-insn-heuristic
  38              	@ -fsched-rank-heuristic -fsched-spec -fsched-spec-insn-heuristic
  39              	@ -fsched-stalled-insns-dep -fshow-column -fsplit-ivs-in-unroller
  40              	@ -fstrict-volatile-bitfields -fsync-libcalls -ftree-coalesce-vars
  41              	@ -ftree-cselim -ftree-forwprop -ftree-loop-if-convert -ftree-loop-im
  42              	@ -ftree-loop-ivcanon -ftree-loop-optimize -ftree-parallelize-loops=
  43              	@ -ftree-phiprop -ftree-reassoc -ftree-scev-cprop -funit-at-a-time
  44              	@ -funsafe-math-optimizations -fverbose-asm -fzero-initialized-in-bss
  45              	@ -mlittle-endian -mlra -mpic-data-is-text-relative -msched-prolog -mthumb
  46              	@ -munaligned-access -mvectorize-with-neon-quad
  47              	
  48              		.text
  49              	.Ltext0:
  50              		.cfi_sections	.debug_frame
  51              		.section	.text.PLL_Start,"ax",%progbits
  52              		.align	2
  53              		.global	PLL_Start
  54              		.thumb
  55              		.thumb_func
  56              		.type	PLL_Start, %function
  57              	PLL_Start:
ARM GAS  C:\Users\Daro\AppData\Local\Temp\cckG19tx.s 			page 2


  58              	.LFB110:
  59              		.file 1 "src/config.c"
   1:src/config.c  **** #include "include/config.h"
   2:src/config.c  **** #include "hdr/hdr_rcc.h"
   3:src/config.c  **** 
   4:src/config.c  **** /*------------------------------------------------------------------------*//**
   5:src/config.c  **** * \brief Starts the PLL
   6:src/config.c  **** * \details Configure and enable PLL to achieve some frequency with some crystal.
   7:src/config.c  **** * Before the speed change Flash latency is configured via flash_latency(). PLL
   8:src/config.c  **** * parameters are based on both function parameters. The PLL is set up,
   9:src/config.c  **** * started and connected. AHB clock ratio is set to 1:1 with core clock, APB1 -
  10:src/config.c  **** * 1:4 (max 42MHz), APB2 - 1:2 (max 84MHz). USB OTG, RNG and SDIO clock is set
  11:src/config.c  **** * to (VCO output / 9) (max 48MHz).
  12:src/config.c  **** *
  13:src/config.c  **** * \param [in] crystal is the frequency of the crystal resonator connected to the
  14:src/config.c  **** * STM32F407VG
  15:src/config.c  **** * \param [in] frequency is the desired target frequency after enabling the PLL
  16:src/config.c  **** *
  17:src/config.c  **** * \return real frequency that was set
  18:src/config.c  **** *//*-------------------------------------------------------------------------*/
  19:src/config.c  **** 
  20:src/config.c  **** uint32_t PLL_Start(uint32_t crystal, uint32_t frequency)
  21:src/config.c  **** {
  60              		.loc 1 21 0
  61              		.cfi_startproc
  62              		@ args = 0, pretend = 0, frame = 48
  63              		@ frame_needed = 1, uses_anonymous_args = 0
  64 0000 80B5     		push	{r7, lr}	@
  65              		.cfi_def_cfa_offset 8
  66              		.cfi_offset 7, -8
  67              		.cfi_offset 14, -4
  68 0002 8CB0     		sub	sp, sp, #48	@,,
  69              		.cfi_def_cfa_offset 56
  70 0004 00AF     		add	r7, sp, #0	@,,
  71              		.cfi_def_cfa_register 7
  72 0006 7860     		str	r0, [r7, #4]	@ crystal, crystal
  73 0008 3960     		str	r1, [r7]	@ frequency, frequency
  22:src/config.c  **** 	uint32_t div, mul, div_core, vco_input_frequency, vco_output_frequency, frequency_core;
  23:src/config.c  **** 	uint32_t best_div = 0, best_mul = 0, best_div_core = 0, best_frequency_core = 0;
  74              		.loc 1 23 0
  75 000a 0023     		movs	r3, #0	@ tmp134,
  76 000c 3B62     		str	r3, [r7, #32]	@ tmp134, best_div
  77 000e 0023     		movs	r3, #0	@ tmp135,
  78 0010 FB61     		str	r3, [r7, #28]	@ tmp135, best_mul
  79 0012 0023     		movs	r3, #0	@ tmp136,
  80 0014 BB61     		str	r3, [r7, #24]	@ tmp136, best_div_core
  81 0016 0023     		movs	r3, #0	@ tmp137,
  82 0018 7B61     		str	r3, [r7, #20]	@ tmp137, best_frequency_core
  24:src/config.c  **** 
  25:src/config.c  **** 	RCC_CR_HSEON_bb = 1;					// enable HSE clock
  83              		.loc 1 25 0
  84 001a 424B     		ldr	r3, .L20	@ D.5340,
  85 001c 0122     		movs	r2, #1	@ tmp138,
  86 001e 1A60     		str	r2, [r3]	@ tmp138, *_32
  26:src/config.c  **** 	Flash_SetLatency(frequency);			// configure Flash latency for desired frequency
  87              		.loc 1 26 0
  88 0020 3868     		ldr	r0, [r7]	@, frequency
ARM GAS  C:\Users\Daro\AppData\Local\Temp\cckG19tx.s 			page 3


  89 0022 FFF7FEFF 		bl	Flash_SetLatency	@
  27:src/config.c  **** 
  28:src/config.c  **** 	for (div = 2; div <= 63; div++)			// PLLM in [2; 63]
  90              		.loc 1 28 0
  91 0026 0223     		movs	r3, #2	@ tmp139,
  92 0028 FB62     		str	r3, [r7, #44]	@ tmp139, div
  93 002a 47E0     		b	.L2	@
  94              	.L15:
  29:src/config.c  **** 	{
  30:src/config.c  **** 		vco_input_frequency = crystal / div;
  95              		.loc 1 30 0
  96 002c 7A68     		ldr	r2, [r7, #4]	@ tmp142, crystal
  97 002e FB6A     		ldr	r3, [r7, #44]	@ tmp143, div
  98 0030 B2FBF3F3 		udiv	r3, r2, r3	@ tmp141, tmp142, tmp143
  99 0034 3B61     		str	r3, [r7, #16]	@ tmp141, vco_input_frequency
  31:src/config.c  **** 
  32:src/config.c  **** 		if ((vco_input_frequency < 1000000ul) || (vco_input_frequency > 2000000))	// skip invalid setting
 100              		.loc 1 32 0
 101 0036 3B69     		ldr	r3, [r7, #16]	@ tmp144, vco_input_frequency
 102 0038 3B4A     		ldr	r2, .L20+4	@ tmp145,
 103 003a 9342     		cmp	r3, r2	@ tmp144, tmp145
 104 003c 03D9     		bls	.L3	@,
 105              		.loc 1 32 0 is_stmt 0 discriminator 1
 106 003e 3B69     		ldr	r3, [r7, #16]	@ tmp146, vco_input_frequency
 107 0040 3A4A     		ldr	r2, .L20+8	@ tmp147,
 108 0042 9342     		cmp	r3, r2	@ tmp146, tmp147
 109 0044 00D9     		bls	.L4	@,
 110              	.L3:
  33:src/config.c  **** 			continue;
 111              		.loc 1 33 0 is_stmt 1
 112 0046 36E0     		b	.L5	@
 113              	.L4:
  34:src/config.c  **** 
  35:src/config.c  **** 		for (mul = 64; mul <= 432; mul++)	// PLLN in [64; 432]
 114              		.loc 1 35 0
 115 0048 4023     		movs	r3, #64	@ tmp148,
 116 004a BB62     		str	r3, [r7, #40]	@ tmp148, mul
 117 004c 2FE0     		b	.L6	@
 118              	.L14:
  36:src/config.c  **** 		{
  37:src/config.c  **** 			vco_output_frequency = vco_input_frequency * mul;
 119              		.loc 1 37 0
 120 004e 3B69     		ldr	r3, [r7, #16]	@ tmp150, vco_input_frequency
 121 0050 BA6A     		ldr	r2, [r7, #40]	@ tmp151, mul
 122 0052 02FB03F3 		mul	r3, r2, r3	@ tmp149, tmp151, tmp150
 123 0056 FB60     		str	r3, [r7, #12]	@ tmp149, vco_output_frequency
  38:src/config.c  **** 
  39:src/config.c  **** 			if ((vco_output_frequency < 64000000ul) || (vco_output_frequency > 432000000ul))	// skip invalid
 124              		.loc 1 39 0
 125 0058 FB68     		ldr	r3, [r7, #12]	@ tmp152, vco_output_frequency
 126 005a 354A     		ldr	r2, .L20+12	@ tmp153,
 127 005c 9342     		cmp	r3, r2	@ tmp152, tmp153
 128 005e 03D9     		bls	.L7	@,
 129              		.loc 1 39 0 is_stmt 0 discriminator 1
 130 0060 FB68     		ldr	r3, [r7, #12]	@ tmp154, vco_output_frequency
 131 0062 344A     		ldr	r2, .L20+16	@ tmp155,
 132 0064 9342     		cmp	r3, r2	@ tmp154, tmp155
ARM GAS  C:\Users\Daro\AppData\Local\Temp\cckG19tx.s 			page 4


 133 0066 00D9     		bls	.L8	@,
 134              	.L7:
  40:src/config.c  **** 				continue;
 135              		.loc 1 40 0 is_stmt 1
 136 0068 1EE0     		b	.L9	@
 137              	.L8:
  41:src/config.c  **** 
  42:src/config.c  **** 			for (div_core = 2; div_core <= 8; div_core += 2)	// PLLP in {2, 4, 6, 8}
 138              		.loc 1 42 0
 139 006a 0223     		movs	r3, #2	@ tmp156,
 140 006c 7B62     		str	r3, [r7, #36]	@ tmp156, div_core
 141 006e 18E0     		b	.L10	@
 142              	.L13:
  43:src/config.c  **** 			{
  44:src/config.c  **** 				frequency_core = vco_output_frequency / div_core;
 143              		.loc 1 44 0
 144 0070 FA68     		ldr	r2, [r7, #12]	@ tmp159, vco_output_frequency
 145 0072 7B6A     		ldr	r3, [r7, #36]	@ tmp160, div_core
 146 0074 B2FBF3F3 		udiv	r3, r2, r3	@ tmp158, tmp159, tmp160
 147 0078 BB60     		str	r3, [r7, #8]	@ tmp158, frequency_core
  45:src/config.c  **** 
  46:src/config.c  **** 				if (frequency_core > frequency)	// skip values over desired frequency
 148              		.loc 1 46 0
 149 007a BA68     		ldr	r2, [r7, #8]	@ tmp161, frequency_core
 150 007c 3B68     		ldr	r3, [r7]	@ tmp162, frequency
 151 007e 9A42     		cmp	r2, r3	@ tmp161, tmp162
 152 0080 00D9     		bls	.L11	@,
  47:src/config.c  **** 					continue;
 153              		.loc 1 47 0
 154 0082 0BE0     		b	.L12	@
 155              	.L11:
  48:src/config.c  **** 
  49:src/config.c  **** 				if (frequency_core > best_frequency_core)	// is this configuration better than previous one?
 156              		.loc 1 49 0
 157 0084 BA68     		ldr	r2, [r7, #8]	@ tmp163, frequency_core
 158 0086 7B69     		ldr	r3, [r7, #20]	@ tmp164, best_frequency_core
 159 0088 9A42     		cmp	r2, r3	@ tmp163, tmp164
 160 008a 07D9     		bls	.L12	@,
  50:src/config.c  **** 				{
  51:src/config.c  **** 					best_frequency_core = frequency_core;	// yes - save values
 161              		.loc 1 51 0
 162 008c BB68     		ldr	r3, [r7, #8]	@ tmp165, frequency_core
 163 008e 7B61     		str	r3, [r7, #20]	@ tmp165, best_frequency_core
  52:src/config.c  **** 					best_div = div;
 164              		.loc 1 52 0
 165 0090 FB6A     		ldr	r3, [r7, #44]	@ tmp166, div
 166 0092 3B62     		str	r3, [r7, #32]	@ tmp166, best_div
  53:src/config.c  **** 					best_mul = mul;
 167              		.loc 1 53 0
 168 0094 BB6A     		ldr	r3, [r7, #40]	@ tmp167, mul
 169 0096 FB61     		str	r3, [r7, #28]	@ tmp167, best_mul
  54:src/config.c  **** 					best_div_core = div_core;
 170              		.loc 1 54 0
 171 0098 7B6A     		ldr	r3, [r7, #36]	@ tmp168, div_core
 172 009a BB61     		str	r3, [r7, #24]	@ tmp168, best_div_core
 173              	.L12:
  42:src/config.c  **** 			{
ARM GAS  C:\Users\Daro\AppData\Local\Temp\cckG19tx.s 			page 5


 174              		.loc 1 42 0 discriminator 2
 175 009c 7B6A     		ldr	r3, [r7, #36]	@ tmp170, div_core
 176 009e 0233     		adds	r3, r3, #2	@ tmp169, tmp170,
 177 00a0 7B62     		str	r3, [r7, #36]	@ tmp169, div_core
 178              	.L10:
  42:src/config.c  **** 			{
 179              		.loc 1 42 0 is_stmt 0 discriminator 1
 180 00a2 7B6A     		ldr	r3, [r7, #36]	@ tmp171, div_core
 181 00a4 082B     		cmp	r3, #8	@ tmp171,
 182 00a6 E3D9     		bls	.L13	@,
 183              	.L9:
  35:src/config.c  **** 		{
 184              		.loc 1 35 0 is_stmt 1 discriminator 2
 185 00a8 BB6A     		ldr	r3, [r7, #40]	@ tmp173, mul
 186 00aa 0133     		adds	r3, r3, #1	@ tmp172, tmp173,
 187 00ac BB62     		str	r3, [r7, #40]	@ tmp172, mul
 188              	.L6:
  35:src/config.c  **** 		{
 189              		.loc 1 35 0 is_stmt 0 discriminator 1
 190 00ae BB6A     		ldr	r3, [r7, #40]	@ tmp174, mul
 191 00b0 B3F5D87F 		cmp	r3, #432	@ tmp174,
 192 00b4 CBD9     		bls	.L14	@,
 193              	.L5:
  28:src/config.c  **** 	{
 194              		.loc 1 28 0 is_stmt 1 discriminator 2
 195 00b6 FB6A     		ldr	r3, [r7, #44]	@ tmp176, div
 196 00b8 0133     		adds	r3, r3, #1	@ tmp175, tmp176,
 197 00ba FB62     		str	r3, [r7, #44]	@ tmp175, div
 198              	.L2:
  28:src/config.c  **** 	{
 199              		.loc 1 28 0 is_stmt 0 discriminator 1
 200 00bc FB6A     		ldr	r3, [r7, #44]	@ tmp177, div
 201 00be 3F2B     		cmp	r3, #63	@ tmp177,
 202 00c0 B4D9     		bls	.L15	@,
  55:src/config.c  **** 				}
  56:src/config.c  **** 			}
  57:src/config.c  **** 		}
  58:src/config.c  **** 	}
  59:src/config.c  **** 
  60:src/config.c  **** 	RCC->PLLCFGR = (best_div << RCC_PLLCFGR_PLLM_bit) | (best_mul << RCC_PLLCFGR_PLLN_bit) | ((best_di
 203              		.loc 1 60 0 is_stmt 1
 204 00c2 1D49     		ldr	r1, .L20+20	@ D.5341,
 205 00c4 FB69     		ldr	r3, [r7, #28]	@ tmp178, best_mul
 206 00c6 9A01     		lsls	r2, r3, #6	@ D.5342, tmp178,
 207 00c8 3B6A     		ldr	r3, [r7, #32]	@ tmp179, best_div
 208 00ca 1A43     		orrs	r2, r2, r3	@, D.5342, D.5342, tmp179
 209 00cc BB69     		ldr	r3, [r7, #24]	@ tmp180, best_div_core
 210 00ce 5B08     		lsrs	r3, r3, #1	@ D.5342, tmp180,
 211 00d0 013B     		subs	r3, r3, #1	@ D.5342, D.5342,
 212 00d2 1B04     		lsls	r3, r3, #16	@ D.5342, D.5342,
 213 00d4 1343     		orrs	r3, r3, r2	@, D.5342, D.5342, D.5342
 214 00d6 43F01463 		orr	r3, r3, #155189248	@ D.5342, D.5342,
 215 00da 4B60     		str	r3, [r1, #4]	@ D.5342, _48->PLLCFGR
  61:src/config.c  **** 
  62:src/config.c  **** 	RCC->CFGR = RCC_CFGR_PPRE2_DIV2 | RCC_CFGR_PPRE1_DIV4 | RCC_CFGR_HPRE_DIV1;	// AHB - no prescaler,
 216              		.loc 1 62 0
 217 00dc 164B     		ldr	r3, .L20+20	@ D.5341,
ARM GAS  C:\Users\Daro\AppData\Local\Temp\cckG19tx.s 			page 6


 218 00de 4FF41442 		mov	r2, #37888	@ tmp181,
 219 00e2 9A60     		str	r2, [r3, #8]	@ tmp181, _56->CFGR
  63:src/config.c  **** 
  64:src/config.c  **** 	while (!RCC_CR_HSERDY_bb);				// wait for stable clock
 220              		.loc 1 64 0
 221 00e4 00BF     		nop
 222              	.L16:
 223              		.loc 1 64 0 is_stmt 0 discriminator 1
 224 00e6 154B     		ldr	r3, .L20+24	@ D.5340,
 225 00e8 1B68     		ldr	r3, [r3]	@ D.5342, *_57
 226 00ea 002B     		cmp	r3, #0	@ D.5342,
 227 00ec FBD0     		beq	.L16	@,
  65:src/config.c  **** 
  66:src/config.c  **** 	RCC_CR_PLLON_bb = 1;					// enable PLL
 228              		.loc 1 66 0 is_stmt 1
 229 00ee 144B     		ldr	r3, .L20+28	@ D.5340,
 230 00f0 0122     		movs	r2, #1	@ tmp182,
 231 00f2 1A60     		str	r2, [r3]	@ tmp182, *_59
  67:src/config.c  **** 	while (!RCC_CR_PLLRDY_bb);				// wait for PLL lock
 232              		.loc 1 67 0
 233 00f4 00BF     		nop
 234              	.L17:
 235              		.loc 1 67 0 is_stmt 0 discriminator 1
 236 00f6 134B     		ldr	r3, .L20+32	@ D.5340,
 237 00f8 1B68     		ldr	r3, [r3]	@ D.5342, *_60
 238 00fa 002B     		cmp	r3, #0	@ D.5342,
 239 00fc FBD0     		beq	.L17	@,
  68:src/config.c  **** 
  69:src/config.c  **** 	RCC->CFGR |= RCC_CFGR_SW_PLL;			// change SYSCLK to PLL
 240              		.loc 1 69 0 is_stmt 1
 241 00fe 0E4A     		ldr	r2, .L20+20	@ D.5341,
 242 0100 0D4B     		ldr	r3, .L20+20	@ D.5341,
 243 0102 9B68     		ldr	r3, [r3, #8]	@ D.5342, _63->CFGR
 244 0104 43F00203 		orr	r3, r3, #2	@ D.5342, D.5342,
 245 0108 9360     		str	r3, [r2, #8]	@ D.5342, _62->CFGR
  70:src/config.c  **** 	while (((RCC->CFGR) & RCC_CFGR_SWS) != RCC_CFGR_SWS_PLL);	// wait for switch
 246              		.loc 1 70 0
 247 010a 00BF     		nop
 248              	.L18:
 249              		.loc 1 70 0 is_stmt 0 discriminator 1
 250 010c 0A4B     		ldr	r3, .L20+20	@ D.5341,
 251 010e 9B68     		ldr	r3, [r3, #8]	@ D.5342, _66->CFGR
 252 0110 03F00C03 		and	r3, r3, #12	@ D.5342, D.5342,
 253 0114 082B     		cmp	r3, #8	@ D.5342,
 254 0116 F9D1     		bne	.L18	@,
  71:src/config.c  **** 
  72:src/config.c  **** 	return best_frequency_core;
 255              		.loc 1 72 0 is_stmt 1
 256 0118 7B69     		ldr	r3, [r7, #20]	@ D.5343, best_frequency_core
  73:src/config.c  **** }
 257              		.loc 1 73 0
 258 011a 1846     		mov	r0, r3	@, <retval>
 259 011c 3037     		adds	r7, r7, #48	@,,
 260              		.cfi_def_cfa_offset 8
 261 011e BD46     		mov	sp, r7	@,
 262              		.cfi_def_cfa_register 13
 263              		@ sp needed	@
ARM GAS  C:\Users\Daro\AppData\Local\Temp\cckG19tx.s 			page 7


 264 0120 80BD     		pop	{r7, pc}	@
 265              	.L21:
 266 0122 00BF     		.align	2
 267              	.L20:
 268 0124 40004742 		.word	1111949376
 269 0128 3F420F00 		.word	999999
 270 012c 80841E00 		.word	2000000
 271 0130 FF8FD003 		.word	63999999
 272 0134 00CCBF19 		.word	432000000
 273 0138 00380240 		.word	1073887232
 274 013c 44004742 		.word	1111949380
 275 0140 60004742 		.word	1111949408
 276 0144 64004742 		.word	1111949412
 277              		.cfi_endproc
 278              	.LFE110:
 279              		.size	PLL_Start, .-PLL_Start
 280              		.section	.text.FPU_Enable,"ax",%progbits
 281              		.align	2
 282              		.global	FPU_Enable
 283              		.thumb
 284              		.thumb_func
 285              		.type	FPU_Enable, %function
 286              	FPU_Enable:
 287              	.LFB111:
  74:src/config.c  **** 
  75:src/config.c  **** 
  76:src/config.c  **** /*------------------------------------------------------------------------*//**
  77:src/config.c  **** * \brief Enables FPU
  78:src/config.c  **** * \details Enables FPU in Cortex-M4 for both privileged and user mode. This is
  79:src/config.c  **** * done by enabling CP10 and CP11 coprocessors in CPACR register (possible only
  80:src/config.c  **** * when in privileged mode).
  81:src/config.c  **** *//*-------------------------------------------------------------------------*/
  82:src/config.c  **** 
  83:src/config.c  **** void FPU_Enable(void)
  84:src/config.c  **** {
 288              		.loc 1 84 0
 289              		.cfi_startproc
 290              		@ args = 0, pretend = 0, frame = 0
 291              		@ frame_needed = 1, uses_anonymous_args = 0
 292              		@ link register save eliminated.
 293 0000 80B4     		push	{r7}	@
 294              		.cfi_def_cfa_offset 4
 295              		.cfi_offset 7, -4
 296 0002 00AF     		add	r7, sp, #0	@,,
 297              		.cfi_def_cfa_register 7
  85:src/config.c  **** #if (__FPU_PRESENT == 1) && (__FPU_USED == 1)
  86:src/config.c  **** 	SCB->CPACR |= ((3UL << (10 * 2)) | (3UL << (11 * 2)));	// set CP10 and CP11 Full Access
 298              		.loc 1 86 0
 299 0004 054A     		ldr	r2, .L23	@ D.5344,
 300 0006 054B     		ldr	r3, .L23	@ D.5344,
 301 0008 D3F88830 		ldr	r3, [r3, #136]	@ D.5345, _2->CPACR
 302 000c 43F47003 		orr	r3, r3, #15728640	@ D.5345, D.5345,
 303 0010 C2F88830 		str	r3, [r2, #136]	@ D.5345, _1->CPACR
  87:src/config.c  **** #endif
  88:src/config.c  **** }
 304              		.loc 1 88 0
 305 0014 BD46     		mov	sp, r7	@,
ARM GAS  C:\Users\Daro\AppData\Local\Temp\cckG19tx.s 			page 8


 306              		.cfi_def_cfa_register 13
 307              		@ sp needed	@
 308 0016 5DF8047B 		ldr	r7, [sp], #4	@,
 309              		.cfi_restore 7
 310              		.cfi_def_cfa_offset 0
 311 001a 7047     		bx	lr	@
 312              	.L24:
 313              		.align	2
 314              	.L23:
 315 001c 00ED00E0 		.word	-536810240
 316              		.cfi_endproc
 317              	.LFE111:
 318              		.size	FPU_Enable, .-FPU_Enable
 319              		.section	.text.Flash_SetLatency,"ax",%progbits
 320              		.align	2
 321              		.global	Flash_SetLatency
 322              		.thumb
 323              		.thumb_func
 324              		.type	Flash_SetLatency, %function
 325              	Flash_SetLatency:
 326              	.LFB112:
  89:src/config.c  **** 
  90:src/config.c  **** /*------------------------------------------------------------------------*//**
  91:src/config.c  **** * \brief Configures Flash latency.
  92:src/config.c  **** * \details Configures Flash latency (wait-states) which allows the chip to run
  93:src/config.c  **** * at higher speeds. The constants used for calculations are valid when chip's
  94:src/config.c  **** * voltage is in 2.7V to 3.6V range.
  95:src/config.c  **** *
  96:src/config.c  **** * \param [in] frequency defines the target frequency of the core
  97:src/config.c  **** *//*-------------------------------------------------------------------------*/
  98:src/config.c  **** 
  99:src/config.c  **** void Flash_SetLatency(uint32_t frequency)
 100:src/config.c  **** {
 327              		.loc 1 100 0
 328              		.cfi_startproc
 329              		@ args = 0, pretend = 0, frame = 16
 330              		@ frame_needed = 1, uses_anonymous_args = 0
 331              		@ link register save eliminated.
 332 0000 80B4     		push	{r7}	@
 333              		.cfi_def_cfa_offset 4
 334              		.cfi_offset 7, -4
 335 0002 85B0     		sub	sp, sp, #20	@,,
 336              		.cfi_def_cfa_offset 24
 337 0004 00AF     		add	r7, sp, #0	@,,
 338              		.cfi_def_cfa_register 7
 339 0006 7860     		str	r0, [r7, #4]	@ frequency, frequency
 101:src/config.c  **** 	uint32_t wait_states;
 102:src/config.c  **** 
 103:src/config.c  **** 	wait_states = frequency / 30000000UL;	// calculate wait_states (30M is valid for 2.7V to 3.6V volt
 340              		.loc 1 103 0
 341 0008 7B68     		ldr	r3, [r7, #4]	@ tmp116, frequency
 342 000a DB09     		lsrs	r3, r3, #7	@ tmp117, tmp116,
 343 000c 0D4A     		ldr	r2, .L26	@ tmp119,
 344 000e A2FB0323 		umull	r2, r3, r2, r3	@ tmp125, tmp118, tmp119, tmp117
 345 0012 9B0A     		lsrs	r3, r3, #10	@ tmp115, tmp118,
 346 0014 FB60     		str	r3, [r7, #12]	@ tmp115, wait_states
 104:src/config.c  **** 	wait_states &= 7;						// trim to max allowed value - 7
ARM GAS  C:\Users\Daro\AppData\Local\Temp\cckG19tx.s 			page 9


 347              		.loc 1 104 0
 348 0016 FB68     		ldr	r3, [r7, #12]	@ tmp121, wait_states
 349 0018 03F00703 		and	r3, r3, #7	@ tmp120, tmp121,
 350 001c FB60     		str	r3, [r7, #12]	@ tmp120, wait_states
 105:src/config.c  **** 
 106:src/config.c  **** 	FLASH->ACR = wait_states;				// set wait_states, disable all caches and prefetch
 351              		.loc 1 106 0
 352 001e 0A4A     		ldr	r2, .L26+4	@ D.5346,
 353 0020 FB68     		ldr	r3, [r7, #12]	@ tmp122, wait_states
 354 0022 1360     		str	r3, [r2]	@ tmp122, _4->ACR
 107:src/config.c  **** 	FLASH->ACR = FLASH_ACR_DCRST | FLASH_ACR_ICRST | wait_states;	// reset caches
 355              		.loc 1 107 0
 356 0024 084A     		ldr	r2, .L26+4	@ D.5346,
 357 0026 FB68     		ldr	r3, [r7, #12]	@ tmp123, wait_states
 358 0028 43F4C053 		orr	r3, r3, #6144	@ D.5347, tmp123,
 359 002c 1360     		str	r3, [r2]	@ D.5347, _5->ACR
 108:src/config.c  **** 	FLASH->ACR = FLASH_ACR_DCEN | FLASH_ACR_ICEN | FLASH_ACR_PRFTEN | wait_states;	// enable caches an
 360              		.loc 1 108 0
 361 002e 064A     		ldr	r2, .L26+4	@ D.5346,
 362 0030 FB68     		ldr	r3, [r7, #12]	@ tmp124, wait_states
 363 0032 43F4E063 		orr	r3, r3, #1792	@ D.5347, tmp124,
 364 0036 1360     		str	r3, [r2]	@ D.5347, _7->ACR
 109:src/config.c  **** }
 365              		.loc 1 109 0
 366 0038 1437     		adds	r7, r7, #20	@,,
 367              		.cfi_def_cfa_offset 4
 368 003a BD46     		mov	sp, r7	@,
 369              		.cfi_def_cfa_register 13
 370              		@ sp needed	@
 371 003c 5DF8047B 		ldr	r7, [sp], #4	@,
 372              		.cfi_restore 7
 373              		.cfi_def_cfa_offset 0
 374 0040 7047     		bx	lr	@
 375              	.L27:
 376 0042 00BF     		.align	2
 377              	.L26:
 378 0044 C7541E01 		.word	18764999
 379 0048 003C0240 		.word	1073888256
 380              		.cfi_endproc
 381              	.LFE112:
 382              		.size	Flash_SetLatency, .-Flash_SetLatency
 383              		.text
 384              	.Letext0:
 385              		.file 2 "c:\\dev\\arm\\gcc-arm-none-eabi-4_9-141220\\arm-none-eabi\\include\\machine\\_default_typ
 386              		.file 3 "c:\\dev\\arm\\gcc-arm-none-eabi-4_9-141220\\arm-none-eabi\\include\\stdint.h"
 387              		.file 4 "C:\\DEV\\arm\\lib\\cmsis/core_cm4.h"
 388              		.file 5 "C:\\DEV\\arm\\lib\\stm32f4xx/stm32f4xx.h"