ARM GAS  C:\Users\Daro\AppData\Local\Temp\ccHzFYnc.s 			page 1


   1              		.syntax unified
   2              		.cpu cortex-m4
   3              		.eabi_attribute 27, 3	@ Tag_ABI_HardFP_use
   4              		.eabi_attribute 28, 1	@ Tag_ABI_VFP_args
   5              		.fpu fpv4-sp-d16
   6              		.eabi_attribute 23, 1	@ Tag_ABI_FP_number_model
   7              		.eabi_attribute 24, 1	@ Tag_ABI_align8_needed
   8              		.eabi_attribute 25, 1	@ Tag_ABI_align8_preserved
   9              		.eabi_attribute 26, 1	@ Tag_ABI_enum_size
  10              		.eabi_attribute 30, 6	@ Tag_ABI_optimization_goals
  11              		.eabi_attribute 34, 1	@ Tag_CPU_unaligned_access
  12              		.eabi_attribute 18, 4	@ Tag_ABI_PCS_wchar_t
  13              		.file	"hmc5883l.c"
  14              	@ GNU C (GNU Tools for ARM Embedded Processors / bleeding-edge-toolchain-141220) version 4.9.3 2014
  15              	@	compiled by GNU C version 4.9.2, GMP version 6.0.0, MPFR version 3.1.2, MPC version 1.0.2
  16              	@ GGC heuristics: --param ggc-min-expand=100 --param ggc-min-heapsize=131072
  17              	@ options passed:  -I . -I C:\DEV\arm\lib\cmsis -I C:\DEV\arm\lib\stm32f4xx
  18              	@ -I include -imultilib armv7e-m/fpu
  19              	@ -iprefix c:\dev\arm\gcc-arm-none-eabi-4_9-141220\bin\../lib/gcc/arm-none-eabi/4.9.3/
  20              	@ -isysroot c:\dev\arm\gcc-arm-none-eabi-4_9-141220\bin\../arm-none-eabi
  21              	@ -MD bin/hmc5883l.d -MF bin/hmc5883l.d -MP -MQ bin/hmc5883l.o
  22              	@ -D__USES_INITFINI__ -D STM32F4XX -D ARM_MATH_CM4 -D __FPU_PRESENT
  23              	@ src/hmc5883l.c -mcpu=cortex-m4 -mthumb -mfloat-abi=hard -mfpu=fpv4-sp-d16
  24              	@ -auxbase-strip bin/hmc5883l.o -g -ggdb3 -O0 -Wall -Wstrict-prototypes
  25              	@ -Wextra -std=c99 -ffast-math -ffunction-sections -fdata-sections
  26              	@ -fverbose-asm
  27              	@ options enabled:  -faggressive-loop-optimizations -fassociative-math
  28              	@ -fauto-inc-dec -fcommon -fcx-limited-range -fdata-sections
  29              	@ -fdelete-null-pointer-checks -fdwarf2-cfi-asm -fearly-inlining
  30              	@ -feliminate-unused-debug-types -ffinite-math-only -ffunction-cse
  31              	@ -ffunction-sections -fgcse-lm -fgnu-runtime -fgnu-unique -fident
  32              	@ -finline-atomics -fira-hoist-pressure -fira-share-save-slots
  33              	@ -fira-share-spill-slots -fivopts -fkeep-static-consts
  34              	@ -fleading-underscore -fmerge-debug-strings -fpeephole
  35              	@ -fprefetch-loop-arrays -freciprocal-math -freg-struct-return
  36              	@ -fsched-critical-path-heuristic -fsched-dep-count-heuristic
  37              	@ -fsched-group-heuristic -fsched-interblock -fsched-last-insn-heuristic
  38              	@ -fsched-rank-heuristic -fsched-spec -fsched-spec-insn-heuristic
  39              	@ -fsched-stalled-insns-dep -fshow-column -fsplit-ivs-in-unroller
  40              	@ -fstrict-volatile-bitfields -fsync-libcalls -ftree-coalesce-vars
  41              	@ -ftree-cselim -ftree-forwprop -ftree-loop-if-convert -ftree-loop-im
  42              	@ -ftree-loop-ivcanon -ftree-loop-optimize -ftree-parallelize-loops=
  43              	@ -ftree-phiprop -ftree-reassoc -ftree-scev-cprop -funit-at-a-time
  44              	@ -funsafe-math-optimizations -fverbose-asm -fzero-initialized-in-bss
  45              	@ -mlittle-endian -mlra -mpic-data-is-text-relative -msched-prolog -mthumb
  46              	@ -munaligned-access -mvectorize-with-neon-quad
  47              	
  48              		.text
  49              	.Ltext0:
  50              		.cfi_sections	.debug_frame
  51              		.section	.text.HMC6883L_writeRegister,"ax",%progbits
  52              		.align	2
  53              		.global	HMC6883L_writeRegister
  54              		.thumb
  55              		.thumb_func
  56              		.type	HMC6883L_writeRegister, %function
  57              	HMC6883L_writeRegister:
ARM GAS  C:\Users\Daro\AppData\Local\Temp\ccHzFYnc.s 			page 2


  58              	.LFB110:
  59              		.file 1 "src/hmc5883l.c"
   1:src/hmc5883l.c **** #include <stdbool.h>
   2:src/hmc5883l.c **** #include "include/i2c.h"
   3:src/hmc5883l.c **** #include "include/hmc5883l.h"
   4:src/hmc5883l.c **** 
   5:src/hmc5883l.c **** uint8_t HMC6883L_writeRegister(uint8_t reg)
   6:src/hmc5883l.c **** {
  60              		.loc 1 6 0
  61              		.cfi_startproc
  62              		@ args = 0, pretend = 0, frame = 16
  63              		@ frame_needed = 1, uses_anonymous_args = 0
  64 0000 80B5     		push	{r7, lr}	@
  65              		.cfi_def_cfa_offset 8
  66              		.cfi_offset 7, -8
  67              		.cfi_offset 14, -4
  68 0002 84B0     		sub	sp, sp, #16	@,,
  69              		.cfi_def_cfa_offset 24
  70 0004 00AF     		add	r7, sp, #0	@,,
  71              		.cfi_def_cfa_register 7
  72 0006 0346     		mov	r3, r0	@ tmp112, reg
  73 0008 FB71     		strb	r3, [r7, #7]	@ tmp113, reg
   7:src/hmc5883l.c **** 	uint8_t value;
   8:src/hmc5883l.c **** 	I2C_Write(HMC5883L_ADDRESS, &reg, 1);
  74              		.loc 1 8 0
  75 000a FB1D     		adds	r3, r7, #7	@ tmp114,,
  76 000c 1E20     		movs	r0, #30	@,
  77 000e 1946     		mov	r1, r3	@, tmp114
  78 0010 0122     		movs	r2, #1	@,
  79 0012 FFF7FEFF 		bl	I2C_Write	@
   9:src/hmc5883l.c **** 	I2C_Read(HMC5883L_ADDRESS, &value, 1);
  80              		.loc 1 9 0
  81 0016 07F10F03 		add	r3, r7, #15	@ tmp115,,
  82 001a 1E20     		movs	r0, #30	@,
  83 001c 1946     		mov	r1, r3	@, tmp115
  84 001e 0122     		movs	r2, #1	@,
  85 0020 FFF7FEFF 		bl	I2C_Read	@
  10:src/hmc5883l.c **** 
  11:src/hmc5883l.c **** 	return value;
  86              		.loc 1 11 0
  87 0024 FB7B     		ldrb	r3, [r7, #15]	@ zero_extendqisi2	@ D.5307, value
  12:src/hmc5883l.c **** }
  88              		.loc 1 12 0
  89 0026 1846     		mov	r0, r3	@, <retval>
  90 0028 1037     		adds	r7, r7, #16	@,,
  91              		.cfi_def_cfa_offset 8
  92 002a BD46     		mov	sp, r7	@,
  93              		.cfi_def_cfa_register 13
  94              		@ sp needed	@
  95 002c 80BD     		pop	{r7, pc}	@
  96              		.cfi_endproc
  97              	.LFE110:
  98              		.size	HMC6883L_writeRegister, .-HMC6883L_writeRegister
  99 002e 00BF     		.section	.text.HMC6883_init,"ax",%progbits
 100              		.align	2
 101              		.global	HMC6883_init
 102              		.thumb
ARM GAS  C:\Users\Daro\AppData\Local\Temp\ccHzFYnc.s 			page 3


 103              		.thumb_func
 104              		.type	HMC6883_init, %function
 105              	HMC6883_init:
 106              	.LFB111:
  13:src/hmc5883l.c **** 
  14:src/hmc5883l.c **** bool HMC6883_init(void)
  15:src/hmc5883l.c **** {
 107              		.loc 1 15 0
 108              		.cfi_startproc
 109              		@ args = 0, pretend = 0, frame = 0
 110              		@ frame_needed = 1, uses_anonymous_args = 0
 111 0000 80B5     		push	{r7, lr}	@
 112              		.cfi_def_cfa_offset 8
 113              		.cfi_offset 7, -8
 114              		.cfi_offset 14, -4
 115 0002 00AF     		add	r7, sp, #0	@,,
 116              		.cfi_def_cfa_register 7
  16:src/hmc5883l.c **** 	if ((HMC6883L_writeRegister(HMC5883L_REG_IDENT_A) != 0x48)
 117              		.loc 1 16 0
 118 0004 0A20     		movs	r0, #10	@,
 119 0006 FFF7FEFF 		bl	HMC6883L_writeRegister	@
 120 000a 0346     		mov	r3, r0	@ tmp115,
 121 000c 482B     		cmp	r3, #72	@ D.5308,
 122 000e 0BD1     		bne	.L4	@,
  17:src/hmc5883l.c **** 	 || (HMC6883L_writeRegister(HMC5883L_REG_IDENT_B) != 0x34)
 123              		.loc 1 17 0
 124 0010 0B20     		movs	r0, #11	@,
 125 0012 FFF7FEFF 		bl	HMC6883L_writeRegister	@
 126 0016 0346     		mov	r3, r0	@ tmp116,
 127 0018 342B     		cmp	r3, #52	@ D.5308,
 128 001a 05D1     		bne	.L4	@,
  18:src/hmc5883l.c **** 	 || (HMC6883L_writeRegister(HMC5883L_REG_IDENT_C) != 0x33))
 129              		.loc 1 18 0
 130 001c 0C20     		movs	r0, #12	@,
 131 001e FFF7FEFF 		bl	HMC6883L_writeRegister	@
 132 0022 0346     		mov	r3, r0	@ tmp117,
 133 0024 332B     		cmp	r3, #51	@ D.5308,
 134 0026 01D0     		beq	.L5	@,
 135              	.L4:
  19:src/hmc5883l.c **** 	{
  20:src/hmc5883l.c **** 		return false;
 136              		.loc 1 20 0
 137 0028 0023     		movs	r3, #0	@ D.5309,
 138 002a FFE7     		b	.L3	@
 139              	.L5:
 140              	.L3:
  21:src/hmc5883l.c **** 	}
  22:src/hmc5883l.c **** 
  23:src/hmc5883l.c **** 	/*setRange(HMC5883L_RANGE_1_3GA);
  24:src/hmc5883l.c **** 	setMeasurementMode(HMC5883L_CONTINOUS);
  25:src/hmc5883l.c **** 	setDataRate(HMC5883L_DATARATE_15HZ);
  26:src/hmc5883l.c **** 	setSamples(HMC5883L_SAMPLES_1);
  27:src/hmc5883l.c **** 	mgPerDigit = 0.92f;*/
  28:src/hmc5883l.c **** }
 141              		.loc 1 28 0
 142 002c 1846     		mov	r0, r3	@, <retval>
 143 002e 80BD     		pop	{r7, pc}	@
ARM GAS  C:\Users\Daro\AppData\Local\Temp\ccHzFYnc.s 			page 4


 144              		.cfi_endproc
 145              	.LFE111:
 146              		.size	HMC6883_init, .-HMC6883_init
 147              		.text
 148              	.Letext0:
 149              		.file 2 "c:\\dev\\arm\\gcc-arm-none-eabi-4_9-141220\\arm-none-eabi\\include\\machine\\_default_typ
 150              		.file 3 "c:\\dev\\arm\\gcc-arm-none-eabi-4_9-141220\\arm-none-eabi\\include\\stdint.h"
 151              		.file 4 "C:\\DEV\\arm\\lib\\cmsis/core_cm4.h"