ARM GAS  C:\Users\Daro\AppData\Local\Temp\ccSk3f6B.s 			page 1


   1              		.syntax unified
   2              		.cpu cortex-m4
   3              		.eabi_attribute 27, 3	@ Tag_ABI_HardFP_use
   4              		.eabi_attribute 28, 1	@ Tag_ABI_VFP_args
   5              		.fpu fpv4-sp-d16
   6              		.eabi_attribute 23, 1	@ Tag_ABI_FP_number_model
   7              		.eabi_attribute 24, 1	@ Tag_ABI_align8_needed
   8              		.eabi_attribute 25, 1	@ Tag_ABI_align8_preserved
   9              		.eabi_attribute 26, 1	@ Tag_ABI_enum_size
  10              		.eabi_attribute 30, 6	@ Tag_ABI_optimization_goals
  11              		.eabi_attribute 34, 1	@ Tag_CPU_unaligned_access
  12              		.eabi_attribute 18, 4	@ Tag_ABI_PCS_wchar_t
  13              		.file	"i2c.c"
  14              	@ GNU C (GNU Tools for ARM Embedded Processors / bleeding-edge-toolchain-141220) version 4.9.3 2014
  15              	@	compiled by GNU C version 4.9.2, GMP version 6.0.0, MPFR version 3.1.2, MPC version 1.0.2
  16              	@ GGC heuristics: --param ggc-min-expand=100 --param ggc-min-heapsize=131072
  17              	@ options passed:  -I . -I C:\DEV\arm\lib\cmsis -I C:\DEV\arm\lib\stm32f4xx
  18              	@ -I include -imultilib armv7e-m/fpu
  19              	@ -iprefix c:\dev\arm\gcc-arm-none-eabi-4_9-141220\bin\../lib/gcc/arm-none-eabi/4.9.3/
  20              	@ -isysroot c:\dev\arm\gcc-arm-none-eabi-4_9-141220\bin\../arm-none-eabi
  21              	@ -MD bin/i2c.d -MF bin/i2c.d -MP -MQ bin/i2c.o -D__USES_INITFINI__
  22              	@ -D STM32F4XX -D ARM_MATH_CM4 -D __FPU_PRESENT src/i2c.c -mcpu=cortex-m4
  23              	@ -mthumb -mfloat-abi=hard -mfpu=fpv4-sp-d16 -auxbase-strip bin/i2c.o -g
  24              	@ -ggdb3 -O0 -Wall -Wstrict-prototypes -Wextra -std=c99 -ffast-math
  25              	@ -ffunction-sections -fdata-sections -fverbose-asm
  26              	@ options enabled:  -faggressive-loop-optimizations -fassociative-math
  27              	@ -fauto-inc-dec -fcommon -fcx-limited-range -fdata-sections
  28              	@ -fdelete-null-pointer-checks -fdwarf2-cfi-asm -fearly-inlining
  29              	@ -feliminate-unused-debug-types -ffinite-math-only -ffunction-cse
  30              	@ -ffunction-sections -fgcse-lm -fgnu-runtime -fgnu-unique -fident
  31              	@ -finline-atomics -fira-hoist-pressure -fira-share-save-slots
  32              	@ -fira-share-spill-slots -fivopts -fkeep-static-consts
  33              	@ -fleading-underscore -fmerge-debug-strings -fpeephole
  34              	@ -fprefetch-loop-arrays -freciprocal-math -freg-struct-return
  35              	@ -fsched-critical-path-heuristic -fsched-dep-count-heuristic
  36              	@ -fsched-group-heuristic -fsched-interblock -fsched-last-insn-heuristic
  37              	@ -fsched-rank-heuristic -fsched-spec -fsched-spec-insn-heuristic
  38              	@ -fsched-stalled-insns-dep -fshow-column -fsplit-ivs-in-unroller
  39              	@ -fstrict-volatile-bitfields -fsync-libcalls -ftree-coalesce-vars
  40              	@ -ftree-cselim -ftree-forwprop -ftree-loop-if-convert -ftree-loop-im
  41              	@ -ftree-loop-ivcanon -ftree-loop-optimize -ftree-parallelize-loops=
  42              	@ -ftree-phiprop -ftree-reassoc -ftree-scev-cprop -funit-at-a-time
  43              	@ -funsafe-math-optimizations -fverbose-asm -fzero-initialized-in-bss
  44              	@ -mlittle-endian -mlra -mpic-data-is-text-relative -msched-prolog -mthumb
  45              	@ -munaligned-access -mvectorize-with-neon-quad
  46              	
  47              		.text
  48              	.Ltext0:
  49              		.cfi_sections	.debug_frame
  50              		.section	.text.I2C_Init,"ax",%progbits
  51              		.align	2
  52              		.global	I2C_Init
  53              		.thumb
  54              		.thumb_func
  55              		.type	I2C_Init, %function
  56              	I2C_Init:
  57              	.LFB110:
ARM GAS  C:\Users\Daro\AppData\Local\Temp\ccSk3f6B.s 			page 2


  58              		.file 1 "src/i2c.c"
   1:src/i2c.c     **** #include <stm32f4xx.h>
   2:src/i2c.c     **** #include "include/gpio.h"
   3:src/i2c.c     **** 
   4:src/i2c.c     **** void I2C_Init(void)
   5:src/i2c.c     **** {
  59              		.loc 1 5 0
  60              		.cfi_startproc
  61              		@ args = 0, pretend = 0, frame = 0
  62              		@ frame_needed = 1, uses_anonymous_args = 0
  63 0000 80B5     		push	{r7, lr}	@
  64              		.cfi_def_cfa_offset 8
  65              		.cfi_offset 7, -8
  66              		.cfi_offset 14, -4
  67 0002 00AF     		add	r7, sp, #0	@,,
  68              		.cfi_def_cfa_register 7
   6:src/i2c.c     **** 	GPIO_ConfigPin(GPIOB, 10, GPIO_AF4_OD_100MHz);	// scl
  69              		.loc 1 6 0
  70 0004 1A48     		ldr	r0, .L2	@,
  71 0006 0A21     		movs	r1, #10	@,
  72 0008 1A4A     		ldr	r2, .L2+4	@,
  73 000a FFF7FEFF 		bl	GPIO_ConfigPin	@
   7:src/i2c.c     **** 	GPIO_ConfigPin(GPIOB, 11, GPIO_AF4_OD_100MHz);	// sda
  74              		.loc 1 7 0
  75 000e 1848     		ldr	r0, .L2	@,
  76 0010 0B21     		movs	r1, #11	@,
  77 0012 184A     		ldr	r2, .L2+4	@,
  78 0014 FFF7FEFF 		bl	GPIO_ConfigPin	@
   8:src/i2c.c     **** 
   9:src/i2c.c     **** 	RCC->APB1ENR |= RCC_APB1ENR_I2C2EN;
  79              		.loc 1 9 0
  80 0018 174A     		ldr	r2, .L2+8	@ D.5395,
  81 001a 174B     		ldr	r3, .L2+8	@ D.5395,
  82 001c 1B6C     		ldr	r3, [r3, #64]	@ D.5396, _2->APB1ENR
  83 001e 43F48003 		orr	r3, r3, #4194304	@ D.5396, D.5396,
  84 0022 1364     		str	r3, [r2, #64]	@ D.5396, _1->APB1ENR
  10:src/i2c.c     **** 	I2C2->CR1 |= I2C_CR1_SWRST;
  85              		.loc 1 10 0
  86 0024 154A     		ldr	r2, .L2+12	@ D.5397,
  87 0026 154B     		ldr	r3, .L2+12	@ D.5397,
  88 0028 1B88     		ldrh	r3, [r3]	@ movhi	@ tmp129, _6->CR1
  89 002a 9BB2     		uxth	r3, r3	@ D.5398, tmp129
  90 002c 6FEA4343 		mvn	r3, r3, lsl #17	@ tmp130, D.5398,
  91 0030 6FEA5343 		mvn	r3, r3, lsr #17	@ tmp130, tmp130,
  92 0034 9BB2     		uxth	r3, r3	@ D.5398, tmp130
  93 0036 1380     		strh	r3, [r2]	@ movhi	@ tmp131, _5->CR1
  11:src/i2c.c     **** 	I2C2->CR1 = 0;
  94              		.loc 1 11 0
  95 0038 104B     		ldr	r3, .L2+12	@ D.5397,
  96 003a 0022     		movs	r2, #0	@ tmp133,
  97 003c 1A80     		strh	r2, [r3]	@ movhi	@ tmp132, _9->CR1
  12:src/i2c.c     **** 	I2C2->CR2 |= 42;
  98              		.loc 1 12 0
  99 003e 0F4A     		ldr	r2, .L2+12	@ D.5397,
 100 0040 0E4B     		ldr	r3, .L2+12	@ D.5397,
 101 0042 9B88     		ldrh	r3, [r3, #4]	@ movhi	@ tmp135, _11->CR2
 102 0044 9BB2     		uxth	r3, r3	@ D.5398, tmp135
ARM GAS  C:\Users\Daro\AppData\Local\Temp\ccSk3f6B.s 			page 3


 103 0046 43F02A03 		orr	r3, r3, #42	@ tmp136, D.5398,
 104 004a 9BB2     		uxth	r3, r3	@ D.5398, tmp136
 105 004c 9380     		strh	r3, [r2, #4]	@ movhi	@ tmp137, _10->CR2
  13:src/i2c.c     **** 	I2C2->CCR = 210;
 106              		.loc 1 13 0
 107 004e 0B4B     		ldr	r3, .L2+12	@ D.5397,
 108 0050 D222     		movs	r2, #210	@ tmp139,
 109 0052 9A83     		strh	r2, [r3, #28]	@ movhi	@ tmp138, _14->CCR
  14:src/i2c.c     **** 	I2C2->TRISE = 43;
 110              		.loc 1 14 0
 111 0054 094B     		ldr	r3, .L2+12	@ D.5397,
 112 0056 2B22     		movs	r2, #43	@ tmp141,
 113 0058 1A84     		strh	r2, [r3, #32]	@ movhi	@ tmp140, _15->TRISE
  15:src/i2c.c     **** 	I2C2->CR1 |= I2C_CR1_ACK | I2C_CR1_PE;
 114              		.loc 1 15 0
 115 005a 084A     		ldr	r2, .L2+12	@ D.5397,
 116 005c 074B     		ldr	r3, .L2+12	@ D.5397,
 117 005e 1B88     		ldrh	r3, [r3]	@ movhi	@ tmp142, _17->CR1
 118 0060 9BB2     		uxth	r3, r3	@ D.5398, tmp142
 119 0062 43F48063 		orr	r3, r3, #1024	@ tmp143, D.5398,
 120 0066 43F00103 		orr	r3, r3, #1	@ tmp143, tmp143,
 121 006a 9BB2     		uxth	r3, r3	@ D.5398, tmp143
 122 006c 1380     		strh	r3, [r2]	@ movhi	@ tmp144, _16->CR1
  16:src/i2c.c     **** }
 123              		.loc 1 16 0
 124 006e 80BD     		pop	{r7, pc}	@
 125              	.L3:
 126              		.align	2
 127              	.L2:
 128 0070 00040240 		.word	1073873920
 129 0074 12030400 		.word	262930
 130 0078 00380240 		.word	1073887232
 131 007c 00580040 		.word	1073764352
 132              		.cfi_endproc
 133              	.LFE110:
 134              		.size	I2C_Init, .-I2C_Init
 135              		.section	.text.I2C_Write,"ax",%progbits
 136              		.align	2
 137              		.global	I2C_Write
 138              		.thumb
 139              		.thumb_func
 140              		.type	I2C_Write, %function
 141              	I2C_Write:
 142              	.LFB111:
  17:src/i2c.c     **** 
  18:src/i2c.c     **** void I2C_Write(uint8_t address, uint8_t * data, uint8_t length)
  19:src/i2c.c     **** {
 143              		.loc 1 19 0
 144              		.cfi_startproc
 145              		@ args = 0, pretend = 0, frame = 16
 146              		@ frame_needed = 1, uses_anonymous_args = 0
 147              		@ link register save eliminated.
 148 0000 80B4     		push	{r7}	@
 149              		.cfi_def_cfa_offset 4
 150              		.cfi_offset 7, -4
 151 0002 85B0     		sub	sp, sp, #20	@,,
 152              		.cfi_def_cfa_offset 24
ARM GAS  C:\Users\Daro\AppData\Local\Temp\ccSk3f6B.s 			page 4


 153 0004 00AF     		add	r7, sp, #0	@,,
 154              		.cfi_def_cfa_register 7
 155 0006 0346     		mov	r3, r0	@ tmp148, address
 156 0008 3960     		str	r1, [r7]	@ data, data
 157 000a FB71     		strb	r3, [r7, #7]	@ tmp149, address
 158 000c 1346     		mov	r3, r2	@ tmp151, tmp150
 159 000e BB71     		strb	r3, [r7, #6]	@ tmp151, length
  20:src/i2c.c     **** 	uint32_t dummy;
  21:src/i2c.c     **** 
  22:src/i2c.c     **** 	I2C2->CR1 |= I2C_CR1_START;
 160              		.loc 1 22 0
 161 0010 294A     		ldr	r2, .L12	@ D.5399,
 162 0012 294B     		ldr	r3, .L12	@ D.5399,
 163 0014 1B88     		ldrh	r3, [r3]	@ movhi	@ tmp152, _4->CR1
 164 0016 9BB2     		uxth	r3, r3	@ D.5400, tmp152
 165 0018 43F48073 		orr	r3, r3, #256	@ tmp153, D.5400,
 166 001c 9BB2     		uxth	r3, r3	@ D.5400, tmp153
 167 001e 1380     		strh	r3, [r2]	@ movhi	@ tmp154, _3->CR1
  23:src/i2c.c     **** 	while (!(I2C2->SR1 & I2C_SR1_SB));
 168              		.loc 1 23 0
 169 0020 00BF     		nop
 170              	.L5:
 171              		.loc 1 23 0 is_stmt 0 discriminator 1
 172 0022 254B     		ldr	r3, .L12	@ D.5399,
 173 0024 9B8A     		ldrh	r3, [r3, #20]	@ movhi	@ tmp156, _7->SR1
 174 0026 9BB2     		uxth	r3, r3	@ D.5400, tmp156
 175 0028 03F00103 		and	r3, r3, #1	@ D.5401, D.5401,
 176 002c 002B     		cmp	r3, #0	@ D.5401,
 177 002e F8D0     		beq	.L5	@,
  24:src/i2c.c     **** 
  25:src/i2c.c     **** 	I2C2->DR = address << 1;
 178              		.loc 1 25 0 is_stmt 1
 179 0030 214A     		ldr	r2, .L12	@ D.5399,
 180 0032 FB79     		ldrb	r3, [r7, #7]	@ zero_extendqisi2	@ tmp158, address
 181 0034 9BB2     		uxth	r3, r3	@ D.5400, tmp157
 182 0036 5B00     		lsls	r3, r3, #1	@ tmp159, D.5400,
 183 0038 9BB2     		uxth	r3, r3	@ D.5400, tmp159
 184 003a 1382     		strh	r3, [r2, #16]	@ movhi	@ tmp160, _11->DR
  26:src/i2c.c     **** 	while (!(I2C2->SR1 & I2C_SR1_ADDR));
 185              		.loc 1 26 0
 186 003c 00BF     		nop
 187              	.L6:
 188              		.loc 1 26 0 is_stmt 0 discriminator 1
 189 003e 1E4B     		ldr	r3, .L12	@ D.5399,
 190 0040 9B8A     		ldrh	r3, [r3, #20]	@ movhi	@ tmp162, _15->SR1
 191 0042 9BB2     		uxth	r3, r3	@ D.5400, tmp162
 192 0044 03F00203 		and	r3, r3, #2	@ D.5401, D.5401,
 193 0048 002B     		cmp	r3, #0	@ D.5401,
 194 004a F8D0     		beq	.L6	@,
  27:src/i2c.c     **** 
  28:src/i2c.c     **** 	dummy = I2C2->SR2;
 195              		.loc 1 28 0 is_stmt 1
 196 004c 1A4B     		ldr	r3, .L12	@ D.5399,
 197 004e 1B8B     		ldrh	r3, [r3, #24]	@ movhi	@ tmp164, _19->SR2
 198 0050 9BB2     		uxth	r3, r3	@ D.5400, tmp164
 199 0052 FB60     		str	r3, [r7, #12]	@ D.5400, dummy
  29:src/i2c.c     **** 
ARM GAS  C:\Users\Daro\AppData\Local\Temp\ccSk3f6B.s 			page 5


  30:src/i2c.c     **** 	while (length--)
 200              		.loc 1 30 0
 201 0054 1EE0     		b	.L7	@
 202              	.L11:
  31:src/i2c.c     **** 	{
  32:src/i2c.c     **** 		while (!(I2C2->SR1 & I2C_SR1_TXE));
 203              		.loc 1 32 0
 204 0056 00BF     		nop
 205              	.L8:
 206              		.loc 1 32 0 is_stmt 0 discriminator 1
 207 0058 174B     		ldr	r3, .L12	@ D.5399,
 208 005a 9B8A     		ldrh	r3, [r3, #20]	@ movhi	@ tmp166, _26->SR1
 209 005c 9BB2     		uxth	r3, r3	@ D.5400, tmp166
 210 005e 03F08003 		and	r3, r3, #128	@ D.5401, D.5401,
 211 0062 002B     		cmp	r3, #0	@ D.5401,
 212 0064 F8D0     		beq	.L8	@,
  33:src/i2c.c     **** 		I2C2->DR = *(data++);
 213              		.loc 1 33 0 is_stmt 1
 214 0066 1449     		ldr	r1, .L12	@ D.5399,
 215 0068 3B68     		ldr	r3, [r7]	@ D.5403, data
 216 006a 5A1C     		adds	r2, r3, #1	@ tmp167, D.5403,
 217 006c 3A60     		str	r2, [r7]	@ tmp167, data
 218 006e 1B78     		ldrb	r3, [r3]	@ zero_extendqisi2	@ D.5402, *_31
 219 0070 9BB2     		uxth	r3, r3	@ D.5400, D.5402
 220 0072 0B82     		strh	r3, [r1, #16]	@ movhi	@ tmp168, _30->DR
  34:src/i2c.c     **** 
  35:src/i2c.c     **** 		while (!(I2C2->SR1 & I2C_SR1_TXE));
 221              		.loc 1 35 0
 222 0074 00BF     		nop
 223              	.L9:
 224              		.loc 1 35 0 is_stmt 0 discriminator 1
 225 0076 104B     		ldr	r3, .L12	@ D.5399,
 226 0078 9B8A     		ldrh	r3, [r3, #20]	@ movhi	@ tmp170, _35->SR1
 227 007a 9BB2     		uxth	r3, r3	@ D.5400, tmp170
 228 007c 03F08003 		and	r3, r3, #128	@ D.5401, D.5401,
 229 0080 002B     		cmp	r3, #0	@ D.5401,
 230 0082 F8D0     		beq	.L9	@,
  36:src/i2c.c     **** 		while (I2C2->SR1 & I2C_SR1_BTF);
 231              		.loc 1 36 0 is_stmt 1
 232 0084 00BF     		nop
 233              	.L10:
 234              		.loc 1 36 0 is_stmt 0 discriminator 1
 235 0086 0C4B     		ldr	r3, .L12	@ D.5399,
 236 0088 9B8A     		ldrh	r3, [r3, #20]	@ movhi	@ tmp172, _39->SR1
 237 008a 9BB2     		uxth	r3, r3	@ D.5400, tmp172
 238 008c 03F00403 		and	r3, r3, #4	@ D.5401, D.5401,
 239 0090 002B     		cmp	r3, #0	@ D.5401,
 240 0092 F8D1     		bne	.L10	@,
 241              	.L7:
  30:src/i2c.c     **** 	{
 242              		.loc 1 30 0 is_stmt 1
 243 0094 BB79     		ldrb	r3, [r7, #6]	@ zero_extendqisi2	@ D.5402, length
 244 0096 5A1E     		subs	r2, r3, #1	@ tmp173, D.5402,
 245 0098 BA71     		strb	r2, [r7, #6]	@ tmp174, length
 246 009a 002B     		cmp	r3, #0	@ D.5402,
 247 009c DBD1     		bne	.L11	@,
  37:src/i2c.c     **** 	}
ARM GAS  C:\Users\Daro\AppData\Local\Temp\ccSk3f6B.s 			page 6


  38:src/i2c.c     **** 
  39:src/i2c.c     **** 	I2C2->CR1 |= I2C_CR1_STOP;
 248              		.loc 1 39 0
 249 009e 064A     		ldr	r2, .L12	@ D.5399,
 250 00a0 054B     		ldr	r3, .L12	@ D.5399,
 251 00a2 1B88     		ldrh	r3, [r3]	@ movhi	@ tmp175, _44->CR1
 252 00a4 9BB2     		uxth	r3, r3	@ D.5400, tmp175
 253 00a6 43F40073 		orr	r3, r3, #512	@ tmp176, D.5400,
 254 00aa 9BB2     		uxth	r3, r3	@ D.5400, tmp176
 255 00ac 1380     		strh	r3, [r2]	@ movhi	@ tmp177, _43->CR1
  40:src/i2c.c     **** }
 256              		.loc 1 40 0
 257 00ae 1437     		adds	r7, r7, #20	@,,
 258              		.cfi_def_cfa_offset 4
 259 00b0 BD46     		mov	sp, r7	@,
 260              		.cfi_def_cfa_register 13
 261              		@ sp needed	@
 262 00b2 5DF8047B 		ldr	r7, [sp], #4	@,
 263              		.cfi_restore 7
 264              		.cfi_def_cfa_offset 0
 265 00b6 7047     		bx	lr	@
 266              	.L13:
 267              		.align	2
 268              	.L12:
 269 00b8 00580040 		.word	1073764352
 270              		.cfi_endproc
 271              	.LFE111:
 272              		.size	I2C_Write, .-I2C_Write
 273              		.section	.text.I2C_Read,"ax",%progbits
 274              		.align	2
 275              		.global	I2C_Read
 276              		.thumb
 277              		.thumb_func
 278              		.type	I2C_Read, %function
 279              	I2C_Read:
 280              	.LFB112:
  41:src/i2c.c     **** 
  42:src/i2c.c     **** void I2C_Read(uint8_t address, uint8_t * data, uint8_t length)
  43:src/i2c.c     **** {
 281              		.loc 1 43 0
 282              		.cfi_startproc
 283              		@ args = 0, pretend = 0, frame = 16
 284              		@ frame_needed = 1, uses_anonymous_args = 0
 285              		@ link register save eliminated.
 286 0000 80B4     		push	{r7}	@
 287              		.cfi_def_cfa_offset 4
 288              		.cfi_offset 7, -4
 289 0002 85B0     		sub	sp, sp, #20	@,,
 290              		.cfi_def_cfa_offset 24
 291 0004 00AF     		add	r7, sp, #0	@,,
 292              		.cfi_def_cfa_register 7
 293 0006 0346     		mov	r3, r0	@ tmp147, address
 294 0008 3960     		str	r1, [r7]	@ data, data
 295 000a FB71     		strb	r3, [r7, #7]	@ tmp148, address
 296 000c 1346     		mov	r3, r2	@ tmp150, tmp149
 297 000e BB71     		strb	r3, [r7, #6]	@ tmp150, length
  44:src/i2c.c     **** 	uint32_t dummy;
ARM GAS  C:\Users\Daro\AppData\Local\Temp\ccSk3f6B.s 			page 7


  45:src/i2c.c     **** 
  46:src/i2c.c     **** 	I2C2->CR1 |= I2C_CR1_START;
 298              		.loc 1 46 0
 299 0010 294A     		ldr	r2, .L21	@ D.5404,
 300 0012 294B     		ldr	r3, .L21	@ D.5404,
 301 0014 1B88     		ldrh	r3, [r3]	@ movhi	@ tmp151, _4->CR1
 302 0016 9BB2     		uxth	r3, r3	@ D.5405, tmp151
 303 0018 43F48073 		orr	r3, r3, #256	@ tmp152, D.5405,
 304 001c 9BB2     		uxth	r3, r3	@ D.5405, tmp152
 305 001e 1380     		strh	r3, [r2]	@ movhi	@ tmp153, _3->CR1
  47:src/i2c.c     **** 	while (!(I2C2->SR1 & I2C_SR1_SB));
 306              		.loc 1 47 0
 307 0020 00BF     		nop
 308              	.L15:
 309              		.loc 1 47 0 is_stmt 0 discriminator 1
 310 0022 254B     		ldr	r3, .L21	@ D.5404,
 311 0024 9B8A     		ldrh	r3, [r3, #20]	@ movhi	@ tmp155, _7->SR1
 312 0026 9BB2     		uxth	r3, r3	@ D.5405, tmp155
 313 0028 03F00103 		and	r3, r3, #1	@ D.5406, D.5406,
 314 002c 002B     		cmp	r3, #0	@ D.5406,
 315 002e F8D0     		beq	.L15	@,
  48:src/i2c.c     **** 
  49:src/i2c.c     **** 	I2C2->DR = (address << 1) | 0x01;
 316              		.loc 1 49 0 is_stmt 1
 317 0030 214A     		ldr	r2, .L21	@ D.5404,
 318 0032 FB79     		ldrb	r3, [r7, #7]	@ zero_extendqisi2	@ D.5406, address
 319 0034 5B00     		lsls	r3, r3, #1	@ D.5406, D.5406,
 320 0036 9BB2     		uxth	r3, r3	@ D.5407, D.5406
 321 0038 43F00103 		orr	r3, r3, #1	@ tmp157, tmp156,
 322 003c 9BB2     		uxth	r3, r3	@ D.5407, tmp157
 323 003e 9BB2     		uxth	r3, r3	@ D.5405, D.5407
 324 0040 1382     		strh	r3, [r2, #16]	@ movhi	@ tmp158, _11->DR
  50:src/i2c.c     **** 	while (!(I2C2->SR1 & I2C_SR1_ADDR));
 325              		.loc 1 50 0
 326 0042 00BF     		nop
 327              	.L16:
 328              		.loc 1 50 0 is_stmt 0 discriminator 1
 329 0044 1C4B     		ldr	r3, .L21	@ D.5404,
 330 0046 9B8A     		ldrh	r3, [r3, #20]	@ movhi	@ tmp160, _18->SR1
 331 0048 9BB2     		uxth	r3, r3	@ D.5405, tmp160
 332 004a 03F00203 		and	r3, r3, #2	@ D.5406, D.5406,
 333 004e 002B     		cmp	r3, #0	@ D.5406,
 334 0050 F8D0     		beq	.L16	@,
  51:src/i2c.c     **** 
  52:src/i2c.c     **** 	dummy = I2C2->SR2;
 335              		.loc 1 52 0 is_stmt 1
 336 0052 194B     		ldr	r3, .L21	@ D.5404,
 337 0054 1B8B     		ldrh	r3, [r3, #24]	@ movhi	@ tmp162, _22->SR2
 338 0056 9BB2     		uxth	r3, r3	@ D.5405, tmp162
 339 0058 FB60     		str	r3, [r7, #12]	@ D.5405, dummy
  53:src/i2c.c     **** 
  54:src/i2c.c     **** 	while (length--)
 340              		.loc 1 54 0
 341 005a 1AE0     		b	.L17	@
 342              	.L20:
  55:src/i2c.c     **** 	{
  56:src/i2c.c     **** 		if (length == 0)
ARM GAS  C:\Users\Daro\AppData\Local\Temp\ccSk3f6B.s 			page 8


 343              		.loc 1 56 0
 344 005c BB79     		ldrb	r3, [r7, #6]	@ zero_extendqisi2	@ tmp163, length
 345 005e 002B     		cmp	r3, #0	@ tmp163,
 346 0060 07D1     		bne	.L18	@,
  57:src/i2c.c     **** 			I2C2->CR1 &= ~I2C_CR1_ACK;
 347              		.loc 1 57 0
 348 0062 154A     		ldr	r2, .L21	@ D.5404,
 349 0064 144B     		ldr	r3, .L21	@ D.5404,
 350 0066 1B88     		ldrh	r3, [r3]	@ movhi	@ tmp164, _30->CR1
 351 0068 9BB2     		uxth	r3, r3	@ D.5405, tmp164
 352 006a 23F48063 		bic	r3, r3, #1024	@ tmp165, D.5405,
 353 006e 9BB2     		uxth	r3, r3	@ D.5405, tmp165
 354 0070 1380     		strh	r3, [r2]	@ movhi	@ tmp166, _29->CR1
 355              	.L18:
  58:src/i2c.c     **** 
  59:src/i2c.c     **** 	   while(!(I2C2->SR1 & I2C_SR1_RXNE));
 356              		.loc 1 59 0
 357 0072 00BF     		nop
 358              	.L19:
 359              		.loc 1 59 0 is_stmt 0 discriminator 1
 360 0074 104B     		ldr	r3, .L21	@ D.5404,
 361 0076 9B8A     		ldrh	r3, [r3, #20]	@ movhi	@ tmp168, _33->SR1
 362 0078 9BB2     		uxth	r3, r3	@ D.5405, tmp168
 363 007a 03F04003 		and	r3, r3, #64	@ D.5406, D.5406,
 364 007e 002B     		cmp	r3, #0	@ D.5406,
 365 0080 F8D0     		beq	.L19	@,
  60:src/i2c.c     **** 	   *(data++) = I2C2->DR;
 366              		.loc 1 60 0 is_stmt 1
 367 0082 3B68     		ldr	r3, [r7]	@ D.5409, data
 368 0084 5A1C     		adds	r2, r3, #1	@ tmp169, D.5409,
 369 0086 3A60     		str	r2, [r7]	@ tmp169, data
 370 0088 0B4A     		ldr	r2, .L21	@ D.5404,
 371 008a 128A     		ldrh	r2, [r2, #16]	@ movhi	@ tmp171, _39->DR
 372 008c 92B2     		uxth	r2, r2	@ D.5405, tmp171
 373 008e D2B2     		uxtb	r2, r2	@ D.5408, D.5405
 374 0090 1A70     		strb	r2, [r3]	@ tmp172, *_37
 375              	.L17:
  54:src/i2c.c     **** 	{
 376              		.loc 1 54 0
 377 0092 BB79     		ldrb	r3, [r7, #6]	@ zero_extendqisi2	@ D.5408, length
 378 0094 5A1E     		subs	r2, r3, #1	@ tmp173, D.5408,
 379 0096 BA71     		strb	r2, [r7, #6]	@ tmp174, length
 380 0098 002B     		cmp	r3, #0	@ D.5408,
 381 009a DFD1     		bne	.L20	@,
  61:src/i2c.c     **** 	}
  62:src/i2c.c     **** 
  63:src/i2c.c     **** 	I2C2->CR1 |= I2C_CR1_ACK | I2C_CR1_STOP;
 382              		.loc 1 63 0
 383 009c 064A     		ldr	r2, .L21	@ D.5404,
 384 009e 064B     		ldr	r3, .L21	@ D.5404,
 385 00a0 1B88     		ldrh	r3, [r3]	@ movhi	@ tmp175, _43->CR1
 386 00a2 9BB2     		uxth	r3, r3	@ D.5405, tmp175
 387 00a4 43F4C063 		orr	r3, r3, #1536	@ tmp176, D.5405,
 388 00a8 9BB2     		uxth	r3, r3	@ D.5405, tmp176
 389 00aa 1380     		strh	r3, [r2]	@ movhi	@ tmp177, _42->CR1
  64:src/i2c.c     **** }
 390              		.loc 1 64 0
ARM GAS  C:\Users\Daro\AppData\Local\Temp\ccSk3f6B.s 			page 9


 391 00ac 1437     		adds	r7, r7, #20	@,,
 392              		.cfi_def_cfa_offset 4
 393 00ae BD46     		mov	sp, r7	@,
 394              		.cfi_def_cfa_register 13
 395              		@ sp needed	@
 396 00b0 5DF8047B 		ldr	r7, [sp], #4	@,
 397              		.cfi_restore 7
 398              		.cfi_def_cfa_offset 0
 399 00b4 7047     		bx	lr	@
 400              	.L22:
 401 00b6 00BF     		.align	2
 402              	.L21:
 403 00b8 00580040 		.word	1073764352
 404              		.cfi_endproc
 405              	.LFE112:
 406              		.size	I2C_Read, .-I2C_Read
 407              		.text
 408              	.Letext0:
 409              		.file 2 "c:\\dev\\arm\\gcc-arm-none-eabi-4_9-141220\\arm-none-eabi\\include\\machine\\_default_typ
 410              		.file 3 "c:\\dev\\arm\\gcc-arm-none-eabi-4_9-141220\\arm-none-eabi\\include\\stdint.h"
 411              		.file 4 "C:\\DEV\\arm\\lib\\stm32f4xx/stm32f4xx.h"
 412              		.file 5 "C:\\DEV\\arm\\lib\\cmsis/core_cm4.h"