ARM GAS  C:\Users\Daro\AppData\Local\Temp\ccScNKQa.s 			page 1


   1              		.syntax unified
   2              		.cpu cortex-m4
   3              		.eabi_attribute 27, 3	@ Tag_ABI_HardFP_use
   4              		.eabi_attribute 28, 1	@ Tag_ABI_VFP_args
   5              		.fpu fpv4-sp-d16
   6              		.eabi_attribute 23, 1	@ Tag_ABI_FP_number_model
   7              		.eabi_attribute 24, 1	@ Tag_ABI_align8_needed
   8              		.eabi_attribute 25, 1	@ Tag_ABI_align8_preserved
   9              		.eabi_attribute 26, 1	@ Tag_ABI_enum_size
  10              		.eabi_attribute 30, 6	@ Tag_ABI_optimization_goals
  11              		.eabi_attribute 34, 1	@ Tag_CPU_unaligned_access
  12              		.eabi_attribute 18, 4	@ Tag_ABI_PCS_wchar_t
  13              		.file	"main.c"
  14              	@ GNU C (GNU Tools for ARM Embedded Processors / bleeding-edge-toolchain-141220) version 4.9.3 2014
  15              	@	compiled by GNU C version 4.9.2, GMP version 6.0.0, MPFR version 3.1.2, MPC version 1.0.2
  16              	@ GGC heuristics: --param ggc-min-expand=100 --param ggc-min-heapsize=131072
  17              	@ options passed:  -I . -I C:\DEV\arm\lib\cmsis -I C:\DEV\arm\lib\stm32f4xx
  18              	@ -I include -imultilib armv7e-m/fpu
  19              	@ -iprefix c:\dev\arm\gcc-arm-none-eabi-4_9-141220\bin\../lib/gcc/arm-none-eabi/4.9.3/
  20              	@ -isysroot c:\dev\arm\gcc-arm-none-eabi-4_9-141220\bin\../arm-none-eabi
  21              	@ -MD bin/main.d -MF bin/main.d -MP -MQ bin/main.o -D__USES_INITFINI__
  22              	@ -D STM32F4XX -D ARM_MATH_CM4 -D __FPU_PRESENT src/main.c -mcpu=cortex-m4
  23              	@ -mthumb -mfloat-abi=hard -mfpu=fpv4-sp-d16 -auxbase-strip bin/main.o -g
  24              	@ -ggdb3 -O0 -Wall -Wstrict-prototypes -Wextra -std=c99 -ffast-math
  25              	@ -ffunction-sections -fdata-sections -fverbose-asm
  26              	@ options enabled:  -faggressive-loop-optimizations -fassociative-math
  27              	@ -fauto-inc-dec -fcommon -fcx-limited-range -fdata-sections
  28              	@ -fdelete-null-pointer-checks -fdwarf2-cfi-asm -fearly-inlining
  29              	@ -feliminate-unused-debug-types -ffinite-math-only -ffunction-cse
  30              	@ -ffunction-sections -fgcse-lm -fgnu-runtime -fgnu-unique -fident
  31              	@ -finline-atomics -fira-hoist-pressure -fira-share-save-slots
  32              	@ -fira-share-spill-slots -fivopts -fkeep-static-consts
  33              	@ -fleading-underscore -fmerge-debug-strings -fpeephole
  34              	@ -fprefetch-loop-arrays -freciprocal-math -freg-struct-return
  35              	@ -fsched-critical-path-heuristic -fsched-dep-count-heuristic
  36              	@ -fsched-group-heuristic -fsched-interblock -fsched-last-insn-heuristic
  37              	@ -fsched-rank-heuristic -fsched-spec -fsched-spec-insn-heuristic
  38              	@ -fsched-stalled-insns-dep -fshow-column -fsplit-ivs-in-unroller
  39              	@ -fstrict-volatile-bitfields -fsync-libcalls -ftree-coalesce-vars
  40              	@ -ftree-cselim -ftree-forwprop -ftree-loop-if-convert -ftree-loop-im
  41              	@ -ftree-loop-ivcanon -ftree-loop-optimize -ftree-parallelize-loops=
  42              	@ -ftree-phiprop -ftree-reassoc -ftree-scev-cprop -funit-at-a-time
  43              	@ -funsafe-math-optimizations -fverbose-asm -fzero-initialized-in-bss
  44              	@ -mlittle-endian -mlra -mpic-data-is-text-relative -msched-prolog -mthumb
  45              	@ -munaligned-access -mvectorize-with-neon-quad
  46              	
  47              		.text
  48              	.Ltext0:
  49              		.cfi_sections	.debug_frame
  50              		.section	.bss.delay_counter,"aw",%nobits
  51              		.align	2
  52              		.type	delay_counter, %object
  53              		.size	delay_counter, 4
  54              	delay_counter:
  55 0000 00000000 		.space	4
  56              		.section	.text.itoa,"ax",%progbits
  57              		.align	2
ARM GAS  C:\Users\Daro\AppData\Local\Temp\ccScNKQa.s 			page 2


  58              		.global	itoa
  59              		.thumb
  60              		.thumb_func
  61              		.type	itoa, %function
  62              	itoa:
  63              	.LFB110:
  64              		.file 1 "src/main.c"
   1:src/main.c    **** #include <stdint.h>
   2:src/main.c    **** #include <stm32f4xx.h>
   3:src/main.c    **** #include "include/config.h"
   4:src/main.c    **** #include "include/gpio.h"
   5:src/main.c    **** #include "include/serial.h"
   6:src/main.c    **** #include "include/delay.h"
   7:src/main.c    **** #include "include/i2c.h"
   8:src/main.c    **** #include "include/ms5611.h"
   9:src/main.c    **** #include "include/hmc5883l.h"
  10:src/main.c    **** 
  11:src/main.c    **** int itoa(int value, char *sp, int radix)
  12:src/main.c    **** {
  65              		.loc 1 12 0
  66              		.cfi_startproc
  67              		@ args = 0, pretend = 0, frame = 56
  68              		@ frame_needed = 1, uses_anonymous_args = 0
  69              		@ link register save eliminated.
  70 0000 80B4     		push	{r7}	@
  71              		.cfi_def_cfa_offset 4
  72              		.cfi_offset 7, -4
  73 0002 8FB0     		sub	sp, sp, #60	@,,
  74              		.cfi_def_cfa_offset 64
  75 0004 00AF     		add	r7, sp, #0	@,,
  76              		.cfi_def_cfa_register 7
  77 0006 F860     		str	r0, [r7, #12]	@ value, value
  78 0008 B960     		str	r1, [r7, #8]	@ sp, sp
  79 000a 7A60     		str	r2, [r7, #4]	@ radix, radix
  13:src/main.c    ****     char tmp[16];// be careful with the length of the buffer
  14:src/main.c    ****     char *tp = tmp;
  80              		.loc 1 14 0
  81 000c 07F11403 		add	r3, r7, #20	@ tmp128,,
  82 0010 7B63     		str	r3, [r7, #52]	@ tmp128, tp
  15:src/main.c    ****     int i;
  16:src/main.c    ****     unsigned v;
  17:src/main.c    **** 
  18:src/main.c    ****     int sign = (radix == 10 && value < 0);
  83              		.loc 1 18 0
  84 0012 7B68     		ldr	r3, [r7, #4]	@ tmp129, radix
  85 0014 0A2B     		cmp	r3, #10	@ tmp129,
  86 0016 04D1     		bne	.L2	@,
  87              		.loc 1 18 0 is_stmt 0 discriminator 1
  88 0018 FB68     		ldr	r3, [r7, #12]	@ tmp130, value
  89 001a 002B     		cmp	r3, #0	@ tmp130,
  90 001c 01DA     		bge	.L2	@,
  91              		.loc 1 18 0 discriminator 3
  92 001e 0123     		movs	r3, #1	@ D.5399,
  93 0020 00E0     		b	.L3	@
  94              	.L2:
  95              		.loc 1 18 0 discriminator 4
  96 0022 0023     		movs	r3, #0	@ D.5399,
ARM GAS  C:\Users\Daro\AppData\Local\Temp\ccScNKQa.s 			page 3


  97              	.L3:
  98              		.loc 1 18 0 discriminator 6
  99 0024 BB62     		str	r3, [r7, #40]	@ D.5399, sign
  19:src/main.c    ****     if (sign)
 100              		.loc 1 19 0 is_stmt 1 discriminator 6
 101 0026 BB6A     		ldr	r3, [r7, #40]	@ tmp131, sign
 102 0028 002B     		cmp	r3, #0	@ tmp131,
 103 002a 03D0     		beq	.L4	@,
  20:src/main.c    ****         v = -value;
 104              		.loc 1 20 0
 105 002c FB68     		ldr	r3, [r7, #12]	@ tmp132, value
 106 002e 5B42     		negs	r3, r3	@ D.5399, tmp132
 107 0030 3B63     		str	r3, [r7, #48]	@ D.5399, v
 108 0032 01E0     		b	.L5	@
 109              	.L4:
  21:src/main.c    ****     else
  22:src/main.c    ****         v = (unsigned)value;
 110              		.loc 1 22 0
 111 0034 FB68     		ldr	r3, [r7, #12]	@ tmp133, value
 112 0036 3B63     		str	r3, [r7, #48]	@ tmp133, v
 113              	.L5:
  23:src/main.c    **** 
  24:src/main.c    ****     while (v || tp == tmp)
 114              		.loc 1 24 0
 115 0038 20E0     		b	.L6	@
 116              	.L8:
  25:src/main.c    ****     {
  26:src/main.c    ****         i = v % radix;
 117              		.loc 1 26 0
 118 003a 7A68     		ldr	r2, [r7, #4]	@ D.5400, radix
 119 003c 3B6B     		ldr	r3, [r7, #48]	@ tmp134, v
 120 003e B3FBF2F1 		udiv	r1, r3, r2	@ tmp137, tmp134, D.5400
 121 0042 02FB01F2 		mul	r2, r2, r1	@ tmp138, D.5400, tmp137
 122 0046 9B1A     		subs	r3, r3, r2	@ D.5400, tmp134, tmp138
 123 0048 7B62     		str	r3, [r7, #36]	@ D.5400, i
  27:src/main.c    ****         v /= radix; // v/=radix uses less CPU clocks than v=v/radix does
 124              		.loc 1 27 0
 125 004a 7B68     		ldr	r3, [r7, #4]	@ D.5400, radix
 126 004c 3A6B     		ldr	r2, [r7, #48]	@ tmp140, v
 127 004e B2FBF3F3 		udiv	r3, r2, r3	@ tmp139, tmp140, D.5400
 128 0052 3B63     		str	r3, [r7, #48]	@ tmp139, v
  28:src/main.c    ****         if (i < 10)
 129              		.loc 1 28 0
 130 0054 7B6A     		ldr	r3, [r7, #36]	@ tmp141, i
 131 0056 092B     		cmp	r3, #9	@ tmp141,
 132 0058 08DC     		bgt	.L7	@,
  29:src/main.c    ****           *tp++ = i+'0';
 133              		.loc 1 29 0
 134 005a 7B6B     		ldr	r3, [r7, #52]	@ D.5401, tp
 135 005c 5A1C     		adds	r2, r3, #1	@ tmp142, D.5401,
 136 005e 7A63     		str	r2, [r7, #52]	@ tmp142, tp
 137 0060 7A6A     		ldr	r2, [r7, #36]	@ tmp143, i
 138 0062 D2B2     		uxtb	r2, r2	@ D.5402, tmp143
 139 0064 3032     		adds	r2, r2, #48	@ tmp144, D.5402,
 140 0066 D2B2     		uxtb	r2, r2	@ D.5402, tmp144
 141 0068 1A70     		strb	r2, [r3]	@ tmp145, *_23
 142 006a 07E0     		b	.L6	@
ARM GAS  C:\Users\Daro\AppData\Local\Temp\ccScNKQa.s 			page 4


 143              	.L7:
  30:src/main.c    ****         else
  31:src/main.c    ****           *tp++ = i + 'a' - 10;
 144              		.loc 1 31 0
 145 006c 7B6B     		ldr	r3, [r7, #52]	@ D.5401, tp
 146 006e 5A1C     		adds	r2, r3, #1	@ tmp146, D.5401,
 147 0070 7A63     		str	r2, [r7, #52]	@ tmp146, tp
 148 0072 7A6A     		ldr	r2, [r7, #36]	@ tmp147, i
 149 0074 D2B2     		uxtb	r2, r2	@ D.5402, tmp147
 150 0076 5732     		adds	r2, r2, #87	@ tmp148, D.5402,
 151 0078 D2B2     		uxtb	r2, r2	@ D.5402, tmp148
 152 007a 1A70     		strb	r2, [r3]	@ tmp149, *_27
 153              	.L6:
  24:src/main.c    ****     {
 154              		.loc 1 24 0
 155 007c 3B6B     		ldr	r3, [r7, #48]	@ tmp150, v
 156 007e 002B     		cmp	r3, #0	@ tmp150,
 157 0080 DBD1     		bne	.L8	@,
  24:src/main.c    ****     {
 158              		.loc 1 24 0 is_stmt 0 discriminator 1
 159 0082 07F11403 		add	r3, r7, #20	@ tmp151,,
 160 0086 7A6B     		ldr	r2, [r7, #52]	@ tmp152, tp
 161 0088 9A42     		cmp	r2, r3	@ tmp152, tmp151
 162 008a D6D0     		beq	.L8	@,
  32:src/main.c    ****     }
  33:src/main.c    **** 
  34:src/main.c    ****     int len = tp - tmp;
 163              		.loc 1 34 0 is_stmt 1
 164 008c 7A6B     		ldr	r2, [r7, #52]	@ D.5399, tp
 165 008e 07F11403 		add	r3, r7, #20	@ D.5399,,
 166 0092 D31A     		subs	r3, r2, r3	@ tmp153, D.5399, D.5399
 167 0094 FB62     		str	r3, [r7, #44]	@ tmp153, len
  35:src/main.c    **** 
  36:src/main.c    ****     if (sign)
 168              		.loc 1 36 0
 169 0096 BB6A     		ldr	r3, [r7, #40]	@ tmp154, sign
 170 0098 002B     		cmp	r3, #0	@ tmp154,
 171 009a 07D0     		beq	.L9	@,
  37:src/main.c    ****     {
  38:src/main.c    ****         *sp++ = '-';
 172              		.loc 1 38 0
 173 009c BB68     		ldr	r3, [r7, #8]	@ D.5401, sp
 174 009e 5A1C     		adds	r2, r3, #1	@ tmp155, D.5401,
 175 00a0 BA60     		str	r2, [r7, #8]	@ tmp155, sp
 176 00a2 2D22     		movs	r2, #45	@ tmp156,
 177 00a4 1A70     		strb	r2, [r3]	@ tmp157, *_35
  39:src/main.c    ****         len++;
 178              		.loc 1 39 0
 179 00a6 FB6A     		ldr	r3, [r7, #44]	@ tmp159, len
 180 00a8 0133     		adds	r3, r3, #1	@ tmp158, tmp159,
 181 00aa FB62     		str	r3, [r7, #44]	@ tmp158, len
 182              	.L9:
  40:src/main.c    ****     }
  41:src/main.c    **** 
  42:src/main.c    ****     while (tp > tmp)
 183              		.loc 1 42 0
 184 00ac 08E0     		b	.L10	@
ARM GAS  C:\Users\Daro\AppData\Local\Temp\ccScNKQa.s 			page 5


 185              	.L11:
  43:src/main.c    ****         *sp++ = *--tp;
 186              		.loc 1 43 0
 187 00ae BB68     		ldr	r3, [r7, #8]	@ D.5401, sp
 188 00b0 5A1C     		adds	r2, r3, #1	@ tmp160, D.5401,
 189 00b2 BA60     		str	r2, [r7, #8]	@ tmp160, sp
 190 00b4 7A6B     		ldr	r2, [r7, #52]	@ tmp162, tp
 191 00b6 013A     		subs	r2, r2, #1	@ tmp161, tmp162,
 192 00b8 7A63     		str	r2, [r7, #52]	@ tmp161, tp
 193 00ba 7A6B     		ldr	r2, [r7, #52]	@ tmp163, tp
 194 00bc 1278     		ldrb	r2, [r2]	@ zero_extendqisi2	@ D.5402, *tp_40
 195 00be 1A70     		strb	r2, [r3]	@ tmp164, *_38
 196              	.L10:
  42:src/main.c    ****         *sp++ = *--tp;
 197              		.loc 1 42 0
 198 00c0 07F11403 		add	r3, r7, #20	@ tmp165,,
 199 00c4 7A6B     		ldr	r2, [r7, #52]	@ tmp166, tp
 200 00c6 9A42     		cmp	r2, r3	@ tmp166, tmp165
 201 00c8 F1D8     		bhi	.L11	@,
  44:src/main.c    **** 
  45:src/main.c    ****     return len;
 202              		.loc 1 45 0
 203 00ca FB6A     		ldr	r3, [r7, #44]	@ D.5399, len
  46:src/main.c    **** }
 204              		.loc 1 46 0
 205 00cc 1846     		mov	r0, r3	@, <retval>
 206 00ce 3C37     		adds	r7, r7, #60	@,,
 207              		.cfi_def_cfa_offset 4
 208 00d0 BD46     		mov	sp, r7	@,
 209              		.cfi_def_cfa_register 13
 210              		@ sp needed	@
 211 00d2 5DF8047B 		ldr	r7, [sp], #4	@,
 212              		.cfi_restore 7
 213              		.cfi_def_cfa_offset 0
 214 00d6 7047     		bx	lr	@
 215              		.cfi_endproc
 216              	.LFE110:
 217              		.size	itoa, .-itoa
 218              		.section	.rodata
 219              		.align	2
 220              	.LC0:
 221 0000 5B6F6B5D 		.ascii	"[ok] USART3\015\012\000"
 221      20555341 
 221      5254330D 
 221      0A00
 222 000e 0000     		.section	.text.main,"ax",%progbits
 223              		.align	2
 224              		.global	main
 225              		.thumb
 226              		.thumb_func
 227              		.type	main, %function
 228              	main:
 229              	.LFB111:
  47:src/main.c    **** 
  48:src/main.c    **** int main(void)
  49:src/main.c    **** {
 230              		.loc 1 49 0
ARM GAS  C:\Users\Daro\AppData\Local\Temp\ccScNKQa.s 			page 6


 231              		.cfi_startproc
 232              		@ args = 0, pretend = 0, frame = 0
 233              		@ frame_needed = 1, uses_anonymous_args = 0
 234 0000 80B5     		push	{r7, lr}	@
 235              		.cfi_def_cfa_offset 8
 236              		.cfi_offset 7, -8
 237              		.cfi_offset 14, -4
 238 0002 00AF     		add	r7, sp, #0	@,,
 239              		.cfi_def_cfa_register 7
  50:src/main.c    **** 	FPU_Enable();
 240              		.loc 1 50 0
 241 0004 FFF7FEFF 		bl	FPU_Enable	@
  51:src/main.c    **** 	PLL_Start(CRYSTAL, FREQUENCY);
 242              		.loc 1 51 0
 243 0008 0948     		ldr	r0, .L15	@,
 244 000a 0A49     		ldr	r1, .L15+4	@,
 245 000c FFF7FEFF 		bl	PLL_Start	@
  52:src/main.c    **** 	GPIO_InitAll();
 246              		.loc 1 52 0
 247 0010 FFF7FEFF 		bl	GPIO_InitAll	@
  53:src/main.c    **** 	Delay_Config(168000000UL);
 248              		.loc 1 53 0
 249 0014 0748     		ldr	r0, .L15+4	@,
 250 0016 FFF7FEFF 		bl	Delay_Config	@
  54:src/main.c    **** 	Serial_Init();
 251              		.loc 1 54 0
 252 001a FFF7FEFF 		bl	Serial_Init	@
  55:src/main.c    **** 	Serial_Puts("[ok] USART3\r\n");
 253              		.loc 1 55 0
 254 001e 0648     		ldr	r0, .L15+8	@,
 255 0020 FFF7FEFF 		bl	Serial_Puts	@
  56:src/main.c    **** 
  57:src/main.c    **** 	I2C_Init();
 256              		.loc 1 57 0
 257 0024 FFF7FEFF 		bl	I2C_Init	@
  58:src/main.c    **** 	HMC6883_init();
 258              		.loc 1 58 0
 259 0028 FFF7FEFF 		bl	HMC6883_init	@
 260              	.L14:
  59:src/main.c    **** 
  60:src/main.c    **** 	//MS5611_readCalibrationData();
  61:src/main.c    **** 
  62:src/main.c    **** 	while(1)
  63:src/main.c    **** 	{
  64:src/main.c    **** 
  65:src/main.c    **** 		/*int32_t t = MS5611_readTemperature() * 100;
  66:src/main.c    **** 		int32_t p = MS5611_readPressure();
  67:src/main.c    **** 
  68:src/main.c    **** 		char buf[10] = {0};
  69:src/main.c    **** 		itoa(t, buf, 10);
  70:src/main.c    **** 		char buf2[10] = {0};
  71:src/main.c    **** 		itoa(p, buf2, 10);
  72:src/main.c    **** 
  73:src/main.c    **** 		Serial_Puts("\rT=");
  74:src/main.c    **** 		Serial_Puts(buf);
  75:src/main.c    **** 		Serial_Puts("*C p=");
  76:src/main.c    **** 		Serial_Puts(buf2);
ARM GAS  C:\Users\Daro\AppData\Local\Temp\ccScNKQa.s 			page 7


  77:src/main.c    **** 		Serial_Puts("Pa");
  78:src/main.c    **** 
  79:src/main.c    **** 		delay_ms(100);*/
  80:src/main.c    **** 	}
 261              		.loc 1 80 0 discriminator 1
 262 002c FEE7     		b	.L14	@
 263              	.L16:
 264 002e 00BF     		.align	2
 265              	.L15:
 266 0030 00127A00 		.word	8000000
 267 0034 007A030A 		.word	168000000
 268 0038 00000000 		.word	.LC0
 269              		.cfi_endproc
 270              	.LFE111:
 271              		.size	main, .-main
 272              		.text
 273              	.Letext0:
 274              		.file 2 "c:\\dev\\arm\\gcc-arm-none-eabi-4_9-141220\\arm-none-eabi\\include\\machine\\_default_typ
 275              		.file 3 "c:\\dev\\arm\\gcc-arm-none-eabi-4_9-141220\\arm-none-eabi\\include\\stdint.h"
 276              		.file 4 "./include/delay.h"
 277              		.file 5 "C:\\DEV\\arm\\lib\\cmsis/core_cm4.h"