ARM GAS  C:\Users\Daro\AppData\Local\Temp\ccB3ePdz.s 			page 1


   1              		.syntax unified
   2              		.cpu cortex-m4
   3              		.eabi_attribute 27, 3	@ Tag_ABI_HardFP_use
   4              		.eabi_attribute 28, 1	@ Tag_ABI_VFP_args
   5              		.fpu fpv4-sp-d16
   6              		.eabi_attribute 23, 1	@ Tag_ABI_FP_number_model
   7              		.eabi_attribute 24, 1	@ Tag_ABI_align8_needed
   8              		.eabi_attribute 25, 1	@ Tag_ABI_align8_preserved
   9              		.eabi_attribute 26, 1	@ Tag_ABI_enum_size
  10              		.eabi_attribute 30, 6	@ Tag_ABI_optimization_goals
  11              		.eabi_attribute 34, 1	@ Tag_CPU_unaligned_access
  12              		.eabi_attribute 18, 4	@ Tag_ABI_PCS_wchar_t
  13              		.file	"ms5611.c"
  14              	@ GNU C (GNU Tools for ARM Embedded Processors / bleeding-edge-toolchain-141220) version 4.9.3 2014
  15              	@	compiled by GNU C version 4.9.2, GMP version 6.0.0, MPFR version 3.1.2, MPC version 1.0.2
  16              	@ GGC heuristics: --param ggc-min-expand=100 --param ggc-min-heapsize=131072
  17              	@ options passed:  -I . -I C:\DEV\arm\lib\cmsis -I C:\DEV\arm\lib\stm32f4xx
  18              	@ -I include -imultilib armv7e-m/fpu
  19              	@ -iprefix c:\dev\arm\gcc-arm-none-eabi-4_9-141220\bin\../lib/gcc/arm-none-eabi/4.9.3/
  20              	@ -isysroot c:\dev\arm\gcc-arm-none-eabi-4_9-141220\bin\../arm-none-eabi
  21              	@ -MD bin/ms5611.d -MF bin/ms5611.d -MP -MQ bin/ms5611.o
  22              	@ -D__USES_INITFINI__ -D STM32F4XX -D ARM_MATH_CM4 -D __FPU_PRESENT
  23              	@ src/ms5611.c -mcpu=cortex-m4 -mthumb -mfloat-abi=hard -mfpu=fpv4-sp-d16
  24              	@ -auxbase-strip bin/ms5611.o -g -ggdb3 -O0 -Wall -Wstrict-prototypes
  25              	@ -Wextra -std=c99 -ffast-math -ffunction-sections -fdata-sections
  26              	@ -fverbose-asm
  27              	@ options enabled:  -faggressive-loop-optimizations -fassociative-math
  28              	@ -fauto-inc-dec -fcommon -fcx-limited-range -fdata-sections
  29              	@ -fdelete-null-pointer-checks -fdwarf2-cfi-asm -fearly-inlining
  30              	@ -feliminate-unused-debug-types -ffinite-math-only -ffunction-cse
  31              	@ -ffunction-sections -fgcse-lm -fgnu-runtime -fgnu-unique -fident
  32              	@ -finline-atomics -fira-hoist-pressure -fira-share-save-slots
  33              	@ -fira-share-spill-slots -fivopts -fkeep-static-consts
  34              	@ -fleading-underscore -fmerge-debug-strings -fpeephole
  35              	@ -fprefetch-loop-arrays -freciprocal-math -freg-struct-return
  36              	@ -fsched-critical-path-heuristic -fsched-dep-count-heuristic
  37              	@ -fsched-group-heuristic -fsched-interblock -fsched-last-insn-heuristic
  38              	@ -fsched-rank-heuristic -fsched-spec -fsched-spec-insn-heuristic
  39              	@ -fsched-stalled-insns-dep -fshow-column -fsplit-ivs-in-unroller
  40              	@ -fstrict-volatile-bitfields -fsync-libcalls -ftree-coalesce-vars
  41              	@ -ftree-cselim -ftree-forwprop -ftree-loop-if-convert -ftree-loop-im
  42              	@ -ftree-loop-ivcanon -ftree-loop-optimize -ftree-parallelize-loops=
  43              	@ -ftree-phiprop -ftree-reassoc -ftree-scev-cprop -funit-at-a-time
  44              	@ -funsafe-math-optimizations -fverbose-asm -fzero-initialized-in-bss
  45              	@ -mlittle-endian -mlra -mpic-data-is-text-relative -msched-prolog -mthumb
  46              	@ -munaligned-access -mvectorize-with-neon-quad
  47              	
  48              		.text
  49              	.Ltext0:
  50              		.cfi_sections	.debug_frame
  51              		.section	.bss.osr,"aw",%nobits
  52              		.type	osr, %object
  53              		.size	osr, 1
  54              	osr:
  55 0000 00       		.space	1
  56              		.section	.bss.C,"aw",%nobits
  57              		.align	2
ARM GAS  C:\Users\Daro\AppData\Local\Temp\ccB3ePdz.s 			page 2


  58              		.type	C, %object
  59              		.size	C, 12
  60              	C:
  61 0000 00000000 		.space	12
  61      00000000 
  61      00000000 
  62              		.section	.text.getConversionTime,"ax",%progbits
  63              		.align	2
  64              		.thumb
  65              		.thumb_func
  66              		.type	getConversionTime, %function
  67              	getConversionTime:
  68              	.LFB143:
  69              		.file 1 "src/ms5611.c"
   1:src/ms5611.c  **** #include <stdint.h>
   2:src/ms5611.c  **** #include <stdbool.h>
   3:src/ms5611.c  **** #include <arm_math.h>
   4:src/ms5611.c  **** #include "include/i2c.h"
   5:src/ms5611.c  **** #include "include/ms5611.h"
   6:src/ms5611.c  **** 
   7:src/ms5611.c  **** static ms5611_osr_t osr;
   8:src/ms5611.c  **** static uint16_t C[6];
   9:src/ms5611.c  **** 
  10:src/ms5611.c  **** static uint8_t getConversionTime(void)
  11:src/ms5611.c  **** {
  70              		.loc 1 11 0
  71              		.cfi_startproc
  72              		@ args = 0, pretend = 0, frame = 0
  73              		@ frame_needed = 1, uses_anonymous_args = 0
  74              		@ link register save eliminated.
  75 0000 80B4     		push	{r7}	@
  76              		.cfi_def_cfa_offset 4
  77              		.cfi_offset 7, -4
  78 0002 00AF     		add	r7, sp, #0	@,,
  79              		.cfi_def_cfa_register 7
  12:src/ms5611.c  **** 	static uint8_t conversion_times[] = {1, 2, 3, 5, 10};
  13:src/ms5611.c  **** 
  14:src/ms5611.c  **** 	return conversion_times[osr << 1];
  80              		.loc 1 14 0
  81 0004 044B     		ldr	r3, .L3	@ tmp115,
  82 0006 1B78     		ldrb	r3, [r3]	@ zero_extendqisi2	@ D.8195, osr
  83 0008 5B00     		lsls	r3, r3, #1	@ D.8196, D.8196,
  84 000a 044A     		ldr	r2, .L3+4	@ tmp116,
  85 000c D35C     		ldrb	r3, [r2, r3]	@ zero_extendqisi2	@ D.8197, conversion_times
  15:src/ms5611.c  **** }
  86              		.loc 1 15 0
  87 000e 1846     		mov	r0, r3	@, <retval>
  88 0010 BD46     		mov	sp, r7	@,
  89              		.cfi_def_cfa_register 13
  90              		@ sp needed	@
  91 0012 5DF8047B 		ldr	r7, [sp], #4	@,
  92              		.cfi_restore 7
  93              		.cfi_def_cfa_offset 0
  94 0016 7047     		bx	lr	@
  95              	.L4:
  96              		.align	2
  97              	.L3:
ARM GAS  C:\Users\Daro\AppData\Local\Temp\ccB3ePdz.s 			page 3


  98 0018 00000000 		.word	osr
  99 001c 00000000 		.word	conversion_times.7991
 100              		.cfi_endproc
 101              	.LFE143:
 102              		.size	getConversionTime, .-getConversionTime
 103              		.section	.text.MS5611_setResolution,"ax",%progbits
 104              		.align	2
 105              		.global	MS5611_setResolution
 106              		.thumb
 107              		.thumb_func
 108              		.type	MS5611_setResolution, %function
 109              	MS5611_setResolution:
 110              	.LFB144:
  16:src/ms5611.c  **** 
  17:src/ms5611.c  **** void MS5611_setResolution(ms5611_osr_t new_osr)
  18:src/ms5611.c  **** {
 111              		.loc 1 18 0
 112              		.cfi_startproc
 113              		@ args = 0, pretend = 0, frame = 8
 114              		@ frame_needed = 1, uses_anonymous_args = 0
 115              		@ link register save eliminated.
 116 0000 80B4     		push	{r7}	@
 117              		.cfi_def_cfa_offset 4
 118              		.cfi_offset 7, -4
 119 0002 83B0     		sub	sp, sp, #12	@,,
 120              		.cfi_def_cfa_offset 16
 121 0004 00AF     		add	r7, sp, #0	@,,
 122              		.cfi_def_cfa_register 7
 123 0006 0346     		mov	r3, r0	@ tmp110, new_osr
 124 0008 FB71     		strb	r3, [r7, #7]	@ tmp111, new_osr
  19:src/ms5611.c  **** 	osr = new_osr;
 125              		.loc 1 19 0
 126 000a 044A     		ldr	r2, .L6	@ tmp112,
 127 000c FB79     		ldrb	r3, [r7, #7]	@ tmp113, new_osr
 128 000e 1370     		strb	r3, [r2]	@ tmp113, osr
  20:src/ms5611.c  **** }
 129              		.loc 1 20 0
 130 0010 0C37     		adds	r7, r7, #12	@,,
 131              		.cfi_def_cfa_offset 4
 132 0012 BD46     		mov	sp, r7	@,
 133              		.cfi_def_cfa_register 13
 134              		@ sp needed	@
 135 0014 5DF8047B 		ldr	r7, [sp], #4	@,
 136              		.cfi_restore 7
 137              		.cfi_def_cfa_offset 0
 138 0018 7047     		bx	lr	@
 139              	.L7:
 140 001a 00BF     		.align	2
 141              	.L6:
 142 001c 00000000 		.word	osr
 143              		.cfi_endproc
 144              	.LFE144:
 145              		.size	MS5611_setResolution, .-MS5611_setResolution
 146              		.section	.text.MS5611_getResolution,"ax",%progbits
 147              		.align	2
 148              		.global	MS5611_getResolution
 149              		.thumb
ARM GAS  C:\Users\Daro\AppData\Local\Temp\ccB3ePdz.s 			page 4


 150              		.thumb_func
 151              		.type	MS5611_getResolution, %function
 152              	MS5611_getResolution:
 153              	.LFB145:
  21:src/ms5611.c  **** 
  22:src/ms5611.c  **** ms5611_osr_t MS5611_getResolution(void)
  23:src/ms5611.c  **** {
 154              		.loc 1 23 0
 155              		.cfi_startproc
 156              		@ args = 0, pretend = 0, frame = 0
 157              		@ frame_needed = 1, uses_anonymous_args = 0
 158              		@ link register save eliminated.
 159 0000 80B4     		push	{r7}	@
 160              		.cfi_def_cfa_offset 4
 161              		.cfi_offset 7, -4
 162 0002 00AF     		add	r7, sp, #0	@,,
 163              		.cfi_def_cfa_register 7
  24:src/ms5611.c  **** 	return osr;
 164              		.loc 1 24 0
 165 0004 034B     		ldr	r3, .L10	@ tmp112,
 166 0006 1B78     		ldrb	r3, [r3]	@ zero_extendqisi2	@ D.8198, osr
  25:src/ms5611.c  **** }
 167              		.loc 1 25 0
 168 0008 1846     		mov	r0, r3	@, <retval>
 169 000a BD46     		mov	sp, r7	@,
 170              		.cfi_def_cfa_register 13
 171              		@ sp needed	@
 172 000c 5DF8047B 		ldr	r7, [sp], #4	@,
 173              		.cfi_restore 7
 174              		.cfi_def_cfa_offset 0
 175 0010 7047     		bx	lr	@
 176              	.L11:
 177 0012 00BF     		.align	2
 178              	.L10:
 179 0014 00000000 		.word	osr
 180              		.cfi_endproc
 181              	.LFE145:
 182              		.size	MS5611_getResolution, .-MS5611_getResolution
 183              		.section	.text.MS5611_writeRegister,"ax",%progbits
 184              		.align	2
 185              		.global	MS5611_writeRegister
 186              		.thumb
 187              		.thumb_func
 188              		.type	MS5611_writeRegister, %function
 189              	MS5611_writeRegister:
 190              	.LFB146:
  26:src/ms5611.c  **** 
  27:src/ms5611.c  **** void MS5611_writeRegister(uint8_t reg)
  28:src/ms5611.c  **** {
 191              		.loc 1 28 0
 192              		.cfi_startproc
 193              		@ args = 0, pretend = 0, frame = 8
 194              		@ frame_needed = 1, uses_anonymous_args = 0
 195 0000 80B5     		push	{r7, lr}	@
 196              		.cfi_def_cfa_offset 8
 197              		.cfi_offset 7, -8
 198              		.cfi_offset 14, -4
ARM GAS  C:\Users\Daro\AppData\Local\Temp\ccB3ePdz.s 			page 5


 199 0002 82B0     		sub	sp, sp, #8	@,,
 200              		.cfi_def_cfa_offset 16
 201 0004 00AF     		add	r7, sp, #0	@,,
 202              		.cfi_def_cfa_register 7
 203 0006 0346     		mov	r3, r0	@ tmp110, reg
 204 0008 FB71     		strb	r3, [r7, #7]	@ tmp111, reg
  29:src/ms5611.c  **** 	I2C_Write(MS5611_ADDRESS, &reg, 1);
 205              		.loc 1 29 0
 206 000a FB1D     		adds	r3, r7, #7	@ tmp112,,
 207 000c 7720     		movs	r0, #119	@,
 208 000e 1946     		mov	r1, r3	@, tmp112
 209 0010 0122     		movs	r2, #1	@,
 210 0012 FFF7FEFF 		bl	I2C_Write	@
  30:src/ms5611.c  **** }
 211              		.loc 1 30 0
 212 0016 0837     		adds	r7, r7, #8	@,,
 213              		.cfi_def_cfa_offset 8
 214 0018 BD46     		mov	sp, r7	@,
 215              		.cfi_def_cfa_register 13
 216              		@ sp needed	@
 217 001a 80BD     		pop	{r7, pc}	@
 218              		.cfi_endproc
 219              	.LFE146:
 220              		.size	MS5611_writeRegister, .-MS5611_writeRegister
 221              		.section	.text.MS5611_readRegister,"ax",%progbits
 222              		.align	2
 223              		.global	MS5611_readRegister
 224              		.thumb
 225              		.thumb_func
 226              		.type	MS5611_readRegister, %function
 227              	MS5611_readRegister:
 228              	.LFB147:
  31:src/ms5611.c  **** 
  32:src/ms5611.c  **** void MS5611_readRegister(uint8_t reg, uint8_t * data, uint8_t length)
  33:src/ms5611.c  **** {
 229              		.loc 1 33 0
 230              		.cfi_startproc
 231              		@ args = 0, pretend = 0, frame = 8
 232              		@ frame_needed = 1, uses_anonymous_args = 0
 233 0000 80B5     		push	{r7, lr}	@
 234              		.cfi_def_cfa_offset 8
 235              		.cfi_offset 7, -8
 236              		.cfi_offset 14, -4
 237 0002 82B0     		sub	sp, sp, #8	@,,
 238              		.cfi_def_cfa_offset 16
 239 0004 00AF     		add	r7, sp, #0	@,,
 240              		.cfi_def_cfa_register 7
 241 0006 0346     		mov	r3, r0	@ tmp110, reg
 242 0008 3960     		str	r1, [r7]	@ data, data
 243 000a FB71     		strb	r3, [r7, #7]	@ tmp111, reg
 244 000c 1346     		mov	r3, r2	@ tmp113, tmp112
 245 000e BB71     		strb	r3, [r7, #6]	@ tmp113, length
  34:src/ms5611.c  **** 	I2C_Write(MS5611_ADDRESS, &reg, 1);
 246              		.loc 1 34 0
 247 0010 FB1D     		adds	r3, r7, #7	@ tmp114,,
 248 0012 7720     		movs	r0, #119	@,
 249 0014 1946     		mov	r1, r3	@, tmp114
ARM GAS  C:\Users\Daro\AppData\Local\Temp\ccB3ePdz.s 			page 6


 250 0016 0122     		movs	r2, #1	@,
 251 0018 FFF7FEFF 		bl	I2C_Write	@
  35:src/ms5611.c  **** 	I2C_Read(MS5611_ADDRESS, data, length);
 252              		.loc 1 35 0
 253 001c BB79     		ldrb	r3, [r7, #6]	@ zero_extendqisi2	@ tmp115, length
 254 001e 7720     		movs	r0, #119	@,
 255 0020 3968     		ldr	r1, [r7]	@, data
 256 0022 1A46     		mov	r2, r3	@, tmp115
 257 0024 FFF7FEFF 		bl	I2C_Read	@
  36:src/ms5611.c  **** }
 258              		.loc 1 36 0
 259 0028 0837     		adds	r7, r7, #8	@,,
 260              		.cfi_def_cfa_offset 8
 261 002a BD46     		mov	sp, r7	@,
 262              		.cfi_def_cfa_register 13
 263              		@ sp needed	@
 264 002c 80BD     		pop	{r7, pc}	@
 265              		.cfi_endproc
 266              	.LFE147:
 267              		.size	MS5611_readRegister, .-MS5611_readRegister
 268 002e 00BF     		.section	.text.MS5611_readAdc,"ax",%progbits
 269              		.align	2
 270              		.global	MS5611_readAdc
 271              		.thumb
 272              		.thumb_func
 273              		.type	MS5611_readAdc, %function
 274              	MS5611_readAdc:
 275              	.LFB148:
  37:src/ms5611.c  **** 
  38:src/ms5611.c  **** uint32_t MS5611_readAdc(void)
  39:src/ms5611.c  **** {
 276              		.loc 1 39 0
 277              		.cfi_startproc
 278              		@ args = 0, pretend = 0, frame = 8
 279              		@ frame_needed = 1, uses_anonymous_args = 0
 280 0000 80B5     		push	{r7, lr}	@
 281              		.cfi_def_cfa_offset 8
 282              		.cfi_offset 7, -8
 283              		.cfi_offset 14, -4
 284 0002 82B0     		sub	sp, sp, #8	@,,
 285              		.cfi_def_cfa_offset 16
 286 0004 00AF     		add	r7, sp, #0	@,,
 287              		.cfi_def_cfa_register 7
  40:src/ms5611.c  **** 	uint8_t data[3] = {0};
 288              		.loc 1 40 0
 289 0006 0023     		movs	r3, #0	@ tmp123,
 290 0008 BB80     		strh	r3, [r7, #4]	@ movhi	@ tmp122, data
 291 000a 0023     		movs	r3, #0	@ tmp124,
 292 000c BB71     		strb	r3, [r7, #6]	@ tmp125, data
  41:src/ms5611.c  **** 	MS5611_readRegister(MS5611_CMD_ADC_READ, data, 3);
 293              		.loc 1 41 0
 294 000e 3B1D     		adds	r3, r7, #4	@ tmp126,,
 295 0010 0020     		movs	r0, #0	@,
 296 0012 1946     		mov	r1, r3	@, tmp126
 297 0014 0322     		movs	r2, #3	@,
 298 0016 FFF7FEFF 		bl	MS5611_readRegister	@
  42:src/ms5611.c  **** 	return data[0] << 16 | data[1] << 8 | data[2];
ARM GAS  C:\Users\Daro\AppData\Local\Temp\ccB3ePdz.s 			page 7


 299              		.loc 1 42 0
 300 001a 3B79     		ldrb	r3, [r7, #4]	@ zero_extendqisi2	@ D.8199, data
 301 001c 1A04     		lsls	r2, r3, #16	@ D.8200, D.8200,
 302 001e 7B79     		ldrb	r3, [r7, #5]	@ zero_extendqisi2	@ D.8199, data
 303 0020 1B02     		lsls	r3, r3, #8	@ D.8200, D.8200,
 304 0022 1343     		orrs	r3, r3, r2	@, D.8200, D.8200, D.8200
 305 0024 BA79     		ldrb	r2, [r7, #6]	@ zero_extendqisi2	@ D.8199, data
 306 0026 1343     		orrs	r3, r3, r2	@, D.8200, D.8200, D.8200
  43:src/ms5611.c  **** }
 307              		.loc 1 43 0
 308 0028 1846     		mov	r0, r3	@, <retval>
 309 002a 0837     		adds	r7, r7, #8	@,,
 310              		.cfi_def_cfa_offset 8
 311 002c BD46     		mov	sp, r7	@,
 312              		.cfi_def_cfa_register 13
 313              		@ sp needed	@
 314 002e 80BD     		pop	{r7, pc}	@
 315              		.cfi_endproc
 316              	.LFE148:
 317              		.size	MS5611_readAdc, .-MS5611_readAdc
 318              		.section	.text.MS5611_readRawTemperature,"ax",%progbits
 319              		.align	2
 320              		.global	MS5611_readRawTemperature
 321              		.thumb
 322              		.thumb_func
 323              		.type	MS5611_readRawTemperature, %function
 324              	MS5611_readRawTemperature:
 325              	.LFB149:
  44:src/ms5611.c  **** 
  45:src/ms5611.c  **** uint32_t MS5611_readRawTemperature(void)
  46:src/ms5611.c  **** {
 326              		.loc 1 46 0
 327              		.cfi_startproc
 328              		@ args = 0, pretend = 0, frame = 0
 329              		@ frame_needed = 1, uses_anonymous_args = 0
 330 0000 80B5     		push	{r7, lr}	@
 331              		.cfi_def_cfa_offset 8
 332              		.cfi_offset 7, -8
 333              		.cfi_offset 14, -4
 334 0002 00AF     		add	r7, sp, #0	@,,
 335              		.cfi_def_cfa_register 7
  47:src/ms5611.c  **** 	MS5611_writeRegister(MS5611_CMD_CONV_D2 | osr);
 336              		.loc 1 47 0
 337 0004 094B     		ldr	r3, .L18	@ tmp116,
 338 0006 1B78     		ldrb	r3, [r3]	@ zero_extendqisi2	@ D.8202, osr
 339 0008 43F05003 		orr	r3, r3, #80	@ tmp117, D.8202,
 340 000c DBB2     		uxtb	r3, r3	@ D.8202, tmp117
 341 000e 1846     		mov	r0, r3	@, D.8202
 342 0010 FFF7FEFF 		bl	MS5611_writeRegister	@
  48:src/ms5611.c  **** 	delay_ms(getConversionTime());
 343              		.loc 1 48 0
 344 0014 FFF7FEFF 		bl	getConversionTime	@
 345 0018 0346     		mov	r3, r0	@ tmp118,
 346 001a 1846     		mov	r0, r3	@, D.8204
 347 001c FFF7FEFF 		bl	delay_ms	@
  49:src/ms5611.c  **** 
  50:src/ms5611.c  **** 	return MS5611_readAdc();
ARM GAS  C:\Users\Daro\AppData\Local\Temp\ccB3ePdz.s 			page 8


 348              		.loc 1 50 0
 349 0020 FFF7FEFF 		bl	MS5611_readAdc	@
 350 0024 0346     		mov	r3, r0	@ D.8205,
  51:src/ms5611.c  **** }
 351              		.loc 1 51 0
 352 0026 1846     		mov	r0, r3	@, <retval>
 353 0028 80BD     		pop	{r7, pc}	@
 354              	.L19:
 355 002a 00BF     		.align	2
 356              	.L18:
 357 002c 00000000 		.word	osr
 358              		.cfi_endproc
 359              	.LFE149:
 360              		.size	MS5611_readRawTemperature, .-MS5611_readRawTemperature
 361              		.section	.text.MS5611_readRawPressure,"ax",%progbits
 362              		.align	2
 363              		.global	MS5611_readRawPressure
 364              		.thumb
 365              		.thumb_func
 366              		.type	MS5611_readRawPressure, %function
 367              	MS5611_readRawPressure:
 368              	.LFB150:
  52:src/ms5611.c  **** 
  53:src/ms5611.c  **** uint32_t MS5611_readRawPressure(void)
  54:src/ms5611.c  **** {
 369              		.loc 1 54 0
 370              		.cfi_startproc
 371              		@ args = 0, pretend = 0, frame = 0
 372              		@ frame_needed = 1, uses_anonymous_args = 0
 373 0000 80B5     		push	{r7, lr}	@
 374              		.cfi_def_cfa_offset 8
 375              		.cfi_offset 7, -8
 376              		.cfi_offset 14, -4
 377 0002 00AF     		add	r7, sp, #0	@,,
 378              		.cfi_def_cfa_register 7
  55:src/ms5611.c  **** 	MS5611_writeRegister(MS5611_CMD_CONV_D1 | osr);
 379              		.loc 1 55 0
 380 0004 094B     		ldr	r3, .L22	@ tmp116,
 381 0006 1B78     		ldrb	r3, [r3]	@ zero_extendqisi2	@ D.8206, osr
 382 0008 43F04003 		orr	r3, r3, #64	@ tmp117, D.8206,
 383 000c DBB2     		uxtb	r3, r3	@ D.8206, tmp117
 384 000e 1846     		mov	r0, r3	@, D.8206
 385 0010 FFF7FEFF 		bl	MS5611_writeRegister	@
  56:src/ms5611.c  **** 	delay_ms(getConversionTime());
 386              		.loc 1 56 0
 387 0014 FFF7FEFF 		bl	getConversionTime	@
 388 0018 0346     		mov	r3, r0	@ tmp118,
 389 001a 1846     		mov	r0, r3	@, D.8208
 390 001c FFF7FEFF 		bl	delay_ms	@
  57:src/ms5611.c  **** 
  58:src/ms5611.c  **** 	return MS5611_readAdc();
 391              		.loc 1 58 0
 392 0020 FFF7FEFF 		bl	MS5611_readAdc	@
 393 0024 0346     		mov	r3, r0	@ D.8209,
  59:src/ms5611.c  **** }
 394              		.loc 1 59 0
 395 0026 1846     		mov	r0, r3	@, <retval>
ARM GAS  C:\Users\Daro\AppData\Local\Temp\ccB3ePdz.s 			page 9


 396 0028 80BD     		pop	{r7, pc}	@
 397              	.L23:
 398 002a 00BF     		.align	2
 399              	.L22:
 400 002c 00000000 		.word	osr
 401              		.cfi_endproc
 402              	.LFE150:
 403              		.size	MS5611_readRawPressure, .-MS5611_readRawPressure
 404              		.section	.text.MS5611_readProm,"ax",%progbits
 405              		.align	2
 406              		.global	MS5611_readProm
 407              		.thumb
 408              		.thumb_func
 409              		.type	MS5611_readProm, %function
 410              	MS5611_readProm:
 411              	.LFB151:
  60:src/ms5611.c  **** 
  61:src/ms5611.c  **** uint16_t MS5611_readProm(uint8_t index)
  62:src/ms5611.c  **** {
 412              		.loc 1 62 0
 413              		.cfi_startproc
 414              		@ args = 0, pretend = 0, frame = 16
 415              		@ frame_needed = 1, uses_anonymous_args = 0
 416 0000 80B5     		push	{r7, lr}	@
 417              		.cfi_def_cfa_offset 8
 418              		.cfi_offset 7, -8
 419              		.cfi_offset 14, -4
 420 0002 84B0     		sub	sp, sp, #16	@,,
 421              		.cfi_def_cfa_offset 24
 422 0004 00AF     		add	r7, sp, #0	@,,
 423              		.cfi_def_cfa_register 7
 424 0006 0346     		mov	r3, r0	@ tmp123, index
 425 0008 FB71     		strb	r3, [r7, #7]	@ tmp124, index
  63:src/ms5611.c  **** 	uint8_t data[2];
  64:src/ms5611.c  **** 	MS5611_readRegister(MS5611_CMD_READ_PROM + index * 2, data, 2);
 426              		.loc 1 64 0
 427 000a FB79     		ldrb	r3, [r7, #7]	@ zero_extendqisi2	@ D.8210, index
 428 000c 5033     		adds	r3, r3, #80	@ D.8210, D.8210,
 429 000e DBB2     		uxtb	r3, r3	@ D.8211, D.8210
 430 0010 5B00     		lsls	r3, r3, #1	@ tmp125, D.8211,
 431 0012 DAB2     		uxtb	r2, r3	@ D.8211, tmp125
 432 0014 07F10C03 		add	r3, r7, #12	@ tmp126,,
 433 0018 1046     		mov	r0, r2	@, D.8211
 434 001a 1946     		mov	r1, r3	@, tmp126
 435 001c 0222     		movs	r2, #2	@,
 436 001e FFF7FEFF 		bl	MS5611_readRegister	@
  65:src/ms5611.c  **** 
  66:src/ms5611.c  **** 	return data[0] << 8 | data[1];
 437              		.loc 1 66 0
 438 0022 3B7B     		ldrb	r3, [r7, #12]	@ zero_extendqisi2	@ D.8211, data
 439 0024 1B02     		lsls	r3, r3, #8	@ D.8210, D.8210,
 440 0026 9AB2     		uxth	r2, r3	@ D.8212, D.8210
 441 0028 7B7B     		ldrb	r3, [r7, #13]	@ zero_extendqisi2	@ D.8211, data
 442 002a 9BB2     		uxth	r3, r3	@ D.8212, D.8211
 443 002c 1343     		orrs	r3, r3, r2	@, tmp129, tmp128, tmp127
 444 002e 9BB2     		uxth	r3, r3	@ D.8212, tmp129
 445 0030 9BB2     		uxth	r3, r3	@ D.8213, D.8212
ARM GAS  C:\Users\Daro\AppData\Local\Temp\ccB3ePdz.s 			page 10


  67:src/ms5611.c  **** }
 446              		.loc 1 67 0
 447 0032 1846     		mov	r0, r3	@, <retval>
 448 0034 1037     		adds	r7, r7, #16	@,,
 449              		.cfi_def_cfa_offset 8
 450 0036 BD46     		mov	sp, r7	@,
 451              		.cfi_def_cfa_register 13
 452              		@ sp needed	@
 453 0038 80BD     		pop	{r7, pc}	@
 454              		.cfi_endproc
 455              	.LFE151:
 456              		.size	MS5611_readProm, .-MS5611_readProm
 457 003a 00BF     		.section	.text.MS5611_readCalibrationData,"ax",%progbits
 458              		.align	2
 459              		.global	MS5611_readCalibrationData
 460              		.thumb
 461              		.thumb_func
 462              		.type	MS5611_readCalibrationData, %function
 463              	MS5611_readCalibrationData:
 464              	.LFB152:
  68:src/ms5611.c  **** 
  69:src/ms5611.c  **** void MS5611_readCalibrationData(void)
  70:src/ms5611.c  **** {
 465              		.loc 1 70 0
 466              		.cfi_startproc
 467              		@ args = 0, pretend = 0, frame = 8
 468              		@ frame_needed = 1, uses_anonymous_args = 0
 469 0000 90B5     		push	{r4, r7, lr}	@
 470              		.cfi_def_cfa_offset 12
 471              		.cfi_offset 4, -12
 472              		.cfi_offset 7, -8
 473              		.cfi_offset 14, -4
 474 0002 83B0     		sub	sp, sp, #12	@,,
 475              		.cfi_def_cfa_offset 24
 476 0004 00AF     		add	r7, sp, #0	@,,
 477              		.cfi_def_cfa_register 7
 478              	.LBB2:
  71:src/ms5611.c  **** 	for (uint8_t index = 0; index < 6; index++)
 479              		.loc 1 71 0
 480 0006 0023     		movs	r3, #0	@ tmp114,
 481 0008 FB71     		strb	r3, [r7, #7]	@ tmp115, index
 482 000a 0EE0     		b	.L27	@
 483              	.L28:
  72:src/ms5611.c  **** 		C[index] = MS5611_readProm(index + 1);
 484              		.loc 1 72 0 discriminator 3
 485 000c FC79     		ldrb	r4, [r7, #7]	@ zero_extendqisi2	@ D.8214, index
 486 000e FB79     		ldrb	r3, [r7, #7]	@ tmp116, index
 487 0010 0133     		adds	r3, r3, #1	@ tmp117, tmp116,
 488 0012 DBB2     		uxtb	r3, r3	@ D.8215, tmp117
 489 0014 1846     		mov	r0, r3	@, D.8215
 490 0016 FFF7FEFF 		bl	MS5611_readProm	@
 491 001a 0346     		mov	r3, r0	@ tmp118,
 492 001c 1A46     		mov	r2, r3	@ D.8216, tmp118
 493 001e 064B     		ldr	r3, .L29	@ tmp119,
 494 0020 23F81420 		strh	r2, [r3, r4, lsl #1]	@ movhi	@ tmp120, C
  71:src/ms5611.c  **** 	for (uint8_t index = 0; index < 6; index++)
 495              		.loc 1 71 0 discriminator 3
ARM GAS  C:\Users\Daro\AppData\Local\Temp\ccB3ePdz.s 			page 11


 496 0024 FB79     		ldrb	r3, [r7, #7]	@ zero_extendqisi2	@ D.8215, index
 497 0026 0133     		adds	r3, r3, #1	@ tmp121, D.8215,
 498 0028 FB71     		strb	r3, [r7, #7]	@ tmp122, index
 499              	.L27:
  71:src/ms5611.c  **** 	for (uint8_t index = 0; index < 6; index++)
 500              		.loc 1 71 0 is_stmt 0 discriminator 1
 501 002a FB79     		ldrb	r3, [r7, #7]	@ zero_extendqisi2	@ tmp123, index
 502 002c 052B     		cmp	r3, #5	@ tmp123,
 503 002e EDD9     		bls	.L28	@,
 504              	.LBE2:
  73:src/ms5611.c  **** }
 505              		.loc 1 73 0 is_stmt 1
 506 0030 0C37     		adds	r7, r7, #12	@,,
 507              		.cfi_def_cfa_offset 12
 508 0032 BD46     		mov	sp, r7	@,
 509              		.cfi_def_cfa_register 13
 510              		@ sp needed	@
 511 0034 90BD     		pop	{r4, r7, pc}	@
 512              	.L30:
 513 0036 00BF     		.align	2
 514              	.L29:
 515 0038 00000000 		.word	C
 516              		.cfi_endproc
 517              	.LFE152:
 518              		.size	MS5611_readCalibrationData, .-MS5611_readCalibrationData
 519              		.global	__aeabi_i2d
 520              		.global	__aeabi_ddiv
 521              		.section	.text.MS5611_readTemperature,"ax",%progbits
 522              		.align	2
 523              		.global	MS5611_readTemperature
 524              		.thumb
 525              		.thumb_func
 526              		.type	MS5611_readTemperature, %function
 527              	MS5611_readTemperature:
 528              	.LFB153:
  74:src/ms5611.c  **** 
  75:src/ms5611.c  **** double MS5611_readTemperature(bool compensate)
  76:src/ms5611.c  **** {
 529              		.loc 1 76 0
 530              		.cfi_startproc
 531              		@ args = 0, pretend = 0, frame = 24
 532              		@ frame_needed = 1, uses_anonymous_args = 0
 533 0000 F0B5     		push	{r4, r5, r6, r7, lr}	@
 534              		.cfi_def_cfa_offset 20
 535              		.cfi_offset 4, -20
 536              		.cfi_offset 5, -16
 537              		.cfi_offset 6, -12
 538              		.cfi_offset 7, -8
 539              		.cfi_offset 14, -4
 540 0002 87B0     		sub	sp, sp, #28	@,,
 541              		.cfi_def_cfa_offset 48
 542 0004 00AF     		add	r7, sp, #0	@,,
 543              		.cfi_def_cfa_register 7
 544 0006 0346     		mov	r3, r0	@ tmp127, compensate
 545 0008 FB71     		strb	r3, [r7, #7]	@ tmp128, compensate
  77:src/ms5611.c  ****     int32_t dT = MS5611_readRawTemperature() - (uint32_t)(C[4] << 8);
 546              		.loc 1 77 0
ARM GAS  C:\Users\Daro\AppData\Local\Temp\ccB3ePdz.s 			page 12


 547 000a FFF7FEFF 		bl	MS5611_readRawTemperature	@
 548 000e 0246     		mov	r2, r0	@ D.8217,
 549 0010 2C4B     		ldr	r3, .L36	@ tmp129,
 550 0012 1B89     		ldrh	r3, [r3, #8]	@ D.8218, C
 551 0014 1B02     		lsls	r3, r3, #8	@ D.8219, D.8219,
 552 0016 D31A     		subs	r3, r2, r3	@ D.8217, D.8217, D.8217
 553 0018 FB60     		str	r3, [r7, #12]	@ D.8217, dT
  78:src/ms5611.c  ****     int32_t T = 2000 + ((int64_t) dT * C[5]) / (1 << 24);
 554              		.loc 1 78 0
 555 001a FB68     		ldr	r3, [r7, #12]	@ tmp130, dT
 556 001c 1846     		mov	r0, r3	@ D.8220, tmp130
 557 001e 4FEAE071 		asr	r1, r0, #31	@ D.8220, D.8220,
 558 0022 284B     		ldr	r3, .L36	@ tmp131,
 559 0024 5B89     		ldrh	r3, [r3, #10]	@ D.8218, C
 560 0026 9AB2     		uxth	r2, r3	@ D.8220, D.8218
 561 0028 4FF00003 		mov	r3, #0	@ D.8220,
 562 002c 02FB01FE 		mul	lr, r2, r1	@ tmp132, D.8220, D.8220
 563 0030 00FB03F6 		mul	r6, r0, r3	@ tmp133, D.8220, D.8220
 564 0034 7644     		add	r6, r6, lr	@ tmp134, tmp132
 565 0036 A0FB0223 		umull	r2, r3, r0, r2	@ D.8220, D.8220, D.8220
 566 003a F118     		adds	r1, r6, r3	@ tmp135, tmp134, D.8220
 567 003c 0B46     		mov	r3, r1	@ D.8220, tmp135
 568 003e 002A     		cmp	r2, #0	@ tmp136,
 569 0040 73F10001 		sbcs	r1, r3, #0	@ tmp152,,
 570 0044 06DA     		bge	.L32	@,
 571 0046 6FF07F40 		mvn	r0, #-16777216	@ tmp137,
 572 004a 4FF00001 		mov	r1, #0	@,
 573 004e 1218     		adds	r2, r2, r0	@ tmp136, tmp136, tmp137
 574 0050 43EB0103 		adc	r3, r3, r1	@,,
 575              	.L32:
 576 0054 140E     		lsrs	r4, r2, #24	@ tmp138, tmp136,
 577 0056 44EA0324 		orr	r4, r4, r3, lsl #8	@, tmp138, tmp138,,
 578 005a 1D16     		asrs	r5, r3, #24	@,,
 579 005c 2246     		mov	r2, r4	@ D.8220, tmp138
 580 005e 2B46     		mov	r3, r5	@ D.8220,
 581 0060 1346     		mov	r3, r2	@ D.8221, D.8220
 582 0062 03F5FA63 		add	r3, r3, #2000	@ D.8221, D.8221,
 583 0066 7B61     		str	r3, [r7, #20]	@ D.8221, T
  79:src/ms5611.c  **** 
  80:src/ms5611.c  ****     if (compensate)
 584              		.loc 1 80 0
 585 0068 FB79     		ldrb	r3, [r7, #7]	@ zero_extendqisi2	@ tmp141, compensate
 586 006a 002B     		cmp	r3, #0	@ tmp141,
 587 006c 13D0     		beq	.L33	@,
 588              	.LBB3:
  81:src/ms5611.c  ****     {
  82:src/ms5611.c  ****     	int32_t T2 = 0;
 589              		.loc 1 82 0
 590 006e 0023     		movs	r3, #0	@ tmp142,
 591 0070 3B61     		str	r3, [r7, #16]	@ tmp142, T2
  83:src/ms5611.c  **** 
  84:src/ms5611.c  ****     	if (T < 2000)
 592              		.loc 1 84 0
 593 0072 7B69     		ldr	r3, [r7, #20]	@ tmp143, T
 594 0074 B3F5FA6F 		cmp	r3, #2000	@ tmp143,
 595 0078 09DA     		bge	.L34	@,
  85:src/ms5611.c  ****     	{
ARM GAS  C:\Users\Daro\AppData\Local\Temp\ccB3ePdz.s 			page 13


  86:src/ms5611.c  ****     		T2 = (dT * dT) / (1 << 31);
 596              		.loc 1 86 0
 597 007a FB68     		ldr	r3, [r7, #12]	@ tmp144, dT
 598 007c FA68     		ldr	r2, [r7, #12]	@ tmp145, dT
 599 007e 02FB03F3 		mul	r3, r2, r3	@ D.8222, tmp145, tmp144
 600 0082 B3F1004F 		cmp	r3, #-2147483648	@ D.8222,
 601 0086 0CBF     		ite	eq
 602 0088 0123     		moveq	r3, #1	@ tmp146,
 603 008a 0023     		movne	r3, #0	@ tmp146,
 604 008c 3B61     		str	r3, [r7, #16]	@ tmp146, T2
 605              	.L34:
  87:src/ms5611.c  ****     	}
  88:src/ms5611.c  **** 
  89:src/ms5611.c  ****     	T -= T2;
 606              		.loc 1 89 0
 607 008e 7A69     		ldr	r2, [r7, #20]	@ tmp148, T
 608 0090 3B69     		ldr	r3, [r7, #16]	@ tmp149, T2
 609 0092 D31A     		subs	r3, r2, r3	@ tmp147, tmp148, tmp149
 610 0094 7B61     		str	r3, [r7, #20]	@ tmp147, T
 611              	.L33:
 612              	.LBE3:
  90:src/ms5611.c  ****     }
  91:src/ms5611.c  **** 
  92:src/ms5611.c  ****     return (double) T / 100.0f;
 613              		.loc 1 92 0
 614 0096 7869     		ldr	r0, [r7, #20]	@, T
 615 0098 FFF7FEFF 		bl	__aeabi_i2d	@
 616 009c 0246     		mov	r2, r0	@ D.8223,
 617 009e 0B46     		mov	r3, r1	@ D.8223,
 618 00a0 1046     		mov	r0, r2	@, D.8223
 619 00a2 1946     		mov	r1, r3	@, D.8223
 620 00a4 4FF00002 		mov	r2, #0	@,
 621 00a8 074B     		ldr	r3, .L36+4	@,
 622 00aa FFF7FEFF 		bl	__aeabi_ddiv	@
 623 00ae 0246     		mov	r2, r0	@ tmp150,
 624 00b0 0B46     		mov	r3, r1	@,
 625 00b2 43EC172B 		fmdrr	d7, r2, r3	@ <retval>, D.8223
  93:src/ms5611.c  **** }
 626              		.loc 1 93 0
 627 00b6 B0EE470A 		fcpys	s0, s14	@, <retval>
 628 00ba F0EE670A 		fcpys	s1, s15	@, <retval>
 629 00be 1C37     		adds	r7, r7, #28	@,,
 630              		.cfi_def_cfa_offset 20
 631 00c0 BD46     		mov	sp, r7	@,
 632              		.cfi_def_cfa_register 13
 633              		@ sp needed	@
 634 00c2 F0BD     		pop	{r4, r5, r6, r7, pc}	@
 635              	.L37:
 636              		.align	2
 637              	.L36:
 638 00c4 00000000 		.word	C
 639 00c8 00005940 		.word	1079574528
 640              		.cfi_endproc
 641              	.LFE153:
 642              		.size	MS5611_readTemperature, .-MS5611_readTemperature
 643              		.section	.text.MS5611_readPressure,"ax",%progbits
 644              		.align	2
ARM GAS  C:\Users\Daro\AppData\Local\Temp\ccB3ePdz.s 			page 14


 645              		.global	MS5611_readPressure
 646              		.thumb
 647              		.thumb_func
 648              		.type	MS5611_readPressure, %function
 649              	MS5611_readPressure:
 650              	.LFB154:
  94:src/ms5611.c  **** 
  95:src/ms5611.c  **** uint32_t MS5611_readPressure(bool compensate)
  96:src/ms5611.c  **** {
 651              		.loc 1 96 0
 652              		.cfi_startproc
 653              		@ args = 0, pretend = 0, frame = 96
 654              		@ frame_needed = 1, uses_anonymous_args = 0
 655 0000 2DE9B04F 		push	{r4, r5, r7, r8, r9, r10, fp, lr}	@
 656              		.cfi_def_cfa_offset 32
 657              		.cfi_offset 4, -32
 658              		.cfi_offset 5, -28
 659              		.cfi_offset 7, -24
 660              		.cfi_offset 8, -20
 661              		.cfi_offset 9, -16
 662              		.cfi_offset 10, -12
 663              		.cfi_offset 11, -8
 664              		.cfi_offset 14, -4
 665 0004 98B0     		sub	sp, sp, #96	@,,
 666              		.cfi_def_cfa_offset 128
 667 0006 00AF     		add	r7, sp, #0	@,,
 668              		.cfi_def_cfa_register 7
 669 0008 0346     		mov	r3, r0	@ tmp166, compensate
 670 000a 87F82F30 		strb	r3, [r7, #47]	@ tmp167, compensate
  97:src/ms5611.c  **** 	uint32_t D1 = MS5611_readRawPressure();
 671              		.loc 1 97 0
 672 000e FFF7FEFF 		bl	MS5611_readRawPressure	@
 673 0012 F863     		str	r0, [r7, #60]	@, D1
  98:src/ms5611.c  **** 	uint32_t D2 = MS5611_readRawTemperature();
 674              		.loc 1 98 0
 675 0014 FFF7FEFF 		bl	MS5611_readRawTemperature	@
 676 0018 B863     		str	r0, [r7, #56]	@, D2
  99:src/ms5611.c  **** 
 100:src/ms5611.c  **** 	int32_t dT = D2 - (uint32_t)(C[4] << 8);
 677              		.loc 1 100 0
 678 001a AF4B     		ldr	r3, .L49	@ tmp168,
 679 001c 1B89     		ldrh	r3, [r3, #8]	@ D.8224, C
 680 001e 1B02     		lsls	r3, r3, #8	@ D.8225, D.8225,
 681 0020 1A46     		mov	r2, r3	@ D.8226, D.8225
 682 0022 BB6B     		ldr	r3, [r7, #56]	@ tmp169, D2
 683 0024 9B1A     		subs	r3, r3, r2	@ D.8226, tmp169, D.8226
 684 0026 7B63     		str	r3, [r7, #52]	@ D.8226, dT
 101:src/ms5611.c  **** 
 102:src/ms5611.c  **** 	int64_t OFF  = (int64_t) C[1] * 0x10000 + (int64_t) C[3] * dT / 0x080;
 685              		.loc 1 102 0
 686 0028 AB4B     		ldr	r3, .L49	@ tmp170,
 687 002a 5B88     		ldrh	r3, [r3, #2]	@ D.8224, C
 688 002c 9AB2     		uxth	r2, r3	@ D.8227, D.8224
 689 002e 4FF00003 		mov	r3, #0	@ D.8227,
 690 0032 4FEA0349 		lsl	r9, r3, #16	@ D.8227, D.8227,
 691 0036 49EA1249 		orr	r9, r9, r2, lsr #16	@, D.8227, D.8227, D.8227,
 692 003a 4FEA0248 		lsl	r8, r2, #16	@ D.8227, D.8227,
ARM GAS  C:\Users\Daro\AppData\Local\Temp\ccB3ePdz.s 			page 15


 693 003e A64B     		ldr	r3, .L49	@ tmp173,
 694 0040 DB88     		ldrh	r3, [r3, #6]	@ D.8224, C
 695 0042 98B2     		uxth	r0, r3	@ D.8227, D.8224
 696 0044 4FF00001 		mov	r1, #0	@ D.8227,
 697 0048 7B6B     		ldr	r3, [r7, #52]	@ tmp174, dT
 698 004a 1A46     		mov	r2, r3	@ D.8227, tmp174
 699 004c 4FEAE273 		asr	r3, r2, #31	@ D.8227, D.8227,
 700 0050 02FB01F5 		mul	r5, r2, r1	@ tmp175, D.8227, D.8227
 701 0054 00FB03F4 		mul	r4, r0, r3	@ tmp176, D.8227, D.8227
 702 0058 2C44     		add	r4, r4, r5	@ tmp177, tmp175
 703 005a A0FB0223 		umull	r2, r3, r0, r2	@ D.8227, D.8227, D.8227
 704 005e E118     		adds	r1, r4, r3	@ tmp178, tmp177, D.8227
 705 0060 0B46     		mov	r3, r1	@ D.8227, tmp178
 706 0062 002A     		cmp	r2, #0	@ tmp179,
 707 0064 73F10001 		sbcs	r1, r3, #0	@ tmp267,,
 708 0068 02DA     		bge	.L39	@,
 709 006a 7F32     		adds	r2, r2, #127	@ tmp179, tmp179,
 710 006c 43F10003 		adc	r3, r3, #0	@,,
 711              	.L39:
 712 0070 D109     		lsrs	r1, r2, #7	@ tmp272, tmp179,
 713 0072 3962     		str	r1, [r7, #32]	@ tmp272, %sfp
 714 0074 396A     		ldr	r1, [r7, #32]	@ tmp274, %sfp
 715 0076 41EA4361 		orr	r1, r1, r3, lsl #25	@, tmp273, tmp274,,
 716 007a 3962     		str	r1, [r7, #32]	@ tmp273, %sfp
 717 007c DB11     		asrs	r3, r3, #7	@ tmp277,,
 718 007e 7B62     		str	r3, [r7, #36]	@ tmp277, %sfp
 719 0080 D7E90823 		ldrd	r2, [r7, #32]	@ D.8227,,
 720 0084 12EB0802 		adds	r2, r2, r8	@ tmp183, D.8227, D.8227
 721 0088 43EB0903 		adc	r3, r3, r9	@, D.8227, D.8227
 722 008c C7E91623 		strd	r2, [r7, #88]	@ tmp183,,
 103:src/ms5611.c  **** 	int64_t SENS = (int64_t) C[0] * 0x08000 + (int64_t) C[2] * dT / 0x100;
 723              		.loc 1 103 0
 724 0090 914B     		ldr	r3, .L49	@ tmp184,
 725 0092 1B88     		ldrh	r3, [r3]	@ D.8224, C
 726 0094 9AB2     		uxth	r2, r3	@ D.8227, D.8224
 727 0096 4FF00003 		mov	r3, #0	@ D.8227,
 728 009a 4FEAC33B 		lsl	fp, r3, #15	@ D.8227, D.8227,
 729 009e 4BEA524B 		orr	fp, fp, r2, lsr #17	@, D.8227, D.8227, D.8227,
 730 00a2 4FEAC23A 		lsl	r10, r2, #15	@ D.8227, D.8227,
 731 00a6 8C4B     		ldr	r3, .L49	@ tmp187,
 732 00a8 9B88     		ldrh	r3, [r3, #4]	@ D.8224, C
 733 00aa 9AB2     		uxth	r2, r3	@ D.8227, D.8224
 734 00ac 4FF00003 		mov	r3, #0	@ D.8227,
 735 00b0 796B     		ldr	r1, [r7, #52]	@ tmp188, dT
 736 00b2 0846     		mov	r0, r1	@ D.8227, tmp188
 737 00b4 4FEAE071 		asr	r1, r0, #31	@ D.8227, D.8227,
 738 00b8 00FB03F5 		mul	r5, r0, r3	@ tmp189, D.8227, D.8227
 739 00bc 02FB01F4 		mul	r4, r2, r1	@ tmp190, D.8227, D.8227
 740 00c0 2C44     		add	r4, r4, r5	@ tmp191, tmp189
 741 00c2 A2FB0023 		umull	r2, r3, r2, r0	@ D.8227, D.8227, D.8227
 742 00c6 E118     		adds	r1, r4, r3	@ tmp192, tmp191, D.8227
 743 00c8 0B46     		mov	r3, r1	@ D.8227, tmp192
 744 00ca 002A     		cmp	r2, #0	@ tmp193,
 745 00cc 73F10001 		sbcs	r1, r3, #0	@ tmp268,,
 746 00d0 02DA     		bge	.L40	@,
 747 00d2 FF32     		adds	r2, r2, #255	@ tmp193, tmp193,
 748 00d4 43F10003 		adc	r3, r3, #0	@,,
ARM GAS  C:\Users\Daro\AppData\Local\Temp\ccB3ePdz.s 			page 16


 749              	.L40:
 750 00d8 110A     		lsrs	r1, r2, #8	@ tmp278, tmp193,
 751 00da B961     		str	r1, [r7, #24]	@ tmp278, %sfp
 752 00dc B969     		ldr	r1, [r7, #24]	@ tmp280, %sfp
 753 00de 41EA0361 		orr	r1, r1, r3, lsl #24	@, tmp279, tmp280,,
 754 00e2 B961     		str	r1, [r7, #24]	@ tmp279, %sfp
 755 00e4 1B12     		asrs	r3, r3, #8	@ tmp283,,
 756 00e6 FB61     		str	r3, [r7, #28]	@ tmp283, %sfp
 757 00e8 D7E90623 		ldrd	r2, [r7, #24]	@ D.8227,,
 758 00ec 12EB0A02 		adds	r2, r2, r10	@ tmp197, D.8227, D.8227
 759 00f0 43EB0B03 		adc	r3, r3, fp	@, D.8227, D.8227
 760 00f4 C7E91423 		strd	r2, [r7, #80]	@ tmp197,,
 104:src/ms5611.c  **** 
 105:src/ms5611.c  **** 	int32_t TEMP = 2000 + ((int64_t) dT * C[5]) / (1 << 24);
 761              		.loc 1 105 0
 762 00f8 7B6B     		ldr	r3, [r7, #52]	@ tmp198, dT
 763 00fa 1846     		mov	r0, r3	@ D.8227, tmp198
 764 00fc 4FEAE071 		asr	r1, r0, #31	@ D.8227, D.8227,
 765 0100 754B     		ldr	r3, .L49	@ tmp199,
 766 0102 5B89     		ldrh	r3, [r3, #10]	@ D.8224, C
 767 0104 9AB2     		uxth	r2, r3	@ D.8227, D.8224
 768 0106 4FF00003 		mov	r3, #0	@ D.8227,
 769 010a 02FB01F5 		mul	r5, r2, r1	@ tmp200, D.8227, D.8227
 770 010e 00FB03F4 		mul	r4, r0, r3	@ tmp201, D.8227, D.8227
 771 0112 2C44     		add	r4, r4, r5	@ tmp202, tmp200
 772 0114 A0FB0223 		umull	r2, r3, r0, r2	@ D.8227, D.8227, D.8227
 773 0118 E118     		adds	r1, r4, r3	@ tmp203, tmp202, D.8227
 774 011a 0B46     		mov	r3, r1	@ D.8227, tmp203
 775 011c 002A     		cmp	r2, #0	@ tmp204,
 776 011e 73F10001 		sbcs	r1, r3, #0	@ tmp269,,
 777 0122 06DA     		bge	.L41	@,
 778 0124 6FF07F40 		mvn	r0, #-16777216	@ tmp205,
 779 0128 4FF00001 		mov	r1, #0	@,
 780 012c 1218     		adds	r2, r2, r0	@ tmp204, tmp204, tmp205
 781 012e 43EB0103 		adc	r3, r3, r1	@,,
 782              	.L41:
 783 0132 110E     		lsrs	r1, r2, #24	@ tmp284, tmp204,
 784 0134 3961     		str	r1, [r7, #16]	@ tmp284, %sfp
 785 0136 3969     		ldr	r1, [r7, #16]	@ tmp286, %sfp
 786 0138 41EA0321 		orr	r1, r1, r3, lsl #8	@, tmp285, tmp286,,
 787 013c 3961     		str	r1, [r7, #16]	@ tmp285, %sfp
 788 013e 1B16     		asrs	r3, r3, #24	@ tmp289,,
 789 0140 7B61     		str	r3, [r7, #20]	@ tmp289, %sfp
 790 0142 D7E90423 		ldrd	r2, [r7, #16]	@ D.8227,,
 791 0146 1346     		mov	r3, r2	@ D.8228, D.8227
 792 0148 03F5FA63 		add	r3, r3, #2000	@ D.8228, D.8228,
 793 014c 3B63     		str	r3, [r7, #48]	@ D.8228, TEMP
 106:src/ms5611.c  **** 
 107:src/ms5611.c  **** 	if (compensate)
 794              		.loc 1 107 0
 795 014e 97F82F30 		ldrb	r3, [r7, #47]	@ zero_extendqisi2	@ tmp209, compensate
 796 0152 002B     		cmp	r3, #0	@ tmp209,
 797 0154 7BD0     		beq	.L42	@,
 798              	.LBB4:
 108:src/ms5611.c  **** 	{
 109:src/ms5611.c  **** 		int64_t OFF2 = 0;
 799              		.loc 1 109 0
ARM GAS  C:\Users\Daro\AppData\Local\Temp\ccB3ePdz.s 			page 17


 800 0156 4FF00002 		mov	r2, #0	@ tmp210,
 801 015a 4FF00003 		mov	r3, #0	@,
 802 015e C7E91223 		strd	r2, [r7, #72]	@ tmp210,,
 110:src/ms5611.c  **** 		int64_t SENS2 = 0;
 803              		.loc 1 110 0
 804 0162 4FF00002 		mov	r2, #0	@ tmp211,
 805 0166 4FF00003 		mov	r3, #0	@,
 806 016a C7E91023 		strd	r2, [r7, #64]	@ tmp211,,
 111:src/ms5611.c  **** 
 112:src/ms5611.c  **** 		if (TEMP < 2000)
 807              		.loc 1 112 0
 808 016e 3B6B     		ldr	r3, [r7, #48]	@ tmp212, TEMP
 809 0170 B3F5FA6F 		cmp	r3, #2000	@ tmp212,
 810 0174 26DA     		bge	.L43	@,
 113:src/ms5611.c  **** 		{
 114:src/ms5611.c  **** 			OFF2 = 5 * ((TEMP - 2000) * (TEMP - 2000)) / 2;
 811              		.loc 1 114 0
 812 0176 3B6B     		ldr	r3, [r7, #48]	@ tmp213, TEMP
 813 0178 A3F5FA63 		sub	r3, r3, #2000	@ D.8229, tmp213,
 814 017c 3A6B     		ldr	r2, [r7, #48]	@ tmp214, TEMP
 815 017e A2F5FA62 		sub	r2, r2, #2000	@ D.8229, tmp214,
 816 0182 02FB03F2 		mul	r2, r2, r3	@ D.8229, D.8229, D.8229
 817 0186 1346     		mov	r3, r2	@ tmp215, D.8229
 818 0188 9B00     		lsls	r3, r3, #2	@ tmp215, tmp215,
 819 018a 1344     		add	r3, r3, r2	@ D.8229, D.8229
 820 018c DA0F     		lsrs	r2, r3, #31	@ tmp216, D.8229,
 821 018e 1344     		add	r3, r3, r2	@ tmp217, tmp216
 822 0190 5B10     		asrs	r3, r3, #1	@ tmp218, tmp217,
 823 0192 1A46     		mov	r2, r3	@ tmp219, D.8229
 824 0194 4FEAE273 		asr	r3, r2, #31	@, tmp219,
 825 0198 C7E91223 		strd	r2, [r7, #72]	@ tmp219,,
 115:src/ms5611.c  **** 			SENS2 = 5 * ((TEMP - 2000) * (TEMP - 2000)) / 4;
 826              		.loc 1 115 0
 827 019c 3B6B     		ldr	r3, [r7, #48]	@ tmp220, TEMP
 828 019e A3F5FA63 		sub	r3, r3, #2000	@ D.8229, tmp220,
 829 01a2 3A6B     		ldr	r2, [r7, #48]	@ tmp221, TEMP
 830 01a4 A2F5FA62 		sub	r2, r2, #2000	@ D.8229, tmp221,
 831 01a8 02FB03F2 		mul	r2, r2, r3	@ D.8229, D.8229, D.8229
 832 01ac 1346     		mov	r3, r2	@ tmp222, D.8229
 833 01ae 9B00     		lsls	r3, r3, #2	@ tmp222, tmp222,
 834 01b0 1344     		add	r3, r3, r2	@ D.8229, D.8229
 835 01b2 002B     		cmp	r3, #0	@ tmp223,
 836 01b4 00DA     		bge	.L44	@,
 837 01b6 0333     		adds	r3, r3, #3	@ tmp223, tmp223,
 838              	.L44:
 839 01b8 9B10     		asrs	r3, r3, #2	@ tmp224, tmp223,
 840 01ba 1A46     		mov	r2, r3	@ tmp225, D.8229
 841 01bc 4FEAE273 		asr	r3, r2, #31	@, tmp225,
 842 01c0 C7E91023 		strd	r2, [r7, #64]	@ tmp225,,
 843              	.L43:
 116:src/ms5611.c  **** 		}
 117:src/ms5611.c  **** 
 118:src/ms5611.c  **** 		if (TEMP < -1500)
 844              		.loc 1 118 0
 845 01c4 3B6B     		ldr	r3, [r7, #48]	@ tmp226, TEMP
 846 01c6 454A     		ldr	r2, .L49+4	@ tmp227,
 847 01c8 9342     		cmp	r3, r2	@ tmp226, tmp227
ARM GAS  C:\Users\Daro\AppData\Local\Temp\ccB3ePdz.s 			page 18


 848 01ca 2EDA     		bge	.L45	@,
 119:src/ms5611.c  **** 		{
 120:src/ms5611.c  **** 			OFF2 = OFF2 + 7 * ((TEMP + 1500) * (TEMP + 1500));
 849              		.loc 1 120 0
 850 01cc 3B6B     		ldr	r3, [r7, #48]	@ tmp228, TEMP
 851 01ce 03F2DC53 		addw	r3, r3, #1500	@ D.8229, tmp228,
 852 01d2 3A6B     		ldr	r2, [r7, #48]	@ tmp229, TEMP
 853 01d4 02F2DC52 		addw	r2, r2, #1500	@ D.8229, tmp229,
 854 01d8 02FB03F2 		mul	r2, r2, r3	@ D.8229, D.8229, D.8229
 855 01dc 1346     		mov	r3, r2	@ tmp230, D.8229
 856 01de DB00     		lsls	r3, r3, #3	@ tmp230, tmp230,
 857 01e0 9B1A     		subs	r3, r3, r2	@ D.8229, tmp230, D.8229
 858 01e2 1A46     		mov	r2, r3	@ D.8227, D.8229
 859 01e4 4FEAE273 		asr	r3, r2, #31	@ D.8227, D.8227,
 860 01e8 D7E91201 		ldrd	r0, [r7, #72]	@ tmp232,,
 861 01ec 1218     		adds	r2, r2, r0	@ tmp231, D.8227, tmp232
 862 01ee 43EB0103 		adc	r3, r3, r1	@, D.8227,
 863 01f2 C7E91223 		strd	r2, [r7, #72]	@ tmp231,,
 121:src/ms5611.c  **** 			SENS2 = SENS2 + 11 * ((TEMP + 1500) * (TEMP + 1500)) / 2;
 864              		.loc 1 121 0
 865 01f6 3B6B     		ldr	r3, [r7, #48]	@ tmp233, TEMP
 866 01f8 03F2DC53 		addw	r3, r3, #1500	@ D.8229, tmp233,
 867 01fc 3A6B     		ldr	r2, [r7, #48]	@ tmp234, TEMP
 868 01fe 02F2DC52 		addw	r2, r2, #1500	@ D.8229, tmp234,
 869 0202 02FB03F2 		mul	r2, r2, r3	@ D.8229, D.8229, D.8229
 870 0206 1346     		mov	r3, r2	@ tmp235, D.8229
 871 0208 9B00     		lsls	r3, r3, #2	@ tmp235, tmp235,
 872 020a 1344     		add	r3, r3, r2	@ tmp235, D.8229
 873 020c 5B00     		lsls	r3, r3, #1	@ tmp235, tmp235,
 874 020e 1344     		add	r3, r3, r2	@ D.8229, D.8229
 875 0210 DA0F     		lsrs	r2, r3, #31	@ tmp236, D.8229,
 876 0212 1344     		add	r3, r3, r2	@ tmp237, tmp236
 877 0214 5B10     		asrs	r3, r3, #1	@ tmp238, tmp237,
 878 0216 1A46     		mov	r2, r3	@ D.8227, D.8229
 879 0218 4FEAE273 		asr	r3, r2, #31	@ D.8227, D.8227,
 880 021c D7E91001 		ldrd	r0, [r7, #64]	@ tmp240,,
 881 0220 1218     		adds	r2, r2, r0	@ tmp239, D.8227, tmp240
 882 0222 43EB0103 		adc	r3, r3, r1	@, D.8227,
 883 0226 C7E91023 		strd	r2, [r7, #64]	@ tmp239,,
 884              	.L45:
 122:src/ms5611.c  **** 		}
 123:src/ms5611.c  **** 
 124:src/ms5611.c  **** 		OFF = OFF - OFF2;
 885              		.loc 1 124 0
 886 022a D7E91601 		ldrd	r0, [r7, #88]	@ tmp242,,
 887 022e D7E91223 		ldrd	r2, [r7, #72]	@ tmp243,,
 888 0232 821A     		subs	r2, r0, r2	@ tmp241, tmp242, tmp243
 889 0234 61EB0303 		sbc	r3, r1, r3	@,,
 890 0238 C7E91623 		strd	r2, [r7, #88]	@ tmp241,,
 125:src/ms5611.c  **** 		SENS = SENS - SENS2;
 891              		.loc 1 125 0
 892 023c D7E91401 		ldrd	r0, [r7, #80]	@ tmp245,,
 893 0240 D7E91023 		ldrd	r2, [r7, #64]	@ tmp246,,
 894 0244 821A     		subs	r2, r0, r2	@ tmp244, tmp245, tmp246
 895 0246 61EB0303 		sbc	r3, r1, r3	@,,
 896 024a C7E91423 		strd	r2, [r7, #80]	@ tmp244,,
 897              	.L42:
ARM GAS  C:\Users\Daro\AppData\Local\Temp\ccB3ePdz.s 			page 19


 898              	.LBE4:
 126:src/ms5611.c  **** 	}
 127:src/ms5611.c  **** 
 128:src/ms5611.c  **** 	return (D1 * SENS / 0x200000 - OFF) / 0x8000;
 899              		.loc 1 128 0
 900 024e FB6B     		ldr	r3, [r7, #60]	@ tmp247, D1
 901 0250 1A46     		mov	r2, r3	@ D.8227, tmp247
 902 0252 4FF00003 		mov	r3, #0	@ D.8227,
 903 0256 396D     		ldr	r1, [r7, #80]	@ tmp249, SENS
 904 0258 03FB01F0 		mul	r0, r3, r1	@ tmp248, D.8227, tmp249
 905 025c 796D     		ldr	r1, [r7, #84]	@ tmp251, SENS
 906 025e 02FB01F1 		mul	r1, r2, r1	@ tmp250, D.8227, tmp251
 907 0262 0144     		add	r1, r1, r0	@ tmp252, tmp248
 908 0264 386D     		ldr	r0, [r7, #80]	@ tmp253, SENS
 909 0266 A0FB0223 		umull	r2, r3, r0, r2	@ D.8227, tmp253, D.8227
 910 026a 1944     		add	r1, r1, r3	@ tmp254, D.8227
 911 026c 0B46     		mov	r3, r1	@ D.8227, tmp254
 912 026e 002A     		cmp	r2, #0	@ tmp255,
 913 0270 73F10001 		sbcs	r1, r3, #0	@ tmp270,,
 914 0274 05DA     		bge	.L46	@,
 915 0276 1A48     		ldr	r0, .L49+8	@ tmp256,
 916 0278 4FF00001 		mov	r1, #0	@,
 917 027c 1218     		adds	r2, r2, r0	@ tmp255, tmp255, tmp256
 918 027e 43EB0103 		adc	r3, r3, r1	@,,
 919              	.L46:
 920 0282 510D     		lsrs	r1, r2, #21	@ tmp290, tmp255,
 921 0284 B960     		str	r1, [r7, #8]	@ tmp290, %sfp
 922 0286 B968     		ldr	r1, [r7, #8]	@ tmp292, %sfp
 923 0288 41EAC321 		orr	r1, r1, r3, lsl #11	@, tmp291, tmp292,,
 924 028c B960     		str	r1, [r7, #8]	@ tmp291, %sfp
 925 028e 5B15     		asrs	r3, r3, #21	@ tmp295,,
 926 0290 FB60     		str	r3, [r7, #12]	@ tmp295, %sfp
 927 0292 D7E90201 		ldrd	r0, [r7, #8]	@ D.8227,,
 928 0296 D7E91623 		ldrd	r2, [r7, #88]	@ tmp260,,
 929 029a 821A     		subs	r2, r0, r2	@ D.8227, D.8227, tmp260
 930 029c 61EB0303 		sbc	r3, r1, r3	@ D.8227, D.8227,
 931 02a0 002A     		cmp	r2, #0	@ tmp261,
 932 02a2 73F10001 		sbcs	r1, r3, #0	@ tmp271,,
 933 02a6 06DA     		bge	.L47	@,
 934 02a8 47F6FF70 		movw	r0, #32767	@ tmp262,
 935 02ac 4FF00001 		mov	r1, #0	@,
 936 02b0 1218     		adds	r2, r2, r0	@ tmp261, tmp261, tmp262
 937 02b2 43EB0103 		adc	r3, r3, r1	@,,
 938              	.L47:
 939 02b6 D10B     		lsrs	r1, r2, #15	@ tmp296, tmp261,
 940 02b8 3960     		str	r1, [r7]	@ tmp296, %sfp
 941 02ba 3968     		ldr	r1, [r7]	@ tmp298, %sfp
 942 02bc 41EA4341 		orr	r1, r1, r3, lsl #17	@, tmp297, tmp298,,
 943 02c0 3960     		str	r1, [r7]	@ tmp297, %sfp
 944 02c2 DB13     		asrs	r3, r3, #15	@ tmp301,,
 945 02c4 7B60     		str	r3, [r7, #4]	@ tmp301, %sfp
 946 02c6 D7E90023 		ldrd	r2, [r7]	@ D.8227, %sfp
 947 02ca 1346     		mov	r3, r2	@ D.8230, D.8227
 129:src/ms5611.c  **** }
 948              		.loc 1 129 0
 949 02cc 1846     		mov	r0, r3	@, <retval>
 950 02ce 6037     		adds	r7, r7, #96	@,,
ARM GAS  C:\Users\Daro\AppData\Local\Temp\ccB3ePdz.s 			page 20


 951              		.cfi_def_cfa_offset 32
 952 02d0 BD46     		mov	sp, r7	@,
 953              		.cfi_def_cfa_register 13
 954              		@ sp needed	@
 955 02d2 BDE8B08F 		pop	{r4, r5, r7, r8, r9, r10, fp, pc}	@
 956              	.L50:
 957 02d6 00BF     		.align	2
 958              	.L49:
 959 02d8 00000000 		.word	C
 960 02dc 24FAFFFF 		.word	-1500
 961 02e0 FFFF1F00 		.word	2097151
 962              		.cfi_endproc
 963              	.LFE154:
 964              		.size	MS5611_readPressure, .-MS5611_readPressure
 965              		.section	.data.conversion_times.7991,"aw",%progbits
 966              		.align	2
 967              		.type	conversion_times.7991, %object
 968              		.size	conversion_times.7991, 5
 969              	conversion_times.7991:
 970 0000 01       		.byte	1
 971 0001 02       		.byte	2
 972 0002 03       		.byte	3
 973 0003 05       		.byte	5
 974 0004 0A       		.byte	10
 975 0005 000000   		.text
 976              	.Letext0:
 977              		.file 2 "c:\\dev\\arm\\gcc-arm-none-eabi-4_9-141220\\arm-none-eabi\\include\\machine\\_default_typ
 978              		.file 3 "c:\\dev\\arm\\gcc-arm-none-eabi-4_9-141220\\arm-none-eabi\\include\\stdint.h"
 979              		.file 4 "./include/ms5611.h"
 980              		.file 5 "C:\\DEV\\arm\\lib\\cmsis/core_cm4.h"