ARM GAS  C:\Users\Daro\AppData\Local\Temp\ccbuSold.s 			page 1


   1              		.syntax unified
   2              		.cpu cortex-m4
   3              		.eabi_attribute 27, 3	@ Tag_ABI_HardFP_use
   4              		.eabi_attribute 28, 1	@ Tag_ABI_VFP_args
   5              		.fpu fpv4-sp-d16
   6              		.eabi_attribute 23, 1	@ Tag_ABI_FP_number_model
   7              		.eabi_attribute 24, 1	@ Tag_ABI_align8_needed
   8              		.eabi_attribute 25, 1	@ Tag_ABI_align8_preserved
   9              		.eabi_attribute 26, 1	@ Tag_ABI_enum_size
  10              		.eabi_attribute 30, 6	@ Tag_ABI_optimization_goals
  11              		.eabi_attribute 34, 1	@ Tag_CPU_unaligned_access
  12              		.eabi_attribute 18, 4	@ Tag_ABI_PCS_wchar_t
  13              		.file	"onewire.c"
  14              	@ GNU C (GNU Tools for ARM Embedded Processors / bleeding-edge-toolchain-141220) version 4.9.3 2014
  15              	@	compiled by GNU C version 4.9.2, GMP version 6.0.0, MPFR version 3.1.2, MPC version 1.0.2
  16              	@ GGC heuristics: --param ggc-min-expand=100 --param ggc-min-heapsize=131072
  17              	@ options passed:  -I . -I C:\DEV\arm\lib\cmsis -I C:\DEV\arm\lib\stm32f4xx
  18              	@ -I include -imultilib armv7e-m/fpu
  19              	@ -iprefix c:\dev\arm\gcc-arm-none-eabi-4_9-141220\bin\../lib/gcc/arm-none-eabi/4.9.3/
  20              	@ -isysroot c:\dev\arm\gcc-arm-none-eabi-4_9-141220\bin\../arm-none-eabi
  21              	@ -MD bin/onewire.d -MF bin/onewire.d -MP -MQ bin/onewire.o
  22              	@ -D__USES_INITFINI__ -D STM32F4XX -D ARM_MATH_CM4 -D __FPU_PRESENT
  23              	@ src/onewire.c -mcpu=cortex-m4 -mthumb -mfloat-abi=hard -mfpu=fpv4-sp-d16
  24              	@ -auxbase-strip bin/onewire.o -g -ggdb3 -O0 -Wall -Wstrict-prototypes
  25              	@ -Wextra -std=c99 -ffast-math -ffunction-sections -fdata-sections
  26              	@ -fverbose-asm
  27              	@ options enabled:  -faggressive-loop-optimizations -fassociative-math
  28              	@ -fauto-inc-dec -fcommon -fcx-limited-range -fdata-sections
  29              	@ -fdelete-null-pointer-checks -fdwarf2-cfi-asm -fearly-inlining
  30              	@ -feliminate-unused-debug-types -ffinite-math-only -ffunction-cse
  31              	@ -ffunction-sections -fgcse-lm -fgnu-runtime -fgnu-unique -fident
  32              	@ -finline-atomics -fira-hoist-pressure -fira-share-save-slots
  33              	@ -fira-share-spill-slots -fivopts -fkeep-static-consts
  34              	@ -fleading-underscore -fmerge-debug-strings -fpeephole
  35              	@ -fprefetch-loop-arrays -freciprocal-math -freg-struct-return
  36              	@ -fsched-critical-path-heuristic -fsched-dep-count-heuristic
  37              	@ -fsched-group-heuristic -fsched-interblock -fsched-last-insn-heuristic
  38              	@ -fsched-rank-heuristic -fsched-spec -fsched-spec-insn-heuristic
  39              	@ -fsched-stalled-insns-dep -fshow-column -fsplit-ivs-in-unroller
  40              	@ -fstrict-volatile-bitfields -fsync-libcalls -ftree-coalesce-vars
  41              	@ -ftree-cselim -ftree-forwprop -ftree-loop-if-convert -ftree-loop-im
  42              	@ -ftree-loop-ivcanon -ftree-loop-optimize -ftree-parallelize-loops=
  43              	@ -ftree-phiprop -ftree-reassoc -ftree-scev-cprop -funit-at-a-time
  44              	@ -funsafe-math-optimizations -fverbose-asm -fzero-initialized-in-bss
  45              	@ -mlittle-endian -mlra -mpic-data-is-text-relative -msched-prolog -mthumb
  46              	@ -munaligned-access -mvectorize-with-neon-quad
  47              	
  48              		.text
  49              	.Ltext0:
  50              		.cfi_sections	.debug_frame
  51              		.section	.bss.delay_counter,"aw",%nobits
  52              		.align	2
  53              		.type	delay_counter, %object
  54              		.size	delay_counter, 4
  55              	delay_counter:
  56 0000 00000000 		.space	4
  57              		.section	.text.OW_Out,"ax",%progbits
ARM GAS  C:\Users\Daro\AppData\Local\Temp\ccbuSold.s 			page 2


  58              		.align	2
  59              		.global	OW_Out
  60              		.thumb
  61              		.thumb_func
  62              		.type	OW_Out, %function
  63              	OW_Out:
  64              	.LFB110:
  65              		.file 1 "src/onewire.c"
   1:src/onewire.c **** #include <stm32f4xx.h>
   2:src/onewire.c **** #include "include/gpio.h"
   3:src/onewire.c **** #include "include/delay.h"
   4:src/onewire.c **** #include "include/onewire.h"
   5:src/onewire.c **** 
   6:src/onewire.c **** inline void OW_Out(OWBus *bus)
   7:src/onewire.c **** {
  66              		.loc 1 7 0
  67              		.cfi_startproc
  68              		@ args = 0, pretend = 0, frame = 8
  69              		@ frame_needed = 1, uses_anonymous_args = 0
  70 0000 80B5     		push	{r7, lr}	@
  71              		.cfi_def_cfa_offset 8
  72              		.cfi_offset 7, -8
  73              		.cfi_offset 14, -4
  74 0002 82B0     		sub	sp, sp, #8	@,,
  75              		.cfi_def_cfa_offset 16
  76 0004 00AF     		add	r7, sp, #0	@,,
  77              		.cfi_def_cfa_register 7
  78 0006 7860     		str	r0, [r7, #4]	@ bus, bus
   8:src/onewire.c **** 	GPIO_ConfigPin(bus->gpio, bus->pin, GPIO_OUT_PP_50MHz);
  79              		.loc 1 8 0
  80 0008 7B68     		ldr	r3, [r7, #4]	@ tmp112, bus
  81 000a 1A68     		ldr	r2, [r3]	@ D.5390, bus_1(D)->gpio
  82 000c 7B68     		ldr	r3, [r7, #4]	@ tmp113, bus
  83 000e 5B68     		ldr	r3, [r3, #4]	@ D.5391, bus_1(D)->pin
  84 0010 1046     		mov	r0, r2	@, D.5390
  85 0012 1946     		mov	r1, r3	@, D.5391
  86 0014 40F20122 		movw	r2, #513	@,
  87 0018 FFF7FEFF 		bl	GPIO_ConfigPin	@
   9:src/onewire.c **** }
  88              		.loc 1 9 0
  89 001c 0837     		adds	r7, r7, #8	@,,
  90              		.cfi_def_cfa_offset 8
  91 001e BD46     		mov	sp, r7	@,
  92              		.cfi_def_cfa_register 13
  93              		@ sp needed	@
  94 0020 80BD     		pop	{r7, pc}	@
  95              		.cfi_endproc
  96              	.LFE110:
  97              		.size	OW_Out, .-OW_Out
  98 0022 00BF     		.section	.text.OW_In,"ax",%progbits
  99              		.align	2
 100              		.global	OW_In
 101              		.thumb
 102              		.thumb_func
 103              		.type	OW_In, %function
 104              	OW_In:
 105              	.LFB111:
ARM GAS  C:\Users\Daro\AppData\Local\Temp\ccbuSold.s 			page 3


  10:src/onewire.c **** 
  11:src/onewire.c **** inline void OW_In(OWBus *bus)
  12:src/onewire.c **** {
 106              		.loc 1 12 0
 107              		.cfi_startproc
 108              		@ args = 0, pretend = 0, frame = 8
 109              		@ frame_needed = 1, uses_anonymous_args = 0
 110 0000 80B5     		push	{r7, lr}	@
 111              		.cfi_def_cfa_offset 8
 112              		.cfi_offset 7, -8
 113              		.cfi_offset 14, -4
 114 0002 82B0     		sub	sp, sp, #8	@,,
 115              		.cfi_def_cfa_offset 16
 116 0004 00AF     		add	r7, sp, #0	@,,
 117              		.cfi_def_cfa_register 7
 118 0006 7860     		str	r0, [r7, #4]	@ bus, bus
  13:src/onewire.c **** 	GPIO_ConfigPin(bus->gpio, bus->pin, GPIO_IN_FLOATING);
 119              		.loc 1 13 0
 120 0008 7B68     		ldr	r3, [r7, #4]	@ tmp112, bus
 121 000a 1A68     		ldr	r2, [r3]	@ D.5392, bus_1(D)->gpio
 122 000c 7B68     		ldr	r3, [r7, #4]	@ tmp113, bus
 123 000e 5B68     		ldr	r3, [r3, #4]	@ D.5393, bus_1(D)->pin
 124 0010 1046     		mov	r0, r2	@, D.5392
 125 0012 1946     		mov	r1, r3	@, D.5393
 126 0014 0022     		movs	r2, #0	@,
 127 0016 FFF7FEFF 		bl	GPIO_ConfigPin	@
  14:src/onewire.c **** }
 128              		.loc 1 14 0
 129 001a 0837     		adds	r7, r7, #8	@,,
 130              		.cfi_def_cfa_offset 8
 131 001c BD46     		mov	sp, r7	@,
 132              		.cfi_def_cfa_register 13
 133              		@ sp needed	@
 134 001e 80BD     		pop	{r7, pc}	@
 135              		.cfi_endproc
 136              	.LFE111:
 137              		.size	OW_In, .-OW_In
 138              		.section	.text.OW_Set,"ax",%progbits
 139              		.align	2
 140              		.global	OW_Set
 141              		.thumb
 142              		.thumb_func
 143              		.type	OW_Set, %function
 144              	OW_Set:
 145              	.LFB112:
  15:src/onewire.c **** 
  16:src/onewire.c **** inline void OW_Set(OWBus *bus)
  17:src/onewire.c **** {
 146              		.loc 1 17 0
 147              		.cfi_startproc
 148              		@ args = 0, pretend = 0, frame = 8
 149              		@ frame_needed = 1, uses_anonymous_args = 0
 150              		@ link register save eliminated.
 151 0000 80B4     		push	{r7}	@
 152              		.cfi_def_cfa_offset 4
 153              		.cfi_offset 7, -4
 154 0002 83B0     		sub	sp, sp, #12	@,,
ARM GAS  C:\Users\Daro\AppData\Local\Temp\ccbuSold.s 			page 4


 155              		.cfi_def_cfa_offset 16
 156 0004 00AF     		add	r7, sp, #0	@,,
 157              		.cfi_def_cfa_register 7
 158 0006 7860     		str	r0, [r7, #4]	@ bus, bus
  18:src/onewire.c **** 	bus->gpio->ODR |= (1 << bus->pin);
 159              		.loc 1 18 0
 160 0008 7B68     		ldr	r3, [r7, #4]	@ tmp118, bus
 161 000a 1B68     		ldr	r3, [r3]	@ D.5394, bus_1(D)->gpio
 162 000c 7A68     		ldr	r2, [r7, #4]	@ tmp119, bus
 163 000e 1268     		ldr	r2, [r2]	@ D.5394, bus_1(D)->gpio
 164 0010 5269     		ldr	r2, [r2, #20]	@ D.5395, _3->ODR
 165 0012 7968     		ldr	r1, [r7, #4]	@ tmp120, bus
 166 0014 4968     		ldr	r1, [r1, #4]	@ D.5395, bus_1(D)->pin
 167 0016 0846     		mov	r0, r1	@ D.5396, D.5395
 168 0018 0121     		movs	r1, #1	@ tmp121,
 169 001a 8140     		lsls	r1, r1, r0	@ D.5396, tmp121, D.5396
 170 001c 0A43     		orrs	r2, r2, r1	@, D.5395, D.5395, D.5395
 171 001e 5A61     		str	r2, [r3, #20]	@ D.5395, _2->ODR
  19:src/onewire.c **** }
 172              		.loc 1 19 0
 173 0020 0C37     		adds	r7, r7, #12	@,,
 174              		.cfi_def_cfa_offset 4
 175 0022 BD46     		mov	sp, r7	@,
 176              		.cfi_def_cfa_register 13
 177              		@ sp needed	@
 178 0024 5DF8047B 		ldr	r7, [sp], #4	@,
 179              		.cfi_restore 7
 180              		.cfi_def_cfa_offset 0
 181 0028 7047     		bx	lr	@
 182              		.cfi_endproc
 183              	.LFE112:
 184              		.size	OW_Set, .-OW_Set
 185 002a 00BF     		.section	.text.OW_Clear,"ax",%progbits
 186              		.align	2
 187              		.global	OW_Clear
 188              		.thumb
 189              		.thumb_func
 190              		.type	OW_Clear, %function
 191              	OW_Clear:
 192              	.LFB113:
  20:src/onewire.c **** 
  21:src/onewire.c **** inline void OW_Clear(OWBus *bus)
  22:src/onewire.c **** {
 193              		.loc 1 22 0
 194              		.cfi_startproc
 195              		@ args = 0, pretend = 0, frame = 8
 196              		@ frame_needed = 1, uses_anonymous_args = 0
 197              		@ link register save eliminated.
 198 0000 80B4     		push	{r7}	@
 199              		.cfi_def_cfa_offset 4
 200              		.cfi_offset 7, -4
 201 0002 83B0     		sub	sp, sp, #12	@,,
 202              		.cfi_def_cfa_offset 16
 203 0004 00AF     		add	r7, sp, #0	@,,
 204              		.cfi_def_cfa_register 7
 205 0006 7860     		str	r0, [r7, #4]	@ bus, bus
  23:src/onewire.c **** 	bus->gpio->ODR &= ~(1 << bus->pin);
ARM GAS  C:\Users\Daro\AppData\Local\Temp\ccbuSold.s 			page 5


 206              		.loc 1 23 0
 207 0008 7B68     		ldr	r3, [r7, #4]	@ tmp119, bus
 208 000a 1B68     		ldr	r3, [r3]	@ D.5397, bus_1(D)->gpio
 209 000c 7A68     		ldr	r2, [r7, #4]	@ tmp120, bus
 210 000e 1268     		ldr	r2, [r2]	@ D.5397, bus_1(D)->gpio
 211 0010 5269     		ldr	r2, [r2, #20]	@ D.5398, _3->ODR
 212 0012 7968     		ldr	r1, [r7, #4]	@ tmp121, bus
 213 0014 4968     		ldr	r1, [r1, #4]	@ D.5398, bus_1(D)->pin
 214 0016 0846     		mov	r0, r1	@ D.5399, D.5398
 215 0018 0121     		movs	r1, #1	@ tmp122,
 216 001a 8140     		lsls	r1, r1, r0	@ D.5399, tmp122, D.5399
 217 001c C943     		mvns	r1, r1	@ D.5399, D.5399
 218 001e 0A40     		ands	r2, r2, r1	@, D.5398, D.5398, D.5398
 219 0020 5A61     		str	r2, [r3, #20]	@ D.5398, _2->ODR
  24:src/onewire.c **** }
 220              		.loc 1 24 0
 221 0022 0C37     		adds	r7, r7, #12	@,,
 222              		.cfi_def_cfa_offset 4
 223 0024 BD46     		mov	sp, r7	@,
 224              		.cfi_def_cfa_register 13
 225              		@ sp needed	@
 226 0026 5DF8047B 		ldr	r7, [sp], #4	@,
 227              		.cfi_restore 7
 228              		.cfi_def_cfa_offset 0
 229 002a 7047     		bx	lr	@
 230              		.cfi_endproc
 231              	.LFE113:
 232              		.size	OW_Clear, .-OW_Clear
 233              		.section	.text.OW_IsSet,"ax",%progbits
 234              		.align	2
 235              		.global	OW_IsSet
 236              		.thumb
 237              		.thumb_func
 238              		.type	OW_IsSet, %function
 239              	OW_IsSet:
 240              	.LFB114:
  25:src/onewire.c **** 
  26:src/onewire.c **** inline uint32_t OW_IsSet(OWBus *bus)
  27:src/onewire.c **** {
 241              		.loc 1 27 0
 242              		.cfi_startproc
 243              		@ args = 0, pretend = 0, frame = 8
 244              		@ frame_needed = 1, uses_anonymous_args = 0
 245              		@ link register save eliminated.
 246 0000 80B4     		push	{r7}	@
 247              		.cfi_def_cfa_offset 4
 248              		.cfi_offset 7, -4
 249 0002 83B0     		sub	sp, sp, #12	@,,
 250              		.cfi_def_cfa_offset 16
 251 0004 00AF     		add	r7, sp, #0	@,,
 252              		.cfi_def_cfa_register 7
 253 0006 7860     		str	r0, [r7, #4]	@ bus, bus
  28:src/onewire.c **** 	return bus->gpio->IDR & (1 << bus->pin);
 254              		.loc 1 28 0
 255 0008 7B68     		ldr	r3, [r7, #4]	@ tmp118, bus
 256 000a 1B68     		ldr	r3, [r3]	@ D.5400, bus_1(D)->gpio
 257 000c 1B69     		ldr	r3, [r3, #16]	@ D.5401, _2->IDR
ARM GAS  C:\Users\Daro\AppData\Local\Temp\ccbuSold.s 			page 6


 258 000e 7A68     		ldr	r2, [r7, #4]	@ tmp119, bus
 259 0010 5268     		ldr	r2, [r2, #4]	@ D.5401, bus_1(D)->pin
 260 0012 1146     		mov	r1, r2	@ D.5402, D.5401
 261 0014 0122     		movs	r2, #1	@ tmp120,
 262 0016 8A40     		lsls	r2, r2, r1	@ D.5402, tmp120, D.5402
 263 0018 1340     		ands	r3, r3, r2	@, D.5403, D.5401, D.5401
  29:src/onewire.c **** }
 264              		.loc 1 29 0
 265 001a 1846     		mov	r0, r3	@, <retval>
 266 001c 0C37     		adds	r7, r7, #12	@,,
 267              		.cfi_def_cfa_offset 4
 268 001e BD46     		mov	sp, r7	@,
 269              		.cfi_def_cfa_register 13
 270              		@ sp needed	@
 271 0020 5DF8047B 		ldr	r7, [sp], #4	@,
 272              		.cfi_restore 7
 273              		.cfi_def_cfa_offset 0
 274 0024 7047     		bx	lr	@
 275              		.cfi_endproc
 276              	.LFE114:
 277              		.size	OW_IsSet, .-OW_IsSet
 278 0026 00BF     		.section	.text.OW_Delay,"ax",%progbits
 279              		.align	2
 280              		.global	OW_Delay
 281              		.thumb
 282              		.thumb_func
 283              		.type	OW_Delay, %function
 284              	OW_Delay:
 285              	.LFB115:
  30:src/onewire.c **** 
  31:src/onewire.c **** inline void OW_Delay(OWBus *bus, uint32_t us)
  32:src/onewire.c **** {
 286              		.loc 1 32 0
 287              		.cfi_startproc
 288              		@ args = 0, pretend = 0, frame = 8
 289              		@ frame_needed = 1, uses_anonymous_args = 0
 290 0000 80B5     		push	{r7, lr}	@
 291              		.cfi_def_cfa_offset 8
 292              		.cfi_offset 7, -8
 293              		.cfi_offset 14, -4
 294 0002 82B0     		sub	sp, sp, #8	@,,
 295              		.cfi_def_cfa_offset 16
 296 0004 00AF     		add	r7, sp, #0	@,,
 297              		.cfi_def_cfa_register 7
 298 0006 7860     		str	r0, [r7, #4]	@ bus, bus
 299 0008 3960     		str	r1, [r7]	@ us, us
  33:src/onewire.c **** 	(void) bus;
  34:src/onewire.c **** 	delay_us(us);
 300              		.loc 1 34 0
 301 000a 3868     		ldr	r0, [r7]	@, us
 302 000c FFF7FEFF 		bl	delay_us	@
  35:src/onewire.c **** }
 303              		.loc 1 35 0
 304 0010 0837     		adds	r7, r7, #8	@,,
 305              		.cfi_def_cfa_offset 8
 306 0012 BD46     		mov	sp, r7	@,
 307              		.cfi_def_cfa_register 13
ARM GAS  C:\Users\Daro\AppData\Local\Temp\ccbuSold.s 			page 7


 308              		@ sp needed	@
 309 0014 80BD     		pop	{r7, pc}	@
 310              		.cfi_endproc
 311              	.LFE115:
 312              		.size	OW_Delay, .-OW_Delay
 313 0016 00BF     		.section	.text.OW_Init,"ax",%progbits
 314              		.align	2
 315              		.global	OW_Init
 316              		.thumb
 317              		.thumb_func
 318              		.type	OW_Init, %function
 319              	OW_Init:
 320              	.LFB116:
  36:src/onewire.c **** 
  37:src/onewire.c **** uint8_t OW_Init(OWBus *bus)
  38:src/onewire.c **** {
 321              		.loc 1 38 0
 322              		.cfi_startproc
 323              		@ args = 0, pretend = 0, frame = 16
 324              		@ frame_needed = 1, uses_anonymous_args = 0
 325 0000 80B5     		push	{r7, lr}	@
 326              		.cfi_def_cfa_offset 8
 327              		.cfi_offset 7, -8
 328              		.cfi_offset 14, -4
 329 0002 84B0     		sub	sp, sp, #16	@,,
 330              		.cfi_def_cfa_offset 24
 331 0004 00AF     		add	r7, sp, #0	@,,
 332              		.cfi_def_cfa_register 7
 333 0006 7860     		str	r0, [r7, #4]	@ bus, bus
  39:src/onewire.c **** 	uint8_t presence = 0;
 334              		.loc 1 39 0
 335 0008 0023     		movs	r3, #0	@ tmp115,
 336 000a FB73     		strb	r3, [r7, #15]	@ tmp116, presence
  40:src/onewire.c **** 
  41:src/onewire.c **** 	OW_Out(bus);
 337              		.loc 1 41 0
 338 000c 7868     		ldr	r0, [r7, #4]	@, bus
 339 000e FFF7FEFF 		bl	OW_Out	@
  42:src/onewire.c **** 	OW_Clear(bus);
 340              		.loc 1 42 0
 341 0012 7868     		ldr	r0, [r7, #4]	@, bus
 342 0014 FFF7FEFF 		bl	OW_Clear	@
  43:src/onewire.c **** 	OW_Delay(bus, 500);
 343              		.loc 1 43 0
 344 0018 7868     		ldr	r0, [r7, #4]	@, bus
 345 001a 4FF4FA71 		mov	r1, #500	@,
 346 001e FFF7FEFF 		bl	OW_Delay	@
  44:src/onewire.c **** 
  45:src/onewire.c **** 	OW_Set(bus);
 347              		.loc 1 45 0
 348 0022 7868     		ldr	r0, [r7, #4]	@, bus
 349 0024 FFF7FEFF 		bl	OW_Set	@
  46:src/onewire.c **** 	OW_Delay(bus, 70);
 350              		.loc 1 46 0
 351 0028 7868     		ldr	r0, [r7, #4]	@, bus
 352 002a 4621     		movs	r1, #70	@,
 353 002c FFF7FEFF 		bl	OW_Delay	@
ARM GAS  C:\Users\Daro\AppData\Local\Temp\ccbuSold.s 			page 8


  47:src/onewire.c **** 
  48:src/onewire.c **** 	OW_In(bus);
 354              		.loc 1 48 0
 355 0030 7868     		ldr	r0, [r7, #4]	@, bus
 356 0032 FFF7FEFF 		bl	OW_In	@
  49:src/onewire.c **** 	if (! OW_IsSet(bus))
 357              		.loc 1 49 0
 358 0036 7868     		ldr	r0, [r7, #4]	@, bus
 359 0038 FFF7FEFF 		bl	OW_IsSet	@
 360 003c 0346     		mov	r3, r0	@ D.5405,
 361 003e 002B     		cmp	r3, #0	@ D.5405,
 362 0040 01D1     		bne	.L9	@,
  50:src/onewire.c **** 		presence = 1;
 363              		.loc 1 50 0
 364 0042 0123     		movs	r3, #1	@ tmp117,
 365 0044 FB73     		strb	r3, [r7, #15]	@ tmp118, presence
 366              	.L9:
  51:src/onewire.c **** 
  52:src/onewire.c **** 	OW_Delay(bus, 500);
 367              		.loc 1 52 0
 368 0046 7868     		ldr	r0, [r7, #4]	@, bus
 369 0048 4FF4FA71 		mov	r1, #500	@,
 370 004c FFF7FEFF 		bl	OW_Delay	@
  53:src/onewire.c **** 
  54:src/onewire.c ****     return presence && OW_IsSet(bus);
 371              		.loc 1 54 0
 372 0050 FB7B     		ldrb	r3, [r7, #15]	@ zero_extendqisi2	@ tmp119, presence
 373 0052 002B     		cmp	r3, #0	@ tmp119,
 374 0054 07D0     		beq	.L10	@,
 375              		.loc 1 54 0 is_stmt 0 discriminator 1
 376 0056 7868     		ldr	r0, [r7, #4]	@, bus
 377 0058 FFF7FEFF 		bl	OW_IsSet	@
 378 005c 0346     		mov	r3, r0	@ D.5405,
 379 005e 002B     		cmp	r3, #0	@ D.5405,
 380 0060 01D0     		beq	.L10	@,
 381              		.loc 1 54 0 discriminator 3
 382 0062 0123     		movs	r3, #1	@ D.5404,
 383 0064 00E0     		b	.L11	@
 384              	.L10:
 385              		.loc 1 54 0 discriminator 4
 386 0066 0023     		movs	r3, #0	@ D.5404,
 387              	.L11:
 388              		.loc 1 54 0 discriminator 6
 389 0068 DBB2     		uxtb	r3, r3	@ D.5406, D.5404
  55:src/onewire.c **** }
 390              		.loc 1 55 0 is_stmt 1 discriminator 6
 391 006a 1846     		mov	r0, r3	@, <retval>
 392 006c 1037     		adds	r7, r7, #16	@,,
 393              		.cfi_def_cfa_offset 8
 394 006e BD46     		mov	sp, r7	@,
 395              		.cfi_def_cfa_register 13
 396              		@ sp needed	@
 397 0070 80BD     		pop	{r7, pc}	@
 398              		.cfi_endproc
 399              	.LFE116:
 400              		.size	OW_Init, .-OW_Init
 401 0072 00BF     		.section	.text.OW_Write0,"ax",%progbits
ARM GAS  C:\Users\Daro\AppData\Local\Temp\ccbuSold.s 			page 9


 402              		.align	2
 403              		.thumb
 404              		.thumb_func
 405              		.type	OW_Write0, %function
 406              	OW_Write0:
 407              	.LFB117:
  56:src/onewire.c **** 
  57:src/onewire.c **** static inline void OW_Write0(OWBus * bus)
  58:src/onewire.c **** {
 408              		.loc 1 58 0
 409              		.cfi_startproc
 410              		@ args = 0, pretend = 0, frame = 8
 411              		@ frame_needed = 1, uses_anonymous_args = 0
 412 0000 80B5     		push	{r7, lr}	@
 413              		.cfi_def_cfa_offset 8
 414              		.cfi_offset 7, -8
 415              		.cfi_offset 14, -4
 416 0002 82B0     		sub	sp, sp, #8	@,,
 417              		.cfi_def_cfa_offset 16
 418 0004 00AF     		add	r7, sp, #0	@,,
 419              		.cfi_def_cfa_register 7
 420 0006 7860     		str	r0, [r7, #4]	@ bus, bus
  59:src/onewire.c **** 	OW_Clear(bus);
 421              		.loc 1 59 0
 422 0008 7868     		ldr	r0, [r7, #4]	@, bus
 423 000a FFF7FEFF 		bl	OW_Clear	@
  60:src/onewire.c **** 	OW_Delay(bus, 70);
 424              		.loc 1 60 0
 425 000e 7868     		ldr	r0, [r7, #4]	@, bus
 426 0010 4621     		movs	r1, #70	@,
 427 0012 FFF7FEFF 		bl	OW_Delay	@
  61:src/onewire.c **** 	OW_Set(bus);
 428              		.loc 1 61 0
 429 0016 7868     		ldr	r0, [r7, #4]	@, bus
 430 0018 FFF7FEFF 		bl	OW_Set	@
  62:src/onewire.c **** 	OW_Delay(bus, 7);
 431              		.loc 1 62 0
 432 001c 7868     		ldr	r0, [r7, #4]	@, bus
 433 001e 0721     		movs	r1, #7	@,
 434 0020 FFF7FEFF 		bl	OW_Delay	@
  63:src/onewire.c **** }
 435              		.loc 1 63 0
 436 0024 0837     		adds	r7, r7, #8	@,,
 437              		.cfi_def_cfa_offset 8
 438 0026 BD46     		mov	sp, r7	@,
 439              		.cfi_def_cfa_register 13
 440              		@ sp needed	@
 441 0028 80BD     		pop	{r7, pc}	@
 442              		.cfi_endproc
 443              	.LFE117:
 444              		.size	OW_Write0, .-OW_Write0
 445 002a 00BF     		.section	.text.OW_Write1,"ax",%progbits
 446              		.align	2
 447              		.thumb
 448              		.thumb_func
 449              		.type	OW_Write1, %function
 450              	OW_Write1:
ARM GAS  C:\Users\Daro\AppData\Local\Temp\ccbuSold.s 			page 10


 451              	.LFB118:
  64:src/onewire.c **** 
  65:src/onewire.c **** static inline void OW_Write1(OWBus * bus)
  66:src/onewire.c **** {
 452              		.loc 1 66 0
 453              		.cfi_startproc
 454              		@ args = 0, pretend = 0, frame = 8
 455              		@ frame_needed = 1, uses_anonymous_args = 0
 456 0000 80B5     		push	{r7, lr}	@
 457              		.cfi_def_cfa_offset 8
 458              		.cfi_offset 7, -8
 459              		.cfi_offset 14, -4
 460 0002 82B0     		sub	sp, sp, #8	@,,
 461              		.cfi_def_cfa_offset 16
 462 0004 00AF     		add	r7, sp, #0	@,,
 463              		.cfi_def_cfa_register 7
 464 0006 7860     		str	r0, [r7, #4]	@ bus, bus
  67:src/onewire.c **** 	OW_Clear(bus);
 465              		.loc 1 67 0
 466 0008 7868     		ldr	r0, [r7, #4]	@, bus
 467 000a FFF7FEFF 		bl	OW_Clear	@
  68:src/onewire.c **** 	OW_Delay(bus, 7);
 468              		.loc 1 68 0
 469 000e 7868     		ldr	r0, [r7, #4]	@, bus
 470 0010 0721     		movs	r1, #7	@,
 471 0012 FFF7FEFF 		bl	OW_Delay	@
  69:src/onewire.c **** 	OW_Set(bus);
 472              		.loc 1 69 0
 473 0016 7868     		ldr	r0, [r7, #4]	@, bus
 474 0018 FFF7FEFF 		bl	OW_Set	@
  70:src/onewire.c **** 	OW_Delay(bus, 70);
 475              		.loc 1 70 0
 476 001c 7868     		ldr	r0, [r7, #4]	@, bus
 477 001e 4621     		movs	r1, #70	@,
 478 0020 FFF7FEFF 		bl	OW_Delay	@
  71:src/onewire.c **** }
 479              		.loc 1 71 0
 480 0024 0837     		adds	r7, r7, #8	@,,
 481              		.cfi_def_cfa_offset 8
 482 0026 BD46     		mov	sp, r7	@,
 483              		.cfi_def_cfa_register 13
 484              		@ sp needed	@
 485 0028 80BD     		pop	{r7, pc}	@
 486              		.cfi_endproc
 487              	.LFE118:
 488              		.size	OW_Write1, .-OW_Write1
 489 002a 00BF     		.section	.text.OW_WriteByte,"ax",%progbits
 490              		.align	2
 491              		.global	OW_WriteByte
 492              		.thumb
 493              		.thumb_func
 494              		.type	OW_WriteByte, %function
 495              	OW_WriteByte:
 496              	.LFB119:
  72:src/onewire.c **** 
  73:src/onewire.c **** void OW_WriteByte(OWBus *bus, uint8_t byte)
  74:src/onewire.c **** {
ARM GAS  C:\Users\Daro\AppData\Local\Temp\ccbuSold.s 			page 11


 497              		.loc 1 74 0
 498              		.cfi_startproc
 499              		@ args = 0, pretend = 0, frame = 16
 500              		@ frame_needed = 1, uses_anonymous_args = 0
 501 0000 80B5     		push	{r7, lr}	@
 502              		.cfi_def_cfa_offset 8
 503              		.cfi_offset 7, -8
 504              		.cfi_offset 14, -4
 505 0002 84B0     		sub	sp, sp, #16	@,,
 506              		.cfi_def_cfa_offset 24
 507 0004 00AF     		add	r7, sp, #0	@,,
 508              		.cfi_def_cfa_register 7
 509 0006 7860     		str	r0, [r7, #4]	@ bus, bus
 510 0008 0B46     		mov	r3, r1	@ tmp113, byte
 511 000a FB70     		strb	r3, [r7, #3]	@ tmp114, byte
  75:src/onewire.c **** 	uint8_t i;
  76:src/onewire.c **** 
  77:src/onewire.c **** 	OW_Out(bus);
 512              		.loc 1 77 0
 513 000c 7868     		ldr	r0, [r7, #4]	@, bus
 514 000e FFF7FEFF 		bl	OW_Out	@
  78:src/onewire.c **** 
  79:src/onewire.c **** 	for (i = 0; i < 8; i++)
 515              		.loc 1 79 0
 516 0012 0023     		movs	r3, #0	@ tmp115,
 517 0014 FB73     		strb	r3, [r7, #15]	@ tmp116, i
 518 0016 11E0     		b	.L16	@
 519              	.L19:
  80:src/onewire.c **** 	{
  81:src/onewire.c **** 		if (byte & 0x01)
 520              		.loc 1 81 0
 521 0018 FB78     		ldrb	r3, [r7, #3]	@ zero_extendqisi2	@ D.5407, byte
 522 001a 03F00103 		and	r3, r3, #1	@ D.5407, D.5407,
 523 001e 002B     		cmp	r3, #0	@ D.5407,
 524 0020 03D0     		beq	.L17	@,
  82:src/onewire.c **** 			OW_Write1(bus);
 525              		.loc 1 82 0
 526 0022 7868     		ldr	r0, [r7, #4]	@, bus
 527 0024 FFF7FEFF 		bl	OW_Write1	@
 528 0028 02E0     		b	.L18	@
 529              	.L17:
  83:src/onewire.c **** 		else
  84:src/onewire.c **** 			OW_Write0(bus);
 530              		.loc 1 84 0
 531 002a 7868     		ldr	r0, [r7, #4]	@, bus
 532 002c FFF7FEFF 		bl	OW_Write0	@
 533              	.L18:
  85:src/onewire.c **** 
  86:src/onewire.c **** 		byte >>= 1;
 534              		.loc 1 86 0 discriminator 2
 535 0030 FB78     		ldrb	r3, [r7, #3]	@ zero_extendqisi2	@ tmp117, byte
 536 0032 5B08     		lsrs	r3, r3, #1	@ tmp118, tmp117,
 537 0034 FB70     		strb	r3, [r7, #3]	@ tmp119, byte
  79:src/onewire.c **** 	{
 538              		.loc 1 79 0 discriminator 2
 539 0036 FB7B     		ldrb	r3, [r7, #15]	@ zero_extendqisi2	@ D.5408, i
 540 0038 0133     		adds	r3, r3, #1	@ tmp120, D.5408,
ARM GAS  C:\Users\Daro\AppData\Local\Temp\ccbuSold.s 			page 12


 541 003a FB73     		strb	r3, [r7, #15]	@ tmp121, i
 542              	.L16:
  79:src/onewire.c **** 	{
 543              		.loc 1 79 0 is_stmt 0 discriminator 1
 544 003c FB7B     		ldrb	r3, [r7, #15]	@ zero_extendqisi2	@ tmp122, i
 545 003e 072B     		cmp	r3, #7	@ tmp122,
 546 0040 EAD9     		bls	.L19	@,
  87:src/onewire.c **** 	}
  88:src/onewire.c **** }
 547              		.loc 1 88 0 is_stmt 1
 548 0042 1037     		adds	r7, r7, #16	@,,
 549              		.cfi_def_cfa_offset 8
 550 0044 BD46     		mov	sp, r7	@,
 551              		.cfi_def_cfa_register 13
 552              		@ sp needed	@
 553 0046 80BD     		pop	{r7, pc}	@
 554              		.cfi_endproc
 555              	.LFE119:
 556              		.size	OW_WriteByte, .-OW_WriteByte
 557              		.section	.text.OW_ReadByte,"ax",%progbits
 558              		.align	2
 559              		.global	OW_ReadByte
 560              		.thumb
 561              		.thumb_func
 562              		.type	OW_ReadByte, %function
 563              	OW_ReadByte:
 564              	.LFB120:
  89:src/onewire.c **** 
  90:src/onewire.c **** uint8_t OW_ReadByte(OWBus *bus)
  91:src/onewire.c **** {
 565              		.loc 1 91 0
 566              		.cfi_startproc
 567              		@ args = 0, pretend = 0, frame = 16
 568              		@ frame_needed = 1, uses_anonymous_args = 0
 569 0000 80B5     		push	{r7, lr}	@
 570              		.cfi_def_cfa_offset 8
 571              		.cfi_offset 7, -8
 572              		.cfi_offset 14, -4
 573 0002 84B0     		sub	sp, sp, #16	@,,
 574              		.cfi_def_cfa_offset 24
 575 0004 00AF     		add	r7, sp, #0	@,,
 576              		.cfi_def_cfa_register 7
 577 0006 7860     		str	r0, [r7, #4]	@ bus, bus
  92:src/onewire.c **** 	uint8_t i, byte = 0;
 578              		.loc 1 92 0
 579 0008 0023     		movs	r3, #0	@ tmp114,
 580 000a BB73     		strb	r3, [r7, #14]	@ tmp115, byte
  93:src/onewire.c **** 
  94:src/onewire.c **** 	for (i = 0; i < 8; i++)
 581              		.loc 1 94 0
 582 000c 0023     		movs	r3, #0	@ tmp116,
 583 000e FB73     		strb	r3, [r7, #15]	@ tmp117, i
 584 0010 27E0     		b	.L21	@
 585              	.L23:
  95:src/onewire.c **** 	{
  96:src/onewire.c **** 		byte >>= 1;
 586              		.loc 1 96 0
ARM GAS  C:\Users\Daro\AppData\Local\Temp\ccbuSold.s 			page 13


 587 0012 BB7B     		ldrb	r3, [r7, #14]	@ zero_extendqisi2	@ tmp118, byte
 588 0014 5B08     		lsrs	r3, r3, #1	@ tmp119, tmp118,
 589 0016 BB73     		strb	r3, [r7, #14]	@ tmp120, byte
  97:src/onewire.c **** 
  98:src/onewire.c **** 		OW_Out(bus);
 590              		.loc 1 98 0
 591 0018 7868     		ldr	r0, [r7, #4]	@, bus
 592 001a FFF7FEFF 		bl	OW_Out	@
  99:src/onewire.c **** 		OW_Clear(bus);
 593              		.loc 1 99 0
 594 001e 7868     		ldr	r0, [r7, #4]	@, bus
 595 0020 FFF7FEFF 		bl	OW_Clear	@
 100:src/onewire.c **** 		OW_Delay(bus, 3);
 596              		.loc 1 100 0
 597 0024 7868     		ldr	r0, [r7, #4]	@, bus
 598 0026 0321     		movs	r1, #3	@,
 599 0028 FFF7FEFF 		bl	OW_Delay	@
 101:src/onewire.c **** 		OW_Set(bus);
 600              		.loc 1 101 0
 601 002c 7868     		ldr	r0, [r7, #4]	@, bus
 602 002e FFF7FEFF 		bl	OW_Set	@
 102:src/onewire.c **** 		OW_Delay(bus, 7);
 603              		.loc 1 102 0
 604 0032 7868     		ldr	r0, [r7, #4]	@, bus
 605 0034 0721     		movs	r1, #7	@,
 606 0036 FFF7FEFF 		bl	OW_Delay	@
 103:src/onewire.c **** 
 104:src/onewire.c **** 		OW_In(bus);
 607              		.loc 1 104 0
 608 003a 7868     		ldr	r0, [r7, #4]	@, bus
 609 003c FFF7FEFF 		bl	OW_In	@
 105:src/onewire.c ****     	if(OW_IsSet(bus))
 610              		.loc 1 105 0
 611 0040 7868     		ldr	r0, [r7, #4]	@, bus
 612 0042 FFF7FEFF 		bl	OW_IsSet	@
 613 0046 0346     		mov	r3, r0	@ D.5409,
 614 0048 002B     		cmp	r3, #0	@ D.5409,
 615 004a 03D0     		beq	.L22	@,
 106:src/onewire.c ****     		byte |= 0x80;
 616              		.loc 1 106 0
 617 004c BB7B     		ldrb	r3, [r7, #14]	@ tmp121, byte
 618 004e 63F07F03 		orn	r3, r3, #127	@ tmp122, tmp121,
 619 0052 BB73     		strb	r3, [r7, #14]	@ tmp123, byte
 620              	.L22:
 107:src/onewire.c **** 
 108:src/onewire.c ****     	OW_Delay(bus, 70);
 621              		.loc 1 108 0 discriminator 2
 622 0054 7868     		ldr	r0, [r7, #4]	@, bus
 623 0056 4621     		movs	r1, #70	@,
 624 0058 FFF7FEFF 		bl	OW_Delay	@
  94:src/onewire.c **** 	{
 625              		.loc 1 94 0 discriminator 2
 626 005c FB7B     		ldrb	r3, [r7, #15]	@ zero_extendqisi2	@ D.5410, i
 627 005e 0133     		adds	r3, r3, #1	@ tmp124, D.5410,
 628 0060 FB73     		strb	r3, [r7, #15]	@ tmp125, i
 629              	.L21:
  94:src/onewire.c **** 	{
ARM GAS  C:\Users\Daro\AppData\Local\Temp\ccbuSold.s 			page 14


 630              		.loc 1 94 0 is_stmt 0 discriminator 1
 631 0062 FB7B     		ldrb	r3, [r7, #15]	@ zero_extendqisi2	@ tmp126, i
 632 0064 072B     		cmp	r3, #7	@ tmp126,
 633 0066 D4D9     		bls	.L23	@,
 109:src/onewire.c **** 	}
 110:src/onewire.c **** 
 111:src/onewire.c **** 	return byte;
 634              		.loc 1 111 0 is_stmt 1
 635 0068 BB7B     		ldrb	r3, [r7, #14]	@ zero_extendqisi2	@ D.5411, byte
 112:src/onewire.c **** }
 636              		.loc 1 112 0
 637 006a 1846     		mov	r0, r3	@, <retval>
 638 006c 1037     		adds	r7, r7, #16	@,,
 639              		.cfi_def_cfa_offset 8
 640 006e BD46     		mov	sp, r7	@,
 641              		.cfi_def_cfa_register 13
 642              		@ sp needed	@
 643 0070 80BD     		pop	{r7, pc}	@
 644              		.cfi_endproc
 645              	.LFE120:
 646              		.size	OW_ReadByte, .-OW_ReadByte
 647 0072 00BF     		.text
 648              	.Letext0:
 649              		.file 2 "c:\\dev\\arm\\gcc-arm-none-eabi-4_9-141220\\arm-none-eabi\\include\\machine\\_default_typ
 650              		.file 3 "c:\\dev\\arm\\gcc-arm-none-eabi-4_9-141220\\arm-none-eabi\\include\\stdint.h"
 651              		.file 4 "C:\\DEV\\arm\\lib\\stm32f4xx/stm32f4xx.h"
 652              		.file 5 "./include/onewire.h"
 653              		.file 6 "./include/delay.h"
 654              		.file 7 "C:\\DEV\\arm\\lib\\cmsis/core_cm4.h"