ARM GAS  C:\Users\Daro\AppData\Local\Temp\ccMicR6A.s 			page 1


   1              		.syntax unified
   2              		.cpu cortex-m4
   3              		.eabi_attribute 27, 3	@ Tag_ABI_HardFP_use
   4              		.eabi_attribute 28, 1	@ Tag_ABI_VFP_args
   5              		.fpu fpv4-sp-d16
   6              		.eabi_attribute 23, 1	@ Tag_ABI_FP_number_model
   7              		.eabi_attribute 24, 1	@ Tag_ABI_align8_needed
   8              		.eabi_attribute 25, 1	@ Tag_ABI_align8_preserved
   9              		.eabi_attribute 26, 1	@ Tag_ABI_enum_size
  10              		.eabi_attribute 30, 6	@ Tag_ABI_optimization_goals
  11              		.eabi_attribute 34, 1	@ Tag_CPU_unaligned_access
  12              		.eabi_attribute 18, 4	@ Tag_ABI_PCS_wchar_t
  13              		.file	"queue.c"
  14              	@ GNU C (GNU Tools for ARM Embedded Processors / bleeding-edge-toolchain-141220) version 4.9.3 2014
  15              	@	compiled by GNU C version 4.9.2, GMP version 6.0.0, MPFR version 3.1.2, MPC version 1.0.2
  16              	@ GGC heuristics: --param ggc-min-expand=100 --param ggc-min-heapsize=131072
  17              	@ options passed:  -I . -I C:\DEV\arm\lib\cmsis -I C:\DEV\arm\lib\stm32f4xx
  18              	@ -I include -imultilib armv7e-m/fpu
  19              	@ -iprefix c:\dev\arm\gcc-arm-none-eabi-4_9-141220\bin\../lib/gcc/arm-none-eabi/4.9.3/
  20              	@ -isysroot c:\dev\arm\gcc-arm-none-eabi-4_9-141220\bin\../arm-none-eabi
  21              	@ -MD bin/queue.d -MF bin/queue.d -MP -MQ bin/queue.o -D__USES_INITFINI__
  22              	@ -D STM32F4XX -D ARM_MATH_CM4 -D __FPU_PRESENT src/queue.c -mcpu=cortex-m4
  23              	@ -mthumb -mfloat-abi=hard -mfpu=fpv4-sp-d16 -auxbase-strip bin/queue.o -g
  24              	@ -ggdb3 -O0 -Wall -Wstrict-prototypes -Wextra -std=c99 -ffast-math
  25              	@ -ffunction-sections -fdata-sections -fverbose-asm
  26              	@ options enabled:  -faggressive-loop-optimizations -fassociative-math
  27              	@ -fauto-inc-dec -fcommon -fcx-limited-range -fdata-sections
  28              	@ -fdelete-null-pointer-checks -fdwarf2-cfi-asm -fearly-inlining
  29              	@ -feliminate-unused-debug-types -ffinite-math-only -ffunction-cse
  30              	@ -ffunction-sections -fgcse-lm -fgnu-runtime -fgnu-unique -fident
  31              	@ -finline-atomics -fira-hoist-pressure -fira-share-save-slots
  32              	@ -fira-share-spill-slots -fivopts -fkeep-static-consts
  33              	@ -fleading-underscore -fmerge-debug-strings -fpeephole
  34              	@ -fprefetch-loop-arrays -freciprocal-math -freg-struct-return
  35              	@ -fsched-critical-path-heuristic -fsched-dep-count-heuristic
  36              	@ -fsched-group-heuristic -fsched-interblock -fsched-last-insn-heuristic
  37              	@ -fsched-rank-heuristic -fsched-spec -fsched-spec-insn-heuristic
  38              	@ -fsched-stalled-insns-dep -fshow-column -fsplit-ivs-in-unroller
  39              	@ -fstrict-volatile-bitfields -fsync-libcalls -ftree-coalesce-vars
  40              	@ -ftree-cselim -ftree-forwprop -ftree-loop-if-convert -ftree-loop-im
  41              	@ -ftree-loop-ivcanon -ftree-loop-optimize -ftree-parallelize-loops=
  42              	@ -ftree-phiprop -ftree-reassoc -ftree-scev-cprop -funit-at-a-time
  43              	@ -funsafe-math-optimizations -fverbose-asm -fzero-initialized-in-bss
  44              	@ -mlittle-endian -mlra -mpic-data-is-text-relative -msched-prolog -mthumb
  45              	@ -munaligned-access -mvectorize-with-neon-quad
  46              	
  47              		.text
  48              	.Ltext0:
  49              		.cfi_sections	.debug_frame
  50              		.section	.text.queueInit,"ax",%progbits
  51              		.align	2
  52              		.global	queueInit
  53              		.thumb
  54              		.thumb_func
  55              		.type	queueInit, %function
  56              	queueInit:
  57              	.LFB0:
ARM GAS  C:\Users\Daro\AppData\Local\Temp\ccMicR6A.s 			page 2


  58              		.file 1 "src/queue.c"
   1:src/queue.c   **** #include "include/queue.h"
   2:src/queue.c   **** 
   3:src/queue.c   **** void queueInit(Queue * q)
   4:src/queue.c   **** {
  59              		.loc 1 4 0
  60              		.cfi_startproc
  61              		@ args = 0, pretend = 0, frame = 8
  62              		@ frame_needed = 1, uses_anonymous_args = 0
  63              		@ link register save eliminated.
  64 0000 80B4     		push	{r7}	@
  65              		.cfi_def_cfa_offset 4
  66              		.cfi_offset 7, -4
  67 0002 83B0     		sub	sp, sp, #12	@,,
  68              		.cfi_def_cfa_offset 16
  69 0004 00AF     		add	r7, sp, #0	@,,
  70              		.cfi_def_cfa_register 7
  71 0006 7860     		str	r0, [r7, #4]	@ q, q
   5:src/queue.c   **** 	q->head = q->tail = 0;
  72              		.loc 1 5 0
  73 0008 0023     		movs	r3, #0	@ D.4062,
  74 000a 7A68     		ldr	r2, [r7, #4]	@ tmp111, q
  75 000c C2F80431 		str	r3, [r2, #260]	@ D.4062, q_2(D)->tail
  76 0010 7A68     		ldr	r2, [r7, #4]	@ tmp112, q
  77 0012 C2F80031 		str	r3, [r2, #256]	@ D.4062, q_2(D)->head
   6:src/queue.c   **** }
  78              		.loc 1 6 0
  79 0016 0C37     		adds	r7, r7, #12	@,,
  80              		.cfi_def_cfa_offset 4
  81 0018 BD46     		mov	sp, r7	@,
  82              		.cfi_def_cfa_register 13
  83              		@ sp needed	@
  84 001a 5DF8047B 		ldr	r7, [sp], #4	@,
  85              		.cfi_restore 7
  86              		.cfi_def_cfa_offset 0
  87 001e 7047     		bx	lr	@
  88              		.cfi_endproc
  89              	.LFE0:
  90              		.size	queueInit, .-queueInit
  91              		.section	.text.queueIsEmpty,"ax",%progbits
  92              		.align	2
  93              		.global	queueIsEmpty
  94              		.thumb
  95              		.thumb_func
  96              		.type	queueIsEmpty, %function
  97              	queueIsEmpty:
  98              	.LFB1:
   7:src/queue.c   **** 
   8:src/queue.c   **** uint8_t queueIsEmpty(Queue * q)
   9:src/queue.c   **** {
  99              		.loc 1 9 0
 100              		.cfi_startproc
 101              		@ args = 0, pretend = 0, frame = 8
 102              		@ frame_needed = 1, uses_anonymous_args = 0
 103              		@ link register save eliminated.
 104 0000 80B4     		push	{r7}	@
 105              		.cfi_def_cfa_offset 4
ARM GAS  C:\Users\Daro\AppData\Local\Temp\ccMicR6A.s 			page 3


 106              		.cfi_offset 7, -4
 107 0002 83B0     		sub	sp, sp, #12	@,,
 108              		.cfi_def_cfa_offset 16
 109 0004 00AF     		add	r7, sp, #0	@,,
 110              		.cfi_def_cfa_register 7
 111 0006 7860     		str	r0, [r7, #4]	@ q, q
  10:src/queue.c   **** 	return (q->head == q->tail);
 112              		.loc 1 10 0
 113 0008 7B68     		ldr	r3, [r7, #4]	@ tmp115, q
 114 000a D3F80021 		ldr	r2, [r3, #256]	@ D.4063, q_1(D)->head
 115 000e 7B68     		ldr	r3, [r7, #4]	@ tmp116, q
 116 0010 D3F80431 		ldr	r3, [r3, #260]	@ D.4063, q_1(D)->tail
 117 0014 9A42     		cmp	r2, r3	@ D.4063, D.4063
 118 0016 0CBF     		ite	eq
 119 0018 0123     		moveq	r3, #1	@ tmp118,
 120 001a 0023     		movne	r3, #0	@ tmp118,
 121 001c DBB2     		uxtb	r3, r3	@ D.4064, tmp117
  11:src/queue.c   **** }
 122              		.loc 1 11 0
 123 001e 1846     		mov	r0, r3	@, <retval>
 124 0020 0C37     		adds	r7, r7, #12	@,,
 125              		.cfi_def_cfa_offset 4
 126 0022 BD46     		mov	sp, r7	@,
 127              		.cfi_def_cfa_register 13
 128              		@ sp needed	@
 129 0024 5DF8047B 		ldr	r7, [sp], #4	@,
 130              		.cfi_restore 7
 131              		.cfi_def_cfa_offset 0
 132 0028 7047     		bx	lr	@
 133              		.cfi_endproc
 134              	.LFE1:
 135              		.size	queueIsEmpty, .-queueIsEmpty
 136 002a 00BF     		.section	.text.queueIsFull,"ax",%progbits
 137              		.align	2
 138              		.global	queueIsFull
 139              		.thumb
 140              		.thumb_func
 141              		.type	queueIsFull, %function
 142              	queueIsFull:
 143              	.LFB2:
  12:src/queue.c   **** 
  13:src/queue.c   **** uint8_t queueIsFull(Queue * q)
  14:src/queue.c   **** {
 144              		.loc 1 14 0
 145              		.cfi_startproc
 146              		@ args = 0, pretend = 0, frame = 8
 147              		@ frame_needed = 1, uses_anonymous_args = 0
 148              		@ link register save eliminated.
 149 0000 80B4     		push	{r7}	@
 150              		.cfi_def_cfa_offset 4
 151              		.cfi_offset 7, -4
 152 0002 83B0     		sub	sp, sp, #12	@,,
 153              		.cfi_def_cfa_offset 16
 154 0004 00AF     		add	r7, sp, #0	@,,
 155              		.cfi_def_cfa_register 7
 156 0006 7860     		str	r0, [r7, #4]	@ q, q
  15:src/queue.c   **** 	return ((q->tail - QUEUE_SIZE) == q->head);
ARM GAS  C:\Users\Daro\AppData\Local\Temp\ccMicR6A.s 			page 4


 157              		.loc 1 15 0
 158 0008 7B68     		ldr	r3, [r7, #4]	@ tmp116, q
 159 000a D3F80431 		ldr	r3, [r3, #260]	@ D.4066, q_1(D)->tail
 160 000e A3F58072 		sub	r2, r3, #256	@ D.4066, D.4066,
 161 0012 7B68     		ldr	r3, [r7, #4]	@ tmp117, q
 162 0014 D3F80031 		ldr	r3, [r3, #256]	@ D.4066, q_1(D)->head
 163 0018 9A42     		cmp	r2, r3	@ D.4066, D.4066
 164 001a 0CBF     		ite	eq
 165 001c 0123     		moveq	r3, #1	@ tmp119,
 166 001e 0023     		movne	r3, #0	@ tmp119,
 167 0020 DBB2     		uxtb	r3, r3	@ D.4067, tmp118
  16:src/queue.c   **** }
 168              		.loc 1 16 0
 169 0022 1846     		mov	r0, r3	@, <retval>
 170 0024 0C37     		adds	r7, r7, #12	@,,
 171              		.cfi_def_cfa_offset 4
 172 0026 BD46     		mov	sp, r7	@,
 173              		.cfi_def_cfa_register 13
 174              		@ sp needed	@
 175 0028 5DF8047B 		ldr	r7, [sp], #4	@,
 176              		.cfi_restore 7
 177              		.cfi_def_cfa_offset 0
 178 002c 7047     		bx	lr	@
 179              		.cfi_endproc
 180              	.LFE2:
 181              		.size	queueIsFull, .-queueIsFull
 182 002e 00BF     		.section	.text.queueAdd,"ax",%progbits
 183              		.align	2
 184              		.global	queueAdd
 185              		.thumb
 186              		.thumb_func
 187              		.type	queueAdd, %function
 188              	queueAdd:
 189              	.LFB3:
  17:src/queue.c   **** 
  18:src/queue.c   **** uint8_t queueAdd(Queue * q, uint8_t c)
  19:src/queue.c   **** {
 190              		.loc 1 19 0
 191              		.cfi_startproc
 192              		@ args = 0, pretend = 0, frame = 8
 193              		@ frame_needed = 1, uses_anonymous_args = 0
 194 0000 80B5     		push	{r7, lr}	@
 195              		.cfi_def_cfa_offset 8
 196              		.cfi_offset 7, -8
 197              		.cfi_offset 14, -4
 198 0002 82B0     		sub	sp, sp, #8	@,,
 199              		.cfi_def_cfa_offset 16
 200 0004 00AF     		add	r7, sp, #0	@,,
 201              		.cfi_def_cfa_register 7
 202 0006 7860     		str	r0, [r7, #4]	@ q, q
 203 0008 0B46     		mov	r3, r1	@ tmp117, c
 204 000a FB70     		strb	r3, [r7, #3]	@ tmp118, c
  20:src/queue.c   **** 	if (queueIsFull(q))
 205              		.loc 1 20 0
 206 000c 7868     		ldr	r0, [r7, #4]	@, q
 207 000e FFF7FEFF 		bl	queueIsFull	@
 208 0012 0346     		mov	r3, r0	@ tmp119,
ARM GAS  C:\Users\Daro\AppData\Local\Temp\ccMicR6A.s 			page 5


 209 0014 002B     		cmp	r3, #0	@ D.4070,
 210 0016 01D0     		beq	.L7	@,
  21:src/queue.c   **** 		return 0;
 211              		.loc 1 21 0
 212 0018 0023     		movs	r3, #0	@ D.4069,
 213 001a 0EE0     		b	.L8	@
 214              	.L7:
  22:src/queue.c   **** 
  23:src/queue.c   **** 	q->tail++;
 215              		.loc 1 23 0
 216 001c 7B68     		ldr	r3, [r7, #4]	@ tmp120, q
 217 001e D3F80431 		ldr	r3, [r3, #260]	@ D.4071, q_2(D)->tail
 218 0022 5A1C     		adds	r2, r3, #1	@ D.4071, D.4071,
 219 0024 7B68     		ldr	r3, [r7, #4]	@ tmp121, q
 220 0026 C3F80421 		str	r2, [r3, #260]	@ D.4071, q_2(D)->tail
  24:src/queue.c   **** 	q->data[q->tail % QUEUE_SIZE] = c;
 221              		.loc 1 24 0
 222 002a 7B68     		ldr	r3, [r7, #4]	@ tmp122, q
 223 002c D3F80431 		ldr	r3, [r3, #260]	@ D.4071, q_2(D)->tail
 224 0030 DBB2     		uxtb	r3, r3	@ D.4071, D.4071
 225 0032 7A68     		ldr	r2, [r7, #4]	@ tmp123, q
 226 0034 F978     		ldrb	r1, [r7, #3]	@ tmp124, c
 227 0036 D154     		strb	r1, [r2, r3]	@ tmp124, q_2(D)->data
  25:src/queue.c   **** 
  26:src/queue.c   **** 	return 1;
 228              		.loc 1 26 0
 229 0038 0123     		movs	r3, #1	@ D.4069,
 230              	.L8:
  27:src/queue.c   **** }
 231              		.loc 1 27 0
 232 003a 1846     		mov	r0, r3	@, <retval>
 233 003c 0837     		adds	r7, r7, #8	@,,
 234              		.cfi_def_cfa_offset 8
 235 003e BD46     		mov	sp, r7	@,
 236              		.cfi_def_cfa_register 13
 237              		@ sp needed	@
 238 0040 80BD     		pop	{r7, pc}	@
 239              		.cfi_endproc
 240              	.LFE3:
 241              		.size	queueAdd, .-queueAdd
 242 0042 00BF     		.section	.text.queueDelete,"ax",%progbits
 243              		.align	2
 244              		.global	queueDelete
 245              		.thumb
 246              		.thumb_func
 247              		.type	queueDelete, %function
 248              	queueDelete:
 249              	.LFB4:
  28:src/queue.c   **** 
  29:src/queue.c   **** uint8_t queueDelete(Queue * q)
  30:src/queue.c   **** {
 250              		.loc 1 30 0
 251              		.cfi_startproc
 252              		@ args = 0, pretend = 0, frame = 8
 253              		@ frame_needed = 1, uses_anonymous_args = 0
 254 0000 80B5     		push	{r7, lr}	@
 255              		.cfi_def_cfa_offset 8
ARM GAS  C:\Users\Daro\AppData\Local\Temp\ccMicR6A.s 			page 6


 256              		.cfi_offset 7, -8
 257              		.cfi_offset 14, -4
 258 0002 82B0     		sub	sp, sp, #8	@,,
 259              		.cfi_def_cfa_offset 16
 260 0004 00AF     		add	r7, sp, #0	@,,
 261              		.cfi_def_cfa_register 7
 262 0006 7860     		str	r0, [r7, #4]	@ q, q
  31:src/queue.c   **** 	if (queueIsEmpty(q))
 263              		.loc 1 31 0
 264 0008 7868     		ldr	r0, [r7, #4]	@, q
 265 000a FFF7FEFF 		bl	queueIsEmpty	@
 266 000e 0346     		mov	r3, r0	@ tmp117,
 267 0010 002B     		cmp	r3, #0	@ D.4073,
 268 0012 01D0     		beq	.L10	@,
  32:src/queue.c   **** 		return '\0';
 269              		.loc 1 32 0
 270 0014 0023     		movs	r3, #0	@ D.4072,
 271 0016 0DE0     		b	.L11	@
 272              	.L10:
  33:src/queue.c   **** 	else
  34:src/queue.c   **** 	{
  35:src/queue.c   **** 		q->head++;
 273              		.loc 1 35 0
 274 0018 7B68     		ldr	r3, [r7, #4]	@ tmp118, q
 275 001a D3F80031 		ldr	r3, [r3, #256]	@ D.4074, q_2(D)->head
 276 001e 5A1C     		adds	r2, r3, #1	@ D.4074, D.4074,
 277 0020 7B68     		ldr	r3, [r7, #4]	@ tmp119, q
 278 0022 C3F80021 		str	r2, [r3, #256]	@ D.4074, q_2(D)->head
  36:src/queue.c   **** 		return q->data[q->head % QUEUE_SIZE];
 279              		.loc 1 36 0
 280 0026 7B68     		ldr	r3, [r7, #4]	@ tmp120, q
 281 0028 D3F80031 		ldr	r3, [r3, #256]	@ D.4074, q_2(D)->head
 282 002c DBB2     		uxtb	r3, r3	@ D.4074, D.4074
 283 002e 7A68     		ldr	r2, [r7, #4]	@ tmp121, q
 284 0030 D35C     		ldrb	r3, [r2, r3]	@ tmp123, q_2(D)->data
 285 0032 DBB2     		uxtb	r3, r3	@ D.4072, tmp123
 286              	.L11:
  37:src/queue.c   **** 	}
  38:src/queue.c   **** }
 287              		.loc 1 38 0
 288 0034 1846     		mov	r0, r3	@, <retval>
 289 0036 0837     		adds	r7, r7, #8	@,,
 290              		.cfi_def_cfa_offset 8
 291 0038 BD46     		mov	sp, r7	@,
 292              		.cfi_def_cfa_register 13
 293              		@ sp needed	@
 294 003a 80BD     		pop	{r7, pc}	@
 295              		.cfi_endproc
 296              	.LFE4:
 297              		.size	queueDelete, .-queueDelete
 298              		.text
 299              	.Letext0:
 300              		.file 2 "c:\\dev\\arm\\gcc-arm-none-eabi-4_9-141220\\arm-none-eabi\\include\\machine\\_default_typ
 301              		.file 3 "c:\\dev\\arm\\gcc-arm-none-eabi-4_9-141220\\arm-none-eabi\\include\\stdint.h"
 302              		.file 4 "./include/queue.h"