ARM GAS  C:\Users\Daro\AppData\Local\Temp\ccMicR6A.s 			page 1


   1              		.syntax unified
   2              		.cpu cortex-m4
   3              		.eabi_attribute 27, 3	@ Tag_ABI_HardFP_use
   4              		.eabi_attribute 28, 1	@ Tag_ABI_VFP_args
   5              		.fpu fpv4-sp-d16
   6              		.eabi_attribute 23, 1	@ Tag_ABI_FP_number_model
   7              		.eabi_attribute 24, 1	@ Tag_ABI_align8_needed
   8              		.eabi_attribute 25, 1	@ Tag_ABI_align8_preserved
   9              		.eabi_attribute 26, 1	@ Tag_ABI_enum_size
  10              		.eabi_attribute 30, 6	@ Tag_ABI_optimization_goals
  11              		.eabi_attribute 34, 1	@ Tag_CPU_unaligned_access
  12              		.eabi_attribute 18, 4	@ Tag_ABI_PCS_wchar_t
  13              		.file	"queue.c"
  14              	@ GNU C (GNU Tools for ARM Embedded Processors / bleeding-edge-toolchain-141220) version 4.9.3 2014
  15              	@	compiled by GNU C version 4.9.2, GMP version 6.0.0, MPFR version 3.1.2, MPC version 1.0.2
  16              	@ GGC heuristics: --param ggc-min-expand=100 --param ggc-min-heapsize=131072
  17              	@ options passed:  -I . -I C:\DEV\arm\lib\cmsis -I C:\DEV\arm\lib\stm32f4xx
  18              	@ -I include -imultilib armv7e-m/fpu
  19              	@ -iprefix c:\dev\arm\gcc-arm-none-eabi-4_9-141220\bin\../lib/gcc/arm-none-eabi/4.9.3/
  20              	@ -isysroot c:\dev\arm\gcc-arm-none-eabi-4_9-141220\bin\../arm-none-eabi
  21              	@ -MD bin/queue.d -MF bin/queue.d -MP -MQ bin/queue.o -D__USES_INITFINI__
  22              	@ -D STM32F4XX -D ARM_MATH_CM4 -D __FPU_PRESENT src/queue.c -mcpu=cortex-m4
  23              	@ -mthumb -mfloat-abi=hard -mfpu=fpv4-sp-d16 -auxbase-strip bin/queue.o -g
  24              	@ -ggdb3 -O0 -Wall -Wstrict-prototypes -Wextra -std=c99 -ffast-math
  25              	@ -ffunction-sections -fdata-sections -fverbose-asm
  26              	@ options enabled:  -faggressive-loop-optimizations -fassociative-math
  27              	@ -fauto-inc-dec -fcommon -fcx-limited-range -fdata-sections
  28              	@ -fdelete-null-pointer-checks -fdwarf2-cfi-asm -fearly-inlining
  29              	@ -feliminate-unused-debug-types -ffinite-math-only -ffunction-cse
  30              	@ -ffunction-sections -fgcse-lm -fgnu-runtime -fgnu-unique -fident
  31              	@ -finline-atomics -fira-hoist-pressure -fira-share-save-slots
  32              	@ -fira-share-spill-slots -fivopts -fkeep-static-consts
  33              	@ -fleading-underscore -fmerge-debug-strings -fpeephole
  34              	@ -fprefetch-loop-arrays -freciprocal-math -freg-struct-return
  35              	@ -fsched-critical-path-heuristic -fsched-dep-count-heuristic
  36              	@ -fsched-group-heuristic -fsched-interblock -fsched-last-insn-heuristic
  37              	@ -fsched-rank-heuristic -fsched-spec -fsched-spec-insn-heuristic
  38              	@ -fsched-stalled-insns-dep -fshow-column -fsplit-ivs-in-unroller
  39              	@ -fstrict-volatile-bitfields -fsync-libcalls -ftree-coalesce-vars
  40              	@ -ftree-cselim -ftree-forwprop -ftree-loop-if-convert -ftree-loop-im
  41              	@ -ftree-loop-ivcanon -ftree-loop-optimize -ftree-parallelize-loops=
  42              	@ -ftree-phiprop -ftree-reassoc -ftree-scev-cprop -funit-at-a-time
  43              	@ -funsafe-math-optimizations -fverbose-asm -fzero-initialized-in-bss
  44              	@ -mlittle-endian -mlra -mpic-data-is-text-relative -msched-prolog -mthumb
  45              	@ -munaligned-access -mvectorize-with-neon-quad
  46              	
  47              		.text
  48              	.Ltext0:
  49              		.cfi_sections	.debug_frame
  50              		.section	.text.queueInit,"ax",%progbits
  51              		.align	2
  52              		.global	queueInit
  53              		.thumb
  54              		.thumb_func
  55              		.type	queueInit, %function
  56              	queueInit:
  57              	.LFB0:
ARM GAS  C:\Users\Daro\AppData\Local\Temp\ccMicR6A.s 			page 2


  58              		.file 1 "src/queue.c"
   1:src/queue.c   **** #include "include/queue.h"
   2:src/queue.c   **** 
   3:src/queue.c   **** void queueInit(Queue * q)
   4:src/queue.c   **** {
  59              		.loc 1 4 0
  60              		.cfi_startproc
  61              		@ args = 0, pretend = 0, frame = 8
  62              		@ frame_needed = 1, uses_anonymous_args = 0
  63              		@ link register save eliminated.
  64 0000 80B4     		push	{r7}	@
  65              		.cfi_def_cfa_offset 4
  66              		.cfi_offset 7, -4
  67 0002 83B0     		sub	sp, sp, #12	@,,
  68              		.cfi_def_cfa_offset 16
  69 0004 00AF     		add	r7, sp, #0	@,,
  70              		.cfi_def_cfa_register 7
  71 0006 7860     		str	r0, [r7, #4]	@ q, q
   5:src/queue.c   **** 	q->head = q->tail = 0;
  72              		.loc 1 5 0
  73 0008 0023     		movs	r3, #0	@ D.4062,
  74 000a 7A68     		ldr	r2, [r7, #4]	@ tmp111, q
  75 000c C2F80431 		str	r3, [r2, #260]	@ D.4062, q_2(D)->tail
  76 0010 7A68     		ldr	r2, [r7, #4]	@ tmp112, q
  77 0012 C2F80031 		str	r3, [r2, #256]	@ D.4062, q_2(D)->head
   6:src/queue.c   **** }
  78              		.loc 1 6 0
  79 0016 0C37     		adds	r7, r7, #12	@,,
  80              		.cfi_def_cfa_offset 4
  81 0018 BD46     		mov	sp, r7	@,
  82              		.cfi_def_cfa_register 13
  83              		@ sp needed	@
  84 001a 5DF8047B 		ldr	r7, [sp], #4	@,
  85              		.cfi_restore 7
  86              		.cfi_def_cfa_offset 0
  87 001e 7047     		bx	lr	@
  88              		.cfi_endproc
  89              	.LFE0:
  90              		.size	queueInit, .-queueInit
  91              		.section	.text.queueIsEmpty,"ax",%progbits
  92              		.align	2
  93              		.global	queueIsEmpty
  94              		.thumb
  95              		.thumb_func
  96              		.type	queueIsEmpty, %function
  97              	queueIsEmpty:
  98              	.LFB1:
   7:src/queue.c   **** 
   8:src/queue.c   **** uint8_t queueIsEmpty(Queue * q)
   9:src/queue.c   **** {
  99              		.loc 1 9 0
 100              		.cfi_startproc
 101              		@ args = 0, pretend = 0, frame = 8
 102              		@ frame_needed = 1, uses_anonymous_args = 0
 103              		@ link register save eliminated.
 104 0000 80B4     		push	{r7}	@
 105              		.cfi_def_cfa_offset 4
ARM GAS  C:\Users\Daro\AppData\Local\Temp\ccMicR6A.s 			page 3


 106              		.cfi_offset 7, -4
 107 0002 83B0     		sub	sp, sp, #12	@,,
 108              		.cfi_def_cfa_offset 16
 109 0004 00AF     		add	r7, sp, #0	@,,
 110              		.cfi_def_cfa_register 7
 111 0006 7860     		str	r0, [r7, #4]	@ q, q
  10:src/queue.c   **** 	return (q->head == q->tail);
 112              		.loc 1 10 0
 113 0008 7B68     		ldr	r3, [r7, #4]	@ tmp115, q
 114 000a D3F80021 		ldr	r2, [r3, #256]	@ D.4063, q_1(D)->head
 115 000e 7B68     		ldr	r3, [r7, #4]	@ tmp116, q
 116 0010 D3F80431 		ldr	r3, [r3, #260]	@ D.4063, q_1(D)->tail
 117 0014 9A42     		cmp	r2, r3	@ D.4063, D.4063
 118 0016 0CBF     		ite	eq
 119 0018 0123     		moveq	r3, #1	@ tmp118,
 120 001a 0023     		movne	r3, #0	@ tmp118,
 121 001c DBB2     		uxtb	r3, r3	@ D.4064, tmp117
  11:src/queue.c   **** }
 122              		.loc 1 11 0
 123 001e 1846     		mov	r0, r3	@, <retval>
 124 0020 0C37     		adds	r7, r7, #12	@,,
 125              		.cfi_def_cfa_offset 4
 126 0022 BD46     		mov	sp, r7	@,
 127              		.cfi_def_cfa_register 13
 128              		@ sp needed	@
 129 0024 5DF8047B 		ldr	r7, [sp], #4	@,
 130              		.cfi_restore 7
 131              		.cfi_def_cfa_offset 0
 132 0028 7047     		bx	lr	@
 133              		.cfi_endproc
 134              	.LFE1:
 135              		.size	queueIsEmpty, .-queueIsEmpty
 136 002a 00BF     		.section	.text.queueIsFull,"ax",%progbits
 137              		.align	2
 138              		.global	queueIsFull
 139              		.thumb
 140              		.thumb_func
 141              		.type	queueIsFull, %function
 142              	queueIsFull:
 143              	.LFB2:
  12:src/queue.c   **** 
  13:src/queue.c   **** uint8_t queueIsFull(Queue * q)
  14:src/queue.c   **** {
 144              		.loc 1 14 0
 145              		.cfi_startproc
 146              		@ args = 0, pretend = 0, frame = 8
 147              		@ frame_needed = 1, uses_anonymous_args = 0
 148              		@ link register save eliminated.
 149 0000 80B4     		push	{r7}	@
 150              		.cfi_def_cfa_offset 4
 151              		.cfi_offset 7, -4
 152 0002 83B0     		sub	sp, sp, #12	@,,
 153              		.cfi_def_cfa_offset 16
 154 0004 00AF     		add	r7, sp, #0	@,,
 155              		.cfi_def_cfa_register 7
 156 0006 7860     		str	r0, [r7, #4]	@ q, q
  15:src/queue.c   **** 	return ((q->tail - QUEUE_SIZE) == q->head);
ARM GAS  C:\Users\Daro\AppData\Local\Temp\ccMicR6A.s 			page 4


 157              		.loc 1 15 0
 158 0008 7B68     		ldr	r3, [r7, #4]	@ tmp116, q
 159 000a D3F80431 		ldr	r3, [r3, #260]	@ D.4066, q_1(D)->tail
 160 000e A3F58072 		sub	r2, r3, #256	@ D.4066, D.4066,
 161 0012 7B68     		ldr	r3, [r7, #4]	@ tmp117, q
 162 0014 D3F80031 		ldr	r3, [r3, #256]	@ D.4066, q_1(D)->head
 163 0018 9A42     		cmp	r2, r3	@ D.4066, D.4066
 164 001a 0CBF     		ite	eq
 165 001c 0123     		moveq	r3, #1	@ tmp119,
 166 001e 0023     		movne	r3, #0	@ tmp119,
 167 0020 DBB2     		uxtb	r3, r3	@ D.4067, tmp118
  16:src/queue.c   **** }
 168              		.loc 1 16 0
 169 0022 1846     		mov	r0, r3	@, <retval>
 170 0024 0C37     		adds	r7, r7, #12	@,,
 171              		.cfi_def_cfa_offset 4
 172 0026 BD46     		mov	sp, r7	@,
 173              		.cfi_def_cfa_register 13
 174              		@ sp needed	@
 175 0028 5DF8047B 		ldr	r7, [sp], #4	@,
 176              		.cfi_restore 7
 177              		.cfi_def_cfa_offset 0
 178 002c 7047     		bx	lr	@
 179              		.cfi_endproc
 180              	.LFE2:
 181              		.size	queueIsFull, .-queueIsFull
 182 002e 00BF     		.section	.text.queueAdd,"ax",%progbits
 183              		.align	2
 184              		.global	queueAdd
 185              		.thumb
 186              		.thumb_func
 187              		.type	queueAdd, %function
 188              	queueAdd:
 189              	.LFB3:
  17:src/queue.c   **** 
  18:src/queue.c   **** uint8_t queueAdd(Queue * q, uint8_t c)
  19:src/queue.c   **** {
 190              		.loc 1 19 0
 191              		.cfi_startproc
 192              		@ args = 0, pretend = 0, frame = 8
 193              		@ frame_needed = 1, uses_anonymous_args = 0
 194 0000 80B5     		push	{r7, lr}	@
 195              		.cfi_def_cfa_offset 8
 196              		.cfi_offset 7, -8
 197              		.cfi_offset 14, -4
 198 0002 82B0     		sub	sp, sp, #8	@,,
 199              		.cfi_def_cfa_offset 16
 200 0004 00AF     		add	r7, sp, #0	@,,
 201              		.cfi_def_cfa_register 7
 202 0006 7860     		str	r0, [r7, #4]	@ q, q
 203 0008 0B46     		mov	r3, r1	@ tmp117, c
 204 000a FB70     		strb	r3, [r7, #3]	@ tmp118, c
  20:src/queue.c   **** 	if (queueIsFull(q))
 205              		.loc 1 20 0
 206 000c 7868     		ldr	r0, [r7, #4]	@, q
 207 000e FFF7FEFF 		bl	queueIsFull	@
 208 0012 0346     		mov	r3, r0	@ tmp119,
ARM GAS  C:\Users\Daro\AppData\Local\Temp\ccMicR6A.s 			page 5


 209 0014 002B     		cmp	r3, #0	@ D.4070,
 210 0016 01D0     		beq	.L7	@,
  21:src/queue.c   **** 		return 0;
 211              		.loc 1 21 0
 212 0018 0023     		movs	r3, #0	@ D.4069,
 213 001a 0EE0     		b	.L8	@
 214              	.L7:
  22:src/queue.c   **** 
  23:src/queue.c   **** 	q->tail++;
 215              		.loc 1 23 0
 216 001c 7B68     		ldr	r3, [r7, #4]	@ tmp120, q
 217 001e D3F80431 		ldr	r3, [r3, #260]	@ D.4071, q_2(D)->tail
 218 0022 5A1C     		adds	r2, r3, #1	@ D.4071, D.4071,
 219 0024 7B68     		ldr	r3, [r7, #4]	@ tmp121, q
 220 0026 C3F80421 		str	r2, [r3, #260]	@ D.4071, q_2(D)->tail
  24:src/queue.c   **** 	q->data[q->tail % QUEUE_SIZE] = c;
 221              		.loc 1 24 0
 222 002a 7B68     		ldr	r3, [r7, #4]	@ tmp122, q
 223 002c D3F80431 		ldr	r3, [r3, #260]	@ D.4071, q_2(D)->tail
 224 0030 DBB2     		uxtb	r3, r3	@ D.4071, D.4071
 225 0032 7A68     		ldr	r2, [r7, #4]	@ tmp123, q
 226 0034 F978     		ldrb	r1, [r7, #3]	@ tmp124, c
 227 0036 D154     		strb	r1, [r2, r3]	@ tmp124, q_2(D)->data
  25:src/queue.c   **** 
  26:src/queue.c   **** 	return 1;
 228              		.loc 1 26 0
 229 0038 0123     		movs	r3, #1	@ D.4069,
 230              	.L8:
  27:src/queue.c   **** }
 231              		.loc 1 27 0
 232 003a 1846     		mov	r0, r3	@, <retval>
 233 003c 0837     		adds	r7, r7, #8	@,,
 234              		.cfi_def_cfa_offset 8
 235 003e BD46     		mov	sp, r7	@,
 236              		.cfi_def_cfa_register 13
 237              		@ sp needed	@
 238 0040 80BD     		pop	{r7, pc}	@
 239              		.cfi_endproc
 240              	.LFE3:
 241              		.size	queueAdd, .-queueAdd
 242 0042 00BF     		.section	.text.queueDelete,"ax",%progbits
 243              		.align	2
 244              		.global	queueDelete
 245              		.thumb
 246              		.thumb_func
 247              		.type	queueDelete, %function
 248              	queueDelete:
 249              	.LFB4:
  28:src/queue.c   **** 
  29:src/queue.c   **** uint8_t queueDelete(Queue * q)
  30:src/queue.c   **** {
 250              		.loc 1 30 0
 251              		.cfi_startproc
 252              		@ args = 0, pretend = 0, frame = 8
 253              		@ frame_needed = 1, uses_anonymous_args = 0
 254 0000 80B5     		push	{r7, lr}	@
 255              		.cfi_def_cfa_offset 8
ARM GAS  C:\Users\Daro\AppData\Local\Temp\ccMicR6A.s 			page 6


 256              		.cfi_offset 7, -8
 257              		.cfi_offset 14, -4
 258 0002 82B0     		sub	sp, sp, #8	@,,
 259              		.cfi_def_cfa_offset 16
 260 0004 00AF     		add	r7, sp, #0	@,,
 261              		.cfi_def_cfa_register 7
 262 0006 7860     		str	r0, [r7, #4]	@ q, q
  31:src/queue.c   **** 	if (queueIsEmpty(q))
 263              		.loc 1 31 0
 264 0008 7868     		ldr	r0, [r7, #4]	@, q
 265 000a FFF7FEFF 		bl	queueIsEmpty	@
 266 000e 0346     		mov	r3, r0	@ tmp117,
 267 0010 002B     		cmp	r3, #0	@ D.4073,
 268 0012 01D0     		beq	.L10	@,
  32:src/queue.c   **** 		return '\0';
 269              		.loc 1 32 0
 270 0014 0023     		movs	r3, #0	@ D.4072,
 271 0016 0DE0     		b	.L11	@
 272              	.L10:
  33:src/queue.c   **** 	else
  34:src/queue.c   **** 	{
  35:src/queue.c   **** 		q->head++;
 273              		.loc 1 35 0
 274 0018 7B68     		ldr	r3, [r7, #4]	@ tmp118, q
 275 001a D3F80031 		ldr	r3, [r3, #256]	@ D.4074, q_2(D)->head
 276 001e 5A1C     		adds	r2, r3, #1	@ D.4074, D.4074,
 277 0020 7B68     		ldr	r3, [r7, #4]	@ tmp119, q
 278 0022 C3F80021 		str	r2, [r3, #256]	@ D.4074, q_2(D)->head
  36:src/queue.c   **** 		return q->data[q->head % QUEUE_SIZE];
 279              		.loc 1 36 0
 280 0026 7B68     		ldr	r3, [r7, #4]	@ tmp120, q
 281 0028 D3F80031 		ldr	r3, [r3, #256]	@ D.4074, q_2(D)->head
 282 002c DBB2     		uxtb	r3, r3	@ D.4074, D.4074
 283 002e 7A68     		ldr	r2, [r7, #4]	@ tmp121, q
 284 0030 D35C     		ldrb	r3, [r2, r3]	@ tmp123, q_2(D)->data
 285 0032 DBB2     		uxtb	r3, r3	@ D.4072, tmp123
 286              	.L11:
  37:src/queue.c   **** 	}
  38:src/queue.c   **** }
 287              		.loc 1 38 0
 288 0034 1846     		mov	r0, r3	@, <retval>
 289 0036 0837     		adds	r7, r7, #8	@,,
 290              		.cfi_def_cfa_offset 8
 291 0038 BD46     		mov	sp, r7	@,
 292              		.cfi_def_cfa_register 13
 293              		@ sp needed	@
 294 003a 80BD     		pop	{r7, pc}	@
 295              		.cfi_endproc
 296              	.LFE4:
 297              		.size	queueDelete, .-queueDelete
 298              		.text
 299              	.Letext0:
 300              		.file 2 "c:\\dev\\arm\\gcc-arm-none-eabi-4_9-141220\\arm-none-eabi\\include\\machine\\_default_typ
 301              		.file 3 "c:\\dev\\arm\\gcc-arm-none-eabi-4_9-141220\\arm-none-eabi\\include\\stdint.h"
 302              		.file 4 "./include/queue.h"
 303              		.section	.debug_info,"",%progbits
 304              	.Ldebug_info0:
ARM GAS  C:\Users\Daro\AppData\Local\Temp\ccMicR6A.s 			page 7


 305 0000 BC010000 		.4byte	0x1bc
 306 0004 0400     		.2byte	0x4
 307 0006 00000000 		.4byte	.Ldebug_abbrev0
 308 000a 04       		.byte	0x4
 309 000b 01       		.uleb128 0x1
 310 000c B4070000 		.4byte	.LASF484
 311 0010 01       		.byte	0x1
 312 0011 9C050000 		.4byte	.LASF485
 313 0015 80280000 		.4byte	.LASF486
 314 0019 00000000 		.4byte	.Ldebug_ranges0+0
 315 001d 00000000 		.4byte	0
 316 0021 00000000 		.4byte	.Ldebug_line0
 317 0025 00000000 		.4byte	.Ldebug_macro0
 318 0029 02       		.uleb128 0x2
 319 002a 01       		.byte	0x1
 320 002b 06       		.byte	0x6
 321 002c 5F0A0000 		.4byte	.LASF461
 322 0030 03       		.uleb128 0x3
 323 0031 4E240000 		.4byte	.LASF466
 324 0035 02       		.byte	0x2
 325 0036 1D       		.byte	0x1d
 326 0037 3B000000 		.4byte	0x3b
 327 003b 02       		.uleb128 0x2
 328 003c 01       		.byte	0x1
 329 003d 08       		.byte	0x8
 330 003e 27280000 		.4byte	.LASF462
 331 0042 02       		.uleb128 0x2
 332 0043 02       		.byte	0x2
 333 0044 05       		.byte	0x5
 334 0045 A7200000 		.4byte	.LASF463
 335 0049 02       		.uleb128 0x2
 336 004a 02       		.byte	0x2
 337 004b 07       		.byte	0x7
 338 004c 3D2C0000 		.4byte	.LASF464
 339 0050 02       		.uleb128 0x2
 340 0051 04       		.byte	0x4
 341 0052 05       		.byte	0x5
 342 0053 19210000 		.4byte	.LASF465
 343 0057 03       		.uleb128 0x3
 344 0058 75280000 		.4byte	.LASF467
 345 005c 02       		.byte	0x2
 346 005d 41       		.byte	0x41
 347 005e 62000000 		.4byte	0x62
 348 0062 02       		.uleb128 0x2
 349 0063 04       		.byte	0x4
 350 0064 07       		.byte	0x7
 351 0065 0F260000 		.4byte	.LASF468
 352 0069 02       		.uleb128 0x2
 353 006a 08       		.byte	0x8
 354 006b 05       		.byte	0x5
 355 006c 05180000 		.4byte	.LASF469
 356 0070 02       		.uleb128 0x2
 357 0071 08       		.byte	0x8
 358 0072 07       		.byte	0x7
 359 0073 DF0C0000 		.4byte	.LASF470
 360 0077 04       		.uleb128 0x4
 361 0078 04       		.byte	0x4
ARM GAS  C:\Users\Daro\AppData\Local\Temp\ccMicR6A.s 			page 8


 362 0079 05       		.byte	0x5
 363 007a 696E7400 		.ascii	"int\000"
 364 007e 02       		.uleb128 0x2
 365 007f 04       		.byte	0x4
 366 0080 07       		.byte	0x7
 367 0081 E1240000 		.4byte	.LASF471
 368 0085 03       		.uleb128 0x3
 369 0086 DC150000 		.4byte	.LASF472
 370 008a 03       		.byte	0x3
 371 008b 15       		.byte	0x15
 372 008c 30000000 		.4byte	0x30
 373 0090 03       		.uleb128 0x3
 374 0091 840A0000 		.4byte	.LASF473
 375 0095 03       		.byte	0x3
 376 0096 2D       		.byte	0x2d
 377 0097 57000000 		.4byte	0x57
 378 009b 05       		.uleb128 0x5
 379 009c 0801     		.2byte	0x108
 380 009e 04       		.byte	0x4
 381 009f 08       		.byte	0x8
 382 00a0 CB000000 		.4byte	0xcb
 383 00a4 06       		.uleb128 0x6
 384 00a5 7A150000 		.4byte	.LASF474
 385 00a9 04       		.byte	0x4
 386 00aa 09       		.byte	0x9
 387 00ab E2000000 		.4byte	0xe2
 388 00af 00       		.byte	0
 389 00b0 07       		.uleb128 0x7
 390 00b1 A7040000 		.4byte	.LASF475
 391 00b5 04       		.byte	0x4
 392 00b6 0A       		.byte	0xa
 393 00b7 E7000000 		.4byte	0xe7
 394 00bb 0001     		.2byte	0x100
 395 00bd 07       		.uleb128 0x7
 396 00be 60290000 		.4byte	.LASF476
 397 00c2 04       		.byte	0x4
 398 00c3 0B       		.byte	0xb
 399 00c4 E7000000 		.4byte	0xe7
 400 00c8 0401     		.2byte	0x104
 401 00ca 00       		.byte	0
 402 00cb 08       		.uleb128 0x8
 403 00cc 85000000 		.4byte	0x85
 404 00d0 DB000000 		.4byte	0xdb
 405 00d4 09       		.uleb128 0x9
 406 00d5 DB000000 		.4byte	0xdb
 407 00d9 FF       		.byte	0xff
 408 00da 00       		.byte	0
 409 00db 02       		.uleb128 0x2
 410 00dc 04       		.byte	0x4
 411 00dd 07       		.byte	0x7
 412 00de E8250000 		.4byte	.LASF477
 413 00e2 0A       		.uleb128 0xa
 414 00e3 CB000000 		.4byte	0xcb
 415 00e7 0A       		.uleb128 0xa
 416 00e8 90000000 		.4byte	0x90
 417 00ec 03       		.uleb128 0x3
 418 00ed 3E030000 		.4byte	.LASF478
ARM GAS  C:\Users\Daro\AppData\Local\Temp\ccMicR6A.s 			page 9


 419 00f1 04       		.byte	0x4
 420 00f2 0C       		.byte	0xc
 421 00f3 9B000000 		.4byte	0x9b
 422 00f7 0B       		.uleb128 0xb
 423 00f8 0F210000 		.4byte	.LASF482
 424 00fc 01       		.byte	0x1
 425 00fd 03       		.byte	0x3
 426 00fe 00000000 		.4byte	.LFB0
 427 0102 20000000 		.4byte	.LFE0-.LFB0
 428 0106 01       		.uleb128 0x1
 429 0107 9C       		.byte	0x9c
 430 0108 19010000 		.4byte	0x119
 431 010c 0C       		.uleb128 0xc
 432 010d 7100     		.ascii	"q\000"
 433 010f 01       		.byte	0x1
 434 0110 03       		.byte	0x3
 435 0111 19010000 		.4byte	0x119
 436 0115 02       		.uleb128 0x2
 437 0116 91       		.byte	0x91
 438 0117 74       		.sleb128 -12
 439 0118 00       		.byte	0
 440 0119 0D       		.uleb128 0xd
 441 011a 04       		.byte	0x4
 442 011b EC000000 		.4byte	0xec
 443 011f 0E       		.uleb128 0xe
 444 0120 53060000 		.4byte	.LASF479
 445 0124 01       		.byte	0x1
 446 0125 08       		.byte	0x8
 447 0126 85000000 		.4byte	0x85
 448 012a 00000000 		.4byte	.LFB1
 449 012e 2A000000 		.4byte	.LFE1-.LFB1
 450 0132 01       		.uleb128 0x1
 451 0133 9C       		.byte	0x9c
 452 0134 45010000 		.4byte	0x145
 453 0138 0C       		.uleb128 0xc
 454 0139 7100     		.ascii	"q\000"
 455 013b 01       		.byte	0x1
 456 013c 08       		.byte	0x8
 457 013d 19010000 		.4byte	0x119
 458 0141 02       		.uleb128 0x2
 459 0142 91       		.byte	0x91
 460 0143 74       		.sleb128 -12
 461 0144 00       		.byte	0
 462 0145 0E       		.uleb128 0xe
 463 0146 682A0000 		.4byte	.LASF480
 464 014a 01       		.byte	0x1
 465 014b 0D       		.byte	0xd
 466 014c 85000000 		.4byte	0x85
 467 0150 00000000 		.4byte	.LFB2
 468 0154 2E000000 		.4byte	.LFE2-.LFB2
 469 0158 01       		.uleb128 0x1
 470 0159 9C       		.byte	0x9c
 471 015a 6B010000 		.4byte	0x16b
 472 015e 0C       		.uleb128 0xc
 473 015f 7100     		.ascii	"q\000"
 474 0161 01       		.byte	0x1
 475 0162 0D       		.byte	0xd
ARM GAS  C:\Users\Daro\AppData\Local\Temp\ccMicR6A.s 			page 10


 476 0163 19010000 		.4byte	0x119
 477 0167 02       		.uleb128 0x2
 478 0168 91       		.byte	0x91
 479 0169 74       		.sleb128 -12
 480 016a 00       		.byte	0
 481 016b 0F       		.uleb128 0xf
 482 016c 78260000 		.4byte	.LASF481
 483 0170 01       		.byte	0x1
 484 0171 12       		.byte	0x12
 485 0172 85000000 		.4byte	0x85
 486 0176 00000000 		.4byte	.LFB3
 487 017a 42000000 		.4byte	.LFE3-.LFB3
 488 017e 01       		.uleb128 0x1
 489 017f 9C       		.byte	0x9c
 490 0180 9D010000 		.4byte	0x19d
 491 0184 0C       		.uleb128 0xc
 492 0185 7100     		.ascii	"q\000"
 493 0187 01       		.byte	0x1
 494 0188 12       		.byte	0x12
 495 0189 19010000 		.4byte	0x119
 496 018d 02       		.uleb128 0x2
 497 018e 91       		.byte	0x91
 498 018f 74       		.sleb128 -12
 499 0190 0C       		.uleb128 0xc
 500 0191 6300     		.ascii	"c\000"
 501 0193 01       		.byte	0x1
 502 0194 12       		.byte	0x12
 503 0195 85000000 		.4byte	0x85
 504 0199 02       		.uleb128 0x2
 505 019a 91       		.byte	0x91
 506 019b 73       		.sleb128 -13
 507 019c 00       		.byte	0
 508 019d 10       		.uleb128 0x10
 509 019e 2B250000 		.4byte	.LASF483
 510 01a2 01       		.byte	0x1
 511 01a3 1D       		.byte	0x1d
 512 01a4 85000000 		.4byte	0x85
 513 01a8 00000000 		.4byte	.LFB4
 514 01ac 3C000000 		.4byte	.LFE4-.LFB4
 515 01b0 01       		.uleb128 0x1
 516 01b1 9C       		.byte	0x9c
 517 01b2 0C       		.uleb128 0xc
 518 01b3 7100     		.ascii	"q\000"
 519 01b5 01       		.byte	0x1
 520 01b6 1D       		.byte	0x1d
 521 01b7 19010000 		.4byte	0x119
 522 01bb 02       		.uleb128 0x2
 523 01bc 91       		.byte	0x91
 524 01bd 74       		.sleb128 -12
 525 01be 00       		.byte	0
 526 01bf 00       		.byte	0
 527              		.section	.debug_abbrev,"",%progbits
 528              	.Ldebug_abbrev0:
 529 0000 01       		.uleb128 0x1
 530 0001 11       		.uleb128 0x11
 531 0002 01       		.byte	0x1
 532 0003 25       		.uleb128 0x25
ARM GAS  C:\Users\Daro\AppData\Local\Temp\ccMicR6A.s 			page 11


 533 0004 0E       		.uleb128 0xe
 534 0005 13       		.uleb128 0x13
 535 0006 0B       		.uleb128 0xb
 536 0007 03       		.uleb128 0x3
 537 0008 0E       		.uleb128 0xe
 538 0009 1B       		.uleb128 0x1b
 539 000a 0E       		.uleb128 0xe
 540 000b 55       		.uleb128 0x55
 541 000c 17       		.uleb128 0x17
 542 000d 11       		.uleb128 0x11
 543 000e 01       		.uleb128 0x1
 544 000f 10       		.uleb128 0x10
 545 0010 17       		.uleb128 0x17
 546 0011 9942     		.uleb128 0x2119
 547 0013 17       		.uleb128 0x17
 548 0014 00       		.byte	0
 549 0015 00       		.byte	0
 550 0016 02       		.uleb128 0x2
 551 0017 24       		.uleb128 0x24
 552 0018 00       		.byte	0
 553 0019 0B       		.uleb128 0xb
 554 001a 0B       		.uleb128 0xb
 555 001b 3E       		.uleb128 0x3e
 556 001c 0B       		.uleb128 0xb
 557 001d 03       		.uleb128 0x3
 558 001e 0E       		.uleb128 0xe
 559 001f 00       		.byte	0
 560 0020 00       		.byte	0
 561 0021 03       		.uleb128 0x3
 562 0022 16       		.uleb128 0x16
 563 0023 00       		.byte	0
 564 0024 03       		.uleb128 0x3
 565 0025 0E       		.uleb128 0xe
 566 0026 3A       		.uleb128 0x3a
 567 0027 0B       		.uleb128 0xb
 568 0028 3B       		.uleb128 0x3b
 569 0029 0B       		.uleb128 0xb
 570 002a 49       		.uleb128 0x49
 571 002b 13       		.uleb128 0x13
 572 002c 00       		.byte	0
 573 002d 00       		.byte	0
 574 002e 04       		.uleb128 0x4
 575 002f 24       		.uleb128 0x24
 576 0030 00       		.byte	0
 577 0031 0B       		.uleb128 0xb
 578 0032 0B       		.uleb128 0xb
 579 0033 3E       		.uleb128 0x3e
 580 0034 0B       		.uleb128 0xb
 581 0035 03       		.uleb128 0x3
 582 0036 08       		.uleb128 0x8
 583 0037 00       		.byte	0
 584 0038 00       		.byte	0
 585 0039 05       		.uleb128 0x5
 586 003a 13       		.uleb128 0x13
 587 003b 01       		.byte	0x1
 588 003c 0B       		.uleb128 0xb
 589 003d 05       		.uleb128 0x5
ARM GAS  C:\Users\Daro\AppData\Local\Temp\ccMicR6A.s 			page 12


 590 003e 3A       		.uleb128 0x3a
 591 003f 0B       		.uleb128 0xb
 592 0040 3B       		.uleb128 0x3b
 593 0041 0B       		.uleb128 0xb
 594 0042 01       		.uleb128 0x1
 595 0043 13       		.uleb128 0x13
 596 0044 00       		.byte	0
 597 0045 00       		.byte	0
 598 0046 06       		.uleb128 0x6
 599 0047 0D       		.uleb128 0xd
 600 0048 00       		.byte	0
 601 0049 03       		.uleb128 0x3
 602 004a 0E       		.uleb128 0xe
 603 004b 3A       		.uleb128 0x3a
 604 004c 0B       		.uleb128 0xb
 605 004d 3B       		.uleb128 0x3b
 606 004e 0B       		.uleb128 0xb
 607 004f 49       		.uleb128 0x49
 608 0050 13       		.uleb128 0x13
 609 0051 38       		.uleb128 0x38
 610 0052 0B       		.uleb128 0xb
 611 0053 00       		.byte	0
 612 0054 00       		.byte	0
 613 0055 07       		.uleb128 0x7
 614 0056 0D       		.uleb128 0xd
 615 0057 00       		.byte	0
 616 0058 03       		.uleb128 0x3
 617 0059 0E       		.uleb128 0xe
 618 005a 3A       		.uleb128 0x3a
 619 005b 0B       		.uleb128 0xb
 620 005c 3B       		.uleb128 0x3b
 621 005d 0B       		.uleb128 0xb
 622 005e 49       		.uleb128 0x49
 623 005f 13       		.uleb128 0x13
 624 0060 38       		.uleb128 0x38
 625 0061 05       		.uleb128 0x5
 626 0062 00       		.byte	0
 627 0063 00       		.byte	0
 628 0064 08       		.uleb128 0x8
 629 0065 01       		.uleb128 0x1
 630 0066 01       		.byte	0x1
 631 0067 49       		.uleb128 0x49
 632 0068 13       		.uleb128 0x13
 633 0069 01       		.uleb128 0x1
 634 006a 13       		.uleb128 0x13
 635 006b 00       		.byte	0
 636 006c 00       		.byte	0
 637 006d 09       		.uleb128 0x9
 638 006e 21       		.uleb128 0x21
 639 006f 00       		.byte	0
 640 0070 49       		.uleb128 0x49
 641 0071 13       		.uleb128 0x13
 642 0072 2F       		.uleb128 0x2f
 643 0073 0B       		.uleb128 0xb
 644 0074 00       		.byte	0
 645 0075 00       		.byte	0
 646 0076 0A       		.uleb128 0xa
ARM GAS  C:\Users\Daro\AppData\Local\Temp\ccMicR6A.s 			page 13


 647 0077 35       		.uleb128 0x35
 648 0078 00       		.byte	0
 649 0079 49       		.uleb128 0x49
 650 007a 13       		.uleb128 0x13
 651 007b 00       		.byte	0
 652 007c 00       		.byte	0
 653 007d 0B       		.uleb128 0xb
 654 007e 2E       		.uleb128 0x2e
 655 007f 01       		.byte	0x1
 656 0080 3F       		.uleb128 0x3f
 657 0081 19       		.uleb128 0x19
 658 0082 03       		.uleb128 0x3
 659 0083 0E       		.uleb128 0xe
 660 0084 3A       		.uleb128 0x3a
 661 0085 0B       		.uleb128 0xb
 662 0086 3B       		.uleb128 0x3b
 663 0087 0B       		.uleb128 0xb
 664 0088 27       		.uleb128 0x27
 665 0089 19       		.uleb128 0x19
 666 008a 11       		.uleb128 0x11
 667 008b 01       		.uleb128 0x1
 668 008c 12       		.uleb128 0x12
 669 008d 06       		.uleb128 0x6
 670 008e 40       		.uleb128 0x40
 671 008f 18       		.uleb128 0x18
 672 0090 9742     		.uleb128 0x2117
 673 0092 19       		.uleb128 0x19
 674 0093 01       		.uleb128 0x1
 675 0094 13       		.uleb128 0x13
 676 0095 00       		.byte	0
 677 0096 00       		.byte	0
 678 0097 0C       		.uleb128 0xc
 679 0098 05       		.uleb128 0x5
 680 0099 00       		.byte	0
 681 009a 03       		.uleb128 0x3
 682 009b 08       		.uleb128 0x8
 683 009c 3A       		.uleb128 0x3a
 684 009d 0B       		.uleb128 0xb
 685 009e 3B       		.uleb128 0x3b
 686 009f 0B       		.uleb128 0xb
 687 00a0 49       		.uleb128 0x49
 688 00a1 13       		.uleb128 0x13
 689 00a2 02       		.uleb128 0x2
 690 00a3 18       		.uleb128 0x18
 691 00a4 00       		.byte	0
 692 00a5 00       		.byte	0
 693 00a6 0D       		.uleb128 0xd
 694 00a7 0F       		.uleb128 0xf
 695 00a8 00       		.byte	0
 696 00a9 0B       		.uleb128 0xb
 697 00aa 0B       		.uleb128 0xb
 698 00ab 49       		.uleb128 0x49
 699 00ac 13       		.uleb128 0x13
 700 00ad 00       		.byte	0
 701 00ae 00       		.byte	0
 702 00af 0E       		.uleb128 0xe
 703 00b0 2E       		.uleb128 0x2e
ARM GAS  C:\Users\Daro\AppData\Local\Temp\ccMicR6A.s 			page 14


 704 00b1 01       		.byte	0x1
 705 00b2 3F       		.uleb128 0x3f
 706 00b3 19       		.uleb128 0x19
 707 00b4 03       		.uleb128 0x3
 708 00b5 0E       		.uleb128 0xe
 709 00b6 3A       		.uleb128 0x3a
 710 00b7 0B       		.uleb128 0xb
 711 00b8 3B       		.uleb128 0x3b
 712 00b9 0B       		.uleb128 0xb
 713 00ba 27       		.uleb128 0x27
 714 00bb 19       		.uleb128 0x19
 715 00bc 49       		.uleb128 0x49
 716 00bd 13       		.uleb128 0x13
 717 00be 11       		.uleb128 0x11
 718 00bf 01       		.uleb128 0x1
 719 00c0 12       		.uleb128 0x12
 720 00c1 06       		.uleb128 0x6
 721 00c2 40       		.uleb128 0x40
 722 00c3 18       		.uleb128 0x18
 723 00c4 9742     		.uleb128 0x2117
 724 00c6 19       		.uleb128 0x19
 725 00c7 01       		.uleb128 0x1
 726 00c8 13       		.uleb128 0x13
 727 00c9 00       		.byte	0
 728 00ca 00       		.byte	0
 729 00cb 0F       		.uleb128 0xf
 730 00cc 2E       		.uleb128 0x2e
 731 00cd 01       		.byte	0x1
 732 00ce 3F       		.uleb128 0x3f
 733 00cf 19       		.uleb128 0x19
 734 00d0 03       		.uleb128 0x3
 735 00d1 0E       		.uleb128 0xe
 736 00d2 3A       		.uleb128 0x3a
 737 00d3 0B       		.uleb128 0xb
 738 00d4 3B       		.uleb128 0x3b
 739 00d5 0B       		.uleb128 0xb
 740 00d6 27       		.uleb128 0x27
 741 00d7 19       		.uleb128 0x19
 742 00d8 49       		.uleb128 0x49
 743 00d9 13       		.uleb128 0x13
 744 00da 11       		.uleb128 0x11
 745 00db 01       		.uleb128 0x1
 746 00dc 12       		.uleb128 0x12
 747 00dd 06       		.uleb128 0x6
 748 00de 40       		.uleb128 0x40
 749 00df 18       		.uleb128 0x18
 750 00e0 9642     		.uleb128 0x2116
 751 00e2 19       		.uleb128 0x19
 752 00e3 01       		.uleb128 0x1
 753 00e4 13       		.uleb128 0x13
 754 00e5 00       		.byte	0
 755 00e6 00       		.byte	0
 756 00e7 10       		.uleb128 0x10
 757 00e8 2E       		.uleb128 0x2e
 758 00e9 01       		.byte	0x1
 759 00ea 3F       		.uleb128 0x3f
 760 00eb 19       		.uleb128 0x19
ARM GAS  C:\Users\Daro\AppData\Local\Temp\ccMicR6A.s 			page 15


 761 00ec 03       		.uleb128 0x3
 762 00ed 0E       		.uleb128 0xe
 763 00ee 3A       		.uleb128 0x3a
 764 00ef 0B       		.uleb128 0xb
 765 00f0 3B       		.uleb128 0x3b
 766 00f1 0B       		.uleb128 0xb
 767 00f2 27       		.uleb128 0x27
 768 00f3 19       		.uleb128 0x19
 769 00f4 49       		.uleb128 0x49
 770 00f5 13       		.uleb128 0x13
 771 00f6 11       		.uleb128 0x11
 772 00f7 01       		.uleb128 0x1
 773 00f8 12       		.uleb128 0x12
 774 00f9 06       		.uleb128 0x6
 775 00fa 40       		.uleb128 0x40
 776 00fb 18       		.uleb128 0x18
 777 00fc 9642     		.uleb128 0x2116
 778 00fe 19       		.uleb128 0x19
 779 00ff 00       		.byte	0
 780 0100 00       		.byte	0
 781 0101 00       		.byte	0
 782              		.section	.debug_aranges,"",%progbits
 783 0000 3C000000 		.4byte	0x3c
 784 0004 0200     		.2byte	0x2
 785 0006 00000000 		.4byte	.Ldebug_info0
 786 000a 04       		.byte	0x4
 787 000b 00       		.byte	0
 788 000c 0000     		.2byte	0
 789 000e 0000     		.2byte	0
 790 0010 00000000 		.4byte	.LFB0
 791 0014 20000000 		.4byte	.LFE0-.LFB0
 792 0018 00000000 		.4byte	.LFB1
 793 001c 2A000000 		.4byte	.LFE1-.LFB1
 794 0020 00000000 		.4byte	.LFB2
 795 0024 2E000000 		.4byte	.LFE2-.LFB2
 796 0028 00000000 		.4byte	.LFB3
 797 002c 42000000 		.4byte	.LFE3-.LFB3
 798 0030 00000000 		.4byte	.LFB4
 799 0034 3C000000 		.4byte	.LFE4-.LFB4
 800 0038 00000000 		.4byte	0
 801 003c 00000000 		.4byte	0
 802              		.section	.debug_ranges,"",%progbits
 803              	.Ldebug_ranges0:
 804 0000 00000000 		.4byte	.LFB0
 805 0004 20000000 		.4byte	.LFE0
 806 0008 00000000 		.4byte	.LFB1
 807 000c 2A000000 		.4byte	.LFE1
 808 0010 00000000 		.4byte	.LFB2
 809 0014 2E000000 		.4byte	.LFE2
 810 0018 00000000 		.4byte	.LFB3
 811 001c 42000000 		.4byte	.LFE3
 812 0020 00000000 		.4byte	.LFB4
 813 0024 3C000000 		.4byte	.LFE4
 814 0028 00000000 		.4byte	0
 815 002c 00000000 		.4byte	0
 816              		.section	.debug_macro,"",%progbits
 817              	.Ldebug_macro0:
ARM GAS  C:\Users\Daro\AppData\Local\Temp\ccMicR6A.s 			page 16


 818 0000 0400     		.2byte	0x4
 819 0002 02       		.byte	0x2
 820 0003 00000000 		.4byte	.Ldebug_line0
 821 0007 07       		.byte	0x7
 822 0008 00000000 		.4byte	.Ldebug_macro1
 823 000c 03       		.byte	0x3
 824 000d 00       		.uleb128 0
 825 000e 01       		.uleb128 0x1
 826 000f 03       		.byte	0x3
 827 0010 01       		.uleb128 0x1
 828 0011 04       		.uleb128 0x4
 829 0012 05       		.byte	0x5
 830 0013 02       		.uleb128 0x2
 831 0014 9F270000 		.4byte	.LASF364
 832              		.file 5 "c:\\dev\\arm\\gcc-arm-none-eabi-4_9-141220\\lib\\gcc\\arm-none-eabi\\4.9.3\\include\\stdi
 833 0018 03       		.byte	0x3
 834 0019 04       		.uleb128 0x4
 835 001a 05       		.uleb128 0x5
 836 001b 03       		.byte	0x3
 837 001c 09       		.uleb128 0x9
 838 001d 03       		.uleb128 0x3
 839 001e 05       		.byte	0x5
 840 001f 0A       		.uleb128 0xa
 841 0020 2E200000 		.4byte	.LASF365
 842 0024 03       		.byte	0x3
 843 0025 0C       		.uleb128 0xc
 844 0026 02       		.uleb128 0x2
 845 0027 05       		.byte	0x5
 846 0028 06       		.uleb128 0x6
 847 0029 57170000 		.4byte	.LASF366
 848              		.file 6 "c:\\dev\\arm\\gcc-arm-none-eabi-4_9-141220\\arm-none-eabi\\include\\sys\\features.h"
 849 002d 03       		.byte	0x3
 850 002e 08       		.uleb128 0x8
 851 002f 06       		.uleb128 0x6
 852 0030 07       		.byte	0x7
 853 0031 00000000 		.4byte	.Ldebug_macro2
 854 0035 04       		.byte	0x4
 855 0036 07       		.byte	0x7
 856 0037 00000000 		.4byte	.Ldebug_macro3
 857 003b 04       		.byte	0x4
 858              		.file 7 "c:\\dev\\arm\\gcc-arm-none-eabi-4_9-141220\\arm-none-eabi\\include\\sys\\_intsup.h"
 859 003c 03       		.byte	0x3
 860 003d 0D       		.uleb128 0xd
 861 003e 07       		.uleb128 0x7
 862 003f 07       		.byte	0x7
 863 0040 00000000 		.4byte	.Ldebug_macro4
 864 0044 04       		.byte	0x4
 865 0045 07       		.byte	0x7
 866 0046 00000000 		.4byte	.Ldebug_macro5
 867 004a 04       		.byte	0x4
 868 004b 05       		.byte	0x5
 869 004c 0D       		.uleb128 0xd
 870 004d 8D0A0000 		.4byte	.LASF459
 871 0051 04       		.byte	0x4
 872 0052 05       		.byte	0x5
 873 0053 06       		.uleb128 0x6
 874 0054 22210000 		.4byte	.LASF460
ARM GAS  C:\Users\Daro\AppData\Local\Temp\ccMicR6A.s 			page 17


 875 0058 04       		.byte	0x4
 876 0059 04       		.byte	0x4
 877 005a 00       		.byte	0
 878              		.section	.debug_macro,"G",%progbits,wm4.0.39a8a4e28e2dee4d4dd6532f731b2ca1,comdat
 879              	.Ldebug_macro1:
 880 0000 0400     		.2byte	0x4
 881 0002 00       		.byte	0
 882 0003 05       		.byte	0x5
 883 0004 00       		.uleb128 0
 884 0005 4D1A0000 		.4byte	.LASF0
 885 0009 05       		.byte	0x5
 886 000a 00       		.uleb128 0
 887 000b 5F260000 		.4byte	.LASF1
 888 000f 05       		.byte	0x5
 889 0010 00       		.uleb128 0
 890 0011 D9260000 		.4byte	.LASF2
 891 0015 05       		.byte	0x5
 892 0016 00       		.uleb128 0
 893 0017 9C040000 		.4byte	.LASF3
 894 001b 05       		.byte	0x5
 895 001c 00       		.uleb128 0
 896 001d E9030000 		.4byte	.LASF4
 897 0021 05       		.byte	0x5
 898 0022 00       		.uleb128 0
 899 0023 EC1B0000 		.4byte	.LASF5
 900 0027 05       		.byte	0x5
 901 0028 00       		.uleb128 0
 902 0029 1D070000 		.4byte	.LASF6
 903 002d 05       		.byte	0x5
 904 002e 00       		.uleb128 0
 905 002f D4080000 		.4byte	.LASF7
 906 0033 05       		.byte	0x5
 907 0034 00       		.uleb128 0
 908 0035 40060000 		.4byte	.LASF8
 909 0039 05       		.byte	0x5
 910 003a 00       		.uleb128 0
 911 003b E8190000 		.4byte	.LASF9
 912 003f 05       		.byte	0x5
 913 0040 00       		.uleb128 0
 914 0041 70050000 		.4byte	.LASF10
 915 0045 05       		.byte	0x5
 916 0046 00       		.uleb128 0
 917 0047 A22E0000 		.4byte	.LASF11
 918 004b 05       		.byte	0x5
 919 004c 00       		.uleb128 0
 920 004d AB1A0000 		.4byte	.LASF12
 921 0051 05       		.byte	0x5
 922 0052 00       		.uleb128 0
 923 0053 461C0000 		.4byte	.LASF13
 924 0057 05       		.byte	0x5
 925 0058 00       		.uleb128 0
 926 0059 6D160000 		.4byte	.LASF14
 927 005d 05       		.byte	0x5
 928 005e 00       		.uleb128 0
 929 005f DE2A0000 		.4byte	.LASF15
 930 0063 05       		.byte	0x5
 931 0064 00       		.uleb128 0
ARM GAS  C:\Users\Daro\AppData\Local\Temp\ccMicR6A.s 			page 18


 932 0065 581A0000 		.4byte	.LASF16
 933 0069 05       		.byte	0x5
 934 006a 00       		.uleb128 0
 935 006b CE230000 		.4byte	.LASF17
 936 006f 05       		.byte	0x5
 937 0070 00       		.uleb128 0
 938 0071 78060000 		.4byte	.LASF18
 939 0075 05       		.byte	0x5
 940 0076 00       		.uleb128 0
 941 0077 75100000 		.4byte	.LASF19
 942 007b 05       		.byte	0x5
 943 007c 00       		.uleb128 0
 944 007d D81B0000 		.4byte	.LASF20
 945 0081 05       		.byte	0x5
 946 0082 00       		.uleb128 0
 947 0083 83040000 		.4byte	.LASF21
 948 0087 05       		.byte	0x5
 949 0088 00       		.uleb128 0
 950 0089 26040000 		.4byte	.LASF22
 951 008d 05       		.byte	0x5
 952 008e 00       		.uleb128 0
 953 008f 13180000 		.4byte	.LASF23
 954 0093 05       		.byte	0x5
 955 0094 00       		.uleb128 0
 956 0095 2E110000 		.4byte	.LASF24
 957 0099 05       		.byte	0x5
 958 009a 00       		.uleb128 0
 959 009b 8C0F0000 		.4byte	.LASF25
 960 009f 05       		.byte	0x5
 961 00a0 00       		.uleb128 0
 962 00a1 AC040000 		.4byte	.LASF26
 963 00a5 05       		.byte	0x5
 964 00a6 00       		.uleb128 0
 965 00a7 F01F0000 		.4byte	.LASF27
 966 00ab 05       		.byte	0x5
 967 00ac 00       		.uleb128 0
 968 00ad 47070000 		.4byte	.LASF28
 969 00b1 05       		.byte	0x5
 970 00b2 00       		.uleb128 0
 971 00b3 411D0000 		.4byte	.LASF29
 972 00b7 05       		.byte	0x5
 973 00b8 00       		.uleb128 0
 974 00b9 CC240000 		.4byte	.LASF30
 975 00bd 05       		.byte	0x5
 976 00be 00       		.uleb128 0
 977 00bf 90290000 		.4byte	.LASF31
 978 00c3 05       		.byte	0x5
 979 00c4 00       		.uleb128 0
 980 00c5 1A2E0000 		.4byte	.LASF32
 981 00c9 05       		.byte	0x5
 982 00ca 00       		.uleb128 0
 983 00cb 9B1B0000 		.4byte	.LASF33
 984 00cf 05       		.byte	0x5
 985 00d0 00       		.uleb128 0
 986 00d1 3E1B0000 		.4byte	.LASF34
 987 00d5 05       		.byte	0x5
 988 00d6 00       		.uleb128 0
ARM GAS  C:\Users\Daro\AppData\Local\Temp\ccMicR6A.s 			page 19


 989 00d7 EF2A0000 		.4byte	.LASF35
 990 00db 05       		.byte	0x5
 991 00dc 00       		.uleb128 0
 992 00dd 4D280000 		.4byte	.LASF36
 993 00e1 05       		.byte	0x5
 994 00e2 00       		.uleb128 0
 995 00e3 3A040000 		.4byte	.LASF37
 996 00e7 05       		.byte	0x5
 997 00e8 00       		.uleb128 0
 998 00e9 421E0000 		.4byte	.LASF38
 999 00ed 05       		.byte	0x5
 1000 00ee 00       		.uleb128 0
 1001 00ef 332F0000 		.4byte	.LASF39
 1002 00f3 05       		.byte	0x5
 1003 00f4 00       		.uleb128 0
 1004 00f5 0F220000 		.4byte	.LASF40
 1005 00f9 05       		.byte	0x5
 1006 00fa 00       		.uleb128 0
 1007 00fb A8050000 		.4byte	.LASF41
 1008 00ff 05       		.byte	0x5
 1009 0100 00       		.uleb128 0
 1010 0101 F7200000 		.4byte	.LASF42
 1011 0105 05       		.byte	0x5
 1012 0106 00       		.uleb128 0
 1013 0107 EB120000 		.4byte	.LASF43
 1014 010b 05       		.byte	0x5
 1015 010c 00       		.uleb128 0
 1016 010d F4230000 		.4byte	.LASF44
 1017 0111 05       		.byte	0x5
 1018 0112 00       		.uleb128 0
 1019 0113 53120000 		.4byte	.LASF45
 1020 0117 05       		.byte	0x5
 1021 0118 00       		.uleb128 0
 1022 0119 8F240000 		.4byte	.LASF46
 1023 011d 05       		.byte	0x5
 1024 011e 00       		.uleb128 0
 1025 011f E52B0000 		.4byte	.LASF47
 1026 0123 05       		.byte	0x5
 1027 0124 00       		.uleb128 0
 1028 0125 CB120000 		.4byte	.LASF48
 1029 0129 05       		.byte	0x5
 1030 012a 00       		.uleb128 0
 1031 012b 4E160000 		.4byte	.LASF49
 1032 012f 05       		.byte	0x5
 1033 0130 00       		.uleb128 0
 1034 0131 E7080000 		.4byte	.LASF50
 1035 0135 05       		.byte	0x5
 1036 0136 00       		.uleb128 0
 1037 0137 641E0000 		.4byte	.LASF51
 1038 013b 05       		.byte	0x5
 1039 013c 00       		.uleb128 0
 1040 013d 58080000 		.4byte	.LASF52
 1041 0141 05       		.byte	0x5
 1042 0142 00       		.uleb128 0
 1043 0143 B12C0000 		.4byte	.LASF53
 1044 0147 05       		.byte	0x5
 1045 0148 00       		.uleb128 0
ARM GAS  C:\Users\Daro\AppData\Local\Temp\ccMicR6A.s 			page 20


 1046 0149 CB1E0000 		.4byte	.LASF54
 1047 014d 05       		.byte	0x5
 1048 014e 00       		.uleb128 0
 1049 014f 43050000 		.4byte	.LASF55
 1050 0153 05       		.byte	0x5
 1051 0154 00       		.uleb128 0
 1052 0155 460E0000 		.4byte	.LASF56
 1053 0159 05       		.byte	0x5
 1054 015a 00       		.uleb128 0
 1055 015b 3B120000 		.4byte	.LASF57
 1056 015f 05       		.byte	0x5
 1057 0160 00       		.uleb128 0
 1058 0161 9C2A0000 		.4byte	.LASF58
 1059 0165 05       		.byte	0x5
 1060 0166 00       		.uleb128 0
 1061 0167 220A0000 		.4byte	.LASF59
 1062 016b 05       		.byte	0x5
 1063 016c 00       		.uleb128 0
 1064 016d EE140000 		.4byte	.LASF60
 1065 0171 05       		.byte	0x5
 1066 0172 00       		.uleb128 0
 1067 0173 5D0E0000 		.4byte	.LASF61
 1068 0177 05       		.byte	0x5
 1069 0178 00       		.uleb128 0
 1070 0179 3E290000 		.4byte	.LASF62
 1071 017d 05       		.byte	0x5
 1072 017e 00       		.uleb128 0
 1073 017f FB270000 		.4byte	.LASF63
 1074 0183 05       		.byte	0x5
 1075 0184 00       		.uleb128 0
 1076 0185 F0280000 		.4byte	.LASF64
 1077 0189 05       		.byte	0x5
 1078 018a 00       		.uleb128 0
 1079 018b C80A0000 		.4byte	.LASF65
 1080 018f 05       		.byte	0x5
 1081 0190 00       		.uleb128 0
 1082 0191 11240000 		.4byte	.LASF66
 1083 0195 05       		.byte	0x5
 1084 0196 00       		.uleb128 0
 1085 0197 05090000 		.4byte	.LASF67
 1086 019b 05       		.byte	0x5
 1087 019c 00       		.uleb128 0
 1088 019d E4110000 		.4byte	.LASF68
 1089 01a1 05       		.byte	0x5
 1090 01a2 00       		.uleb128 0
 1091 01a3 61200000 		.4byte	.LASF69
 1092 01a7 05       		.byte	0x5
 1093 01a8 00       		.uleb128 0
 1094 01a9 D7180000 		.4byte	.LASF70
 1095 01ad 05       		.byte	0x5
 1096 01ae 00       		.uleb128 0
 1097 01af 1C2F0000 		.4byte	.LASF71
 1098 01b3 05       		.byte	0x5
 1099 01b4 00       		.uleb128 0
 1100 01b5 10020000 		.4byte	.LASF72
 1101 01b9 05       		.byte	0x5
 1102 01ba 00       		.uleb128 0
ARM GAS  C:\Users\Daro\AppData\Local\Temp\ccMicR6A.s 			page 21


 1103 01bb 3F000000 		.4byte	.LASF73
 1104 01bf 05       		.byte	0x5
 1105 01c0 00       		.uleb128 0
 1106 01c1 2C1C0000 		.4byte	.LASF74
 1107 01c5 05       		.byte	0x5
 1108 01c6 00       		.uleb128 0
 1109 01c7 742A0000 		.4byte	.LASF75
 1110 01cb 05       		.byte	0x5
 1111 01cc 00       		.uleb128 0
 1112 01cd 39200000 		.4byte	.LASF76
 1113 01d1 05       		.byte	0x5
 1114 01d2 00       		.uleb128 0
 1115 01d3 1C1C0000 		.4byte	.LASF77
 1116 01d7 05       		.byte	0x5
 1117 01d8 00       		.uleb128 0
 1118 01d9 24000000 		.4byte	.LASF78
 1119 01dd 05       		.byte	0x5
 1120 01de 00       		.uleb128 0
 1121 01df 83050000 		.4byte	.LASF79
 1122 01e3 05       		.byte	0x5
 1123 01e4 00       		.uleb128 0
 1124 01e5 01270000 		.4byte	.LASF80
 1125 01e9 05       		.byte	0x5
 1126 01ea 00       		.uleb128 0
 1127 01eb 0D2B0000 		.4byte	.LASF81
 1128 01ef 05       		.byte	0x5
 1129 01f0 00       		.uleb128 0
 1130 01f1 96260000 		.4byte	.LASF82
 1131 01f5 05       		.byte	0x5
 1132 01f6 00       		.uleb128 0
 1133 01f7 D7060000 		.4byte	.LASF83
 1134 01fb 05       		.byte	0x5
 1135 01fc 00       		.uleb128 0
 1136 01fd 59250000 		.4byte	.LASF84
 1137 0201 05       		.byte	0x5
 1138 0202 00       		.uleb128 0
 1139 0203 CC1D0000 		.4byte	.LASF85
 1140 0207 05       		.byte	0x5
 1141 0208 00       		.uleb128 0
 1142 0209 9D010000 		.4byte	.LASF86
 1143 020d 05       		.byte	0x5
 1144 020e 00       		.uleb128 0
 1145 020f F1170000 		.4byte	.LASF87
 1146 0213 05       		.byte	0x5
 1147 0214 00       		.uleb128 0
 1148 0215 E8010000 		.4byte	.LASF88
 1149 0219 05       		.byte	0x5
 1150 021a 00       		.uleb128 0
 1151 021b 20230000 		.4byte	.LASF89
 1152 021f 05       		.byte	0x5
 1153 0220 00       		.uleb128 0
 1154 0221 891F0000 		.4byte	.LASF90
 1155 0225 05       		.byte	0x5
 1156 0226 00       		.uleb128 0
 1157 0227 81260000 		.4byte	.LASF91
 1158 022b 05       		.byte	0x5
 1159 022c 00       		.uleb128 0
ARM GAS  C:\Users\Daro\AppData\Local\Temp\ccMicR6A.s 			page 22


 1160 022d 55140000 		.4byte	.LASF92
 1161 0231 05       		.byte	0x5
 1162 0232 00       		.uleb128 0
 1163 0233 FB090000 		.4byte	.LASF93
 1164 0237 05       		.byte	0x5
 1165 0238 00       		.uleb128 0
 1166 0239 62010000 		.4byte	.LASF94
 1167 023d 05       		.byte	0x5
 1168 023e 00       		.uleb128 0
 1169 023f 440A0000 		.4byte	.LASF95
 1170 0243 05       		.byte	0x5
 1171 0244 00       		.uleb128 0
 1172 0245 59110000 		.4byte	.LASF96
 1173 0249 05       		.byte	0x5
 1174 024a 00       		.uleb128 0
 1175 024b 66220000 		.4byte	.LASF97
 1176 024f 05       		.byte	0x5
 1177 0250 00       		.uleb128 0
 1178 0251 FF150000 		.4byte	.LASF98
 1179 0255 05       		.byte	0x5
 1180 0256 00       		.uleb128 0
 1181 0257 BB2D0000 		.4byte	.LASF99
 1182 025b 05       		.byte	0x5
 1183 025c 00       		.uleb128 0
 1184 025d 8E020000 		.4byte	.LASF100
 1185 0261 05       		.byte	0x5
 1186 0262 00       		.uleb128 0
 1187 0263 39240000 		.4byte	.LASF101
 1188 0267 05       		.byte	0x5
 1189 0268 00       		.uleb128 0
 1190 0269 6E070000 		.4byte	.LASF102
 1191 026d 05       		.byte	0x5
 1192 026e 00       		.uleb128 0
 1193 026f D9010000 		.4byte	.LASF103
 1194 0273 05       		.byte	0x5
 1195 0274 00       		.uleb128 0
 1196 0275 58240000 		.4byte	.LASF104
 1197 0279 05       		.byte	0x5
 1198 027a 00       		.uleb128 0
 1199 027b 16040000 		.4byte	.LASF105
 1200 027f 05       		.byte	0x5
 1201 0280 00       		.uleb128 0
 1202 0281 02190000 		.4byte	.LASF106
 1203 0285 05       		.byte	0x5
 1204 0286 00       		.uleb128 0
 1205 0287 88100000 		.4byte	.LASF107
 1206 028b 05       		.byte	0x5
 1207 028c 00       		.uleb128 0
 1208 028d E70D0000 		.4byte	.LASF108
 1209 0291 05       		.byte	0x5
 1210 0292 00       		.uleb128 0
 1211 0293 98250000 		.4byte	.LASF109
 1212 0297 05       		.byte	0x5
 1213 0298 00       		.uleb128 0
 1214 0299 73290000 		.4byte	.LASF110
 1215 029d 05       		.byte	0x5
 1216 029e 00       		.uleb128 0
ARM GAS  C:\Users\Daro\AppData\Local\Temp\ccMicR6A.s 			page 23


 1217 029f DD270000 		.4byte	.LASF111
 1218 02a3 05       		.byte	0x5
 1219 02a4 00       		.uleb128 0
 1220 02a5 710D0000 		.4byte	.LASF112
 1221 02a9 05       		.byte	0x5
 1222 02aa 00       		.uleb128 0
 1223 02ab 42270000 		.4byte	.LASF113
 1224 02af 05       		.byte	0x5
 1225 02b0 00       		.uleb128 0
 1226 02b1 CC090000 		.4byte	.LASF114
 1227 02b5 05       		.byte	0x5
 1228 02b6 00       		.uleb128 0
 1229 02b7 76230000 		.4byte	.LASF115
 1230 02bb 05       		.byte	0x5
 1231 02bc 00       		.uleb128 0
 1232 02bd 87200000 		.4byte	.LASF116
 1233 02c1 05       		.byte	0x5
 1234 02c2 00       		.uleb128 0
 1235 02c3 BB220000 		.4byte	.LASF117
 1236 02c7 05       		.byte	0x5
 1237 02c8 00       		.uleb128 0
 1238 02c9 591B0000 		.4byte	.LASF118
 1239 02cd 05       		.byte	0x5
 1240 02ce 00       		.uleb128 0
 1241 02cf 21260000 		.4byte	.LASF119
 1242 02d3 05       		.byte	0x5
 1243 02d4 00       		.uleb128 0
 1244 02d5 1C300000 		.4byte	.LASF120
 1245 02d9 05       		.byte	0x5
 1246 02da 00       		.uleb128 0
 1247 02db E61C0000 		.4byte	.LASF121
 1248 02df 05       		.byte	0x5
 1249 02e0 00       		.uleb128 0
 1250 02e1 C9140000 		.4byte	.LASF122
 1251 02e5 05       		.byte	0x5
 1252 02e6 00       		.uleb128 0
 1253 02e7 12140000 		.4byte	.LASF123
 1254 02eb 05       		.byte	0x5
 1255 02ec 00       		.uleb128 0
 1256 02ed BE0D0000 		.4byte	.LASF124
 1257 02f1 05       		.byte	0x5
 1258 02f2 00       		.uleb128 0
 1259 02f3 B7130000 		.4byte	.LASF125
 1260 02f7 05       		.byte	0x5
 1261 02f8 00       		.uleb128 0
 1262 02f9 550B0000 		.4byte	.LASF126
 1263 02fd 05       		.byte	0x5
 1264 02fe 00       		.uleb128 0
 1265 02ff 112D0000 		.4byte	.LASF127
 1266 0303 05       		.byte	0x5
 1267 0304 00       		.uleb128 0
 1268 0305 4F2A0000 		.4byte	.LASF128
 1269 0309 05       		.byte	0x5
 1270 030a 00       		.uleb128 0
 1271 030b C9270000 		.4byte	.LASF129
 1272 030f 05       		.byte	0x5
 1273 0310 00       		.uleb128 0
ARM GAS  C:\Users\Daro\AppData\Local\Temp\ccMicR6A.s 			page 24


 1274 0311 08130000 		.4byte	.LASF130
 1275 0315 05       		.byte	0x5
 1276 0316 00       		.uleb128 0
 1277 0317 18200000 		.4byte	.LASF131
 1278 031b 05       		.byte	0x5
 1279 031c 00       		.uleb128 0
 1280 031d 52020000 		.4byte	.LASF132
 1281 0321 05       		.byte	0x5
 1282 0322 00       		.uleb128 0
 1283 0323 FA160000 		.4byte	.LASF133
 1284 0327 05       		.byte	0x5
 1285 0328 00       		.uleb128 0
 1286 0329 A10A0000 		.4byte	.LASF134
 1287 032d 05       		.byte	0x5
 1288 032e 00       		.uleb128 0
 1289 032f A01E0000 		.4byte	.LASF135
 1290 0333 05       		.byte	0x5
 1291 0334 00       		.uleb128 0
 1292 0335 71140000 		.4byte	.LASF136
 1293 0339 05       		.byte	0x5
 1294 033a 00       		.uleb128 0
 1295 033b A9090000 		.4byte	.LASF137
 1296 033f 05       		.byte	0x5
 1297 0340 00       		.uleb128 0
 1298 0341 C62A0000 		.4byte	.LASF138
 1299 0345 05       		.byte	0x5
 1300 0346 00       		.uleb128 0
 1301 0347 440B0000 		.4byte	.LASF139
 1302 034b 05       		.byte	0x5
 1303 034c 00       		.uleb128 0
 1304 034d 2F050000 		.4byte	.LASF140
 1305 0351 05       		.byte	0x5
 1306 0352 00       		.uleb128 0
 1307 0353 84160000 		.4byte	.LASF141
 1308 0357 05       		.byte	0x5
 1309 0358 00       		.uleb128 0
 1310 0359 76020000 		.4byte	.LASF142
 1311 035d 05       		.byte	0x5
 1312 035e 00       		.uleb128 0
 1313 035f 28140000 		.4byte	.LASF143
 1314 0363 05       		.byte	0x5
 1315 0364 00       		.uleb128 0
 1316 0365 6A1A0000 		.4byte	.LASF144
 1317 0369 05       		.byte	0x5
 1318 036a 00       		.uleb128 0
 1319 036b 0C2C0000 		.4byte	.LASF145
 1320 036f 05       		.byte	0x5
 1321 0370 00       		.uleb128 0
 1322 0371 98000000 		.4byte	.LASF146
 1323 0375 05       		.byte	0x5
 1324 0376 00       		.uleb128 0
 1325 0377 44030000 		.4byte	.LASF147
 1326 037b 05       		.byte	0x5
 1327 037c 00       		.uleb128 0
 1328 037d 8E110000 		.4byte	.LASF148
 1329 0381 05       		.byte	0x5
 1330 0382 00       		.uleb128 0
ARM GAS  C:\Users\Daro\AppData\Local\Temp\ccMicR6A.s 			page 25


 1331 0383 630B0000 		.4byte	.LASF149
 1332 0387 05       		.byte	0x5
 1333 0388 00       		.uleb128 0
 1334 0389 AF2B0000 		.4byte	.LASF150
 1335 038d 05       		.byte	0x5
 1336 038e 00       		.uleb128 0
 1337 038f 2F2E0000 		.4byte	.LASF151
 1338 0393 05       		.byte	0x5
 1339 0394 00       		.uleb128 0
 1340 0395 852A0000 		.4byte	.LASF152
 1341 0399 05       		.byte	0x5
 1342 039a 00       		.uleb128 0
 1343 039b 5D100000 		.4byte	.LASF153
 1344 039f 05       		.byte	0x5
 1345 03a0 00       		.uleb128 0
 1346 03a1 A5180000 		.4byte	.LASF154
 1347 03a5 05       		.byte	0x5
 1348 03a6 00       		.uleb128 0
 1349 03a7 02060000 		.4byte	.LASF155
 1350 03ab 05       		.byte	0x5
 1351 03ac 00       		.uleb128 0
 1352 03ad FE1C0000 		.4byte	.LASF156
 1353 03b1 05       		.byte	0x5
 1354 03b2 00       		.uleb128 0
 1355 03b3 B1240000 		.4byte	.LASF157
 1356 03b7 05       		.byte	0x5
 1357 03b8 00       		.uleb128 0
 1358 03b9 45210000 		.4byte	.LASF158
 1359 03bd 05       		.byte	0x5
 1360 03be 00       		.uleb128 0
 1361 03bf 181E0000 		.4byte	.LASF159
 1362 03c3 05       		.byte	0x5
 1363 03c4 00       		.uleb128 0
 1364 03c5 A82D0000 		.4byte	.LASF160
 1365 03c9 05       		.byte	0x5
 1366 03ca 00       		.uleb128 0
 1367 03cb 5A180000 		.4byte	.LASF161
 1368 03cf 05       		.byte	0x5
 1369 03d0 00       		.uleb128 0
 1370 03d1 991C0000 		.4byte	.LASF162
 1371 03d5 05       		.byte	0x5
 1372 03d6 00       		.uleb128 0
 1373 03d7 C7280000 		.4byte	.LASF163
 1374 03db 05       		.byte	0x5
 1375 03dc 00       		.uleb128 0
 1376 03dd 5F0F0000 		.4byte	.LASF164
 1377 03e1 05       		.byte	0x5
 1378 03e2 00       		.uleb128 0
 1379 03e3 B92F0000 		.4byte	.LASF165
 1380 03e7 05       		.byte	0x5
 1381 03e8 00       		.uleb128 0
 1382 03e9 CE1C0000 		.4byte	.LASF166
 1383 03ed 05       		.byte	0x5
 1384 03ee 00       		.uleb128 0
 1385 03ef F6210000 		.4byte	.LASF167
 1386 03f3 05       		.byte	0x5
 1387 03f4 00       		.uleb128 0
ARM GAS  C:\Users\Daro\AppData\Local\Temp\ccMicR6A.s 			page 26


 1388 03f5 9E1D0000 		.4byte	.LASF168
 1389 03f9 05       		.byte	0x5
 1390 03fa 00       		.uleb128 0
 1391 03fb 35280000 		.4byte	.LASF169
 1392 03ff 05       		.byte	0x5
 1393 0400 00       		.uleb128 0
 1394 0401 9E100000 		.4byte	.LASF170
 1395 0405 05       		.byte	0x5
 1396 0406 00       		.uleb128 0
 1397 0407 F90B0000 		.4byte	.LASF171
 1398 040b 05       		.byte	0x5
 1399 040c 00       		.uleb128 0
 1400 040d 1F160000 		.4byte	.LASF172
 1401 0411 05       		.byte	0x5
 1402 0412 00       		.uleb128 0
 1403 0413 E9050000 		.4byte	.LASF173
 1404 0417 05       		.byte	0x5
 1405 0418 00       		.uleb128 0
 1406 0419 9B190000 		.4byte	.LASF174
 1407 041d 05       		.byte	0x5
 1408 041e 00       		.uleb128 0
 1409 041f 06300000 		.4byte	.LASF175
 1410 0423 05       		.byte	0x5
 1411 0424 00       		.uleb128 0
 1412 0425 B31D0000 		.4byte	.LASF176
 1413 0429 05       		.byte	0x5
 1414 042a 00       		.uleb128 0
 1415 042b D1200000 		.4byte	.LASF177
 1416 042f 05       		.byte	0x5
 1417 0430 00       		.uleb128 0
 1418 0431 EC2E0000 		.4byte	.LASF178
 1419 0435 05       		.byte	0x5
 1420 0436 00       		.uleb128 0
 1421 0437 BD0E0000 		.4byte	.LASF179
 1422 043b 05       		.byte	0x5
 1423 043c 00       		.uleb128 0
 1424 043d 48010000 		.4byte	.LASF180
 1425 0441 05       		.byte	0x5
 1426 0442 00       		.uleb128 0
 1427 0443 67000000 		.4byte	.LASF181
 1428 0447 05       		.byte	0x5
 1429 0448 00       		.uleb128 0
 1430 0449 16100000 		.4byte	.LASF182
 1431 044d 05       		.byte	0x5
 1432 044e 00       		.uleb128 0
 1433 044f F60C0000 		.4byte	.LASF183
 1434 0453 05       		.byte	0x5
 1435 0454 00       		.uleb128 0
 1436 0455 92210000 		.4byte	.LASF184
 1437 0459 05       		.byte	0x5
 1438 045a 00       		.uleb128 0
 1439 045b F2040000 		.4byte	.LASF185
 1440 045f 05       		.byte	0x5
 1441 0460 00       		.uleb128 0
 1442 0461 432D0000 		.4byte	.LASF186
 1443 0465 05       		.byte	0x5
 1444 0466 00       		.uleb128 0
ARM GAS  C:\Users\Daro\AppData\Local\Temp\ccMicR6A.s 			page 27


 1445 0467 560D0000 		.4byte	.LASF187
 1446 046b 05       		.byte	0x5
 1447 046c 00       		.uleb128 0
 1448 046d 7B080000 		.4byte	.LASF188
 1449 0471 05       		.byte	0x5
 1450 0472 00       		.uleb128 0
 1451 0473 301E0000 		.4byte	.LASF189
 1452 0477 05       		.byte	0x5
 1453 0478 00       		.uleb128 0
 1454 0479 BC230000 		.4byte	.LASF190
 1455 047d 05       		.byte	0x5
 1456 047e 00       		.uleb128 0
 1457 047f C00F0000 		.4byte	.LASF191
 1458 0483 05       		.byte	0x5
 1459 0484 00       		.uleb128 0
 1460 0485 A70C0000 		.4byte	.LASF192
 1461 0489 05       		.byte	0x5
 1462 048a 00       		.uleb128 0
 1463 048b CC250000 		.4byte	.LASF193
 1464 048f 05       		.byte	0x5
 1465 0490 00       		.uleb128 0
 1466 0491 44230000 		.4byte	.LASF194
 1467 0495 05       		.byte	0x5
 1468 0496 00       		.uleb128 0
 1469 0497 2B290000 		.4byte	.LASF195
 1470 049b 05       		.byte	0x5
 1471 049c 00       		.uleb128 0
 1472 049d 73030000 		.4byte	.LASF196
 1473 04a1 05       		.byte	0x5
 1474 04a2 00       		.uleb128 0
 1475 04a3 73110000 		.4byte	.LASF197
 1476 04a7 05       		.byte	0x5
 1477 04a8 00       		.uleb128 0
 1478 04a9 9D220000 		.4byte	.LASF198
 1479 04ad 05       		.byte	0x5
 1480 04ae 00       		.uleb128 0
 1481 04af 9C140000 		.4byte	.LASF199
 1482 04b3 05       		.byte	0x5
 1483 04b4 00       		.uleb128 0
 1484 04b5 881C0000 		.4byte	.LASF200
 1485 04b9 05       		.byte	0x5
 1486 04ba 00       		.uleb128 0
 1487 04bb E30E0000 		.4byte	.LASF201
 1488 04bf 05       		.byte	0x5
 1489 04c0 00       		.uleb128 0
 1490 04c1 021C0000 		.4byte	.LASF202
 1491 04c5 05       		.byte	0x5
 1492 04c6 00       		.uleb128 0
 1493 04c7 BE260000 		.4byte	.LASF203
 1494 04cb 05       		.byte	0x5
 1495 04cc 00       		.uleb128 0
 1496 04cd 88190000 		.4byte	.LASF204
 1497 04d1 05       		.byte	0x5
 1498 04d2 00       		.uleb128 0
 1499 04d3 8C1D0000 		.4byte	.LASF205
 1500 04d7 05       		.byte	0x5
 1501 04d8 00       		.uleb128 0
ARM GAS  C:\Users\Daro\AppData\Local\Temp\ccMicR6A.s 			page 28


 1502 04d9 1B0F0000 		.4byte	.LASF206
 1503 04dd 05       		.byte	0x5
 1504 04de 00       		.uleb128 0
 1505 04df 8B0C0000 		.4byte	.LASF207
 1506 04e3 05       		.byte	0x5
 1507 04e4 00       		.uleb128 0
 1508 04e5 DD160000 		.4byte	.LASF208
 1509 04e9 05       		.byte	0x5
 1510 04ea 00       		.uleb128 0
 1511 04eb 3B160000 		.4byte	.LASF209
 1512 04ef 05       		.byte	0x5
 1513 04f0 00       		.uleb128 0
 1514 04f1 86070000 		.4byte	.LASF210
 1515 04f5 05       		.byte	0x5
 1516 04f6 00       		.uleb128 0
 1517 04f7 B8020000 		.4byte	.LASF211
 1518 04fb 05       		.byte	0x5
 1519 04fc 00       		.uleb128 0
 1520 04fd 822E0000 		.4byte	.LASF212
 1521 0501 05       		.byte	0x5
 1522 0502 00       		.uleb128 0
 1523 0503 290E0000 		.4byte	.LASF213
 1524 0507 05       		.byte	0x5
 1525 0508 00       		.uleb128 0
 1526 0509 871B0000 		.4byte	.LASF214
 1527 050d 05       		.byte	0x5
 1528 050e 00       		.uleb128 0
 1529 050f 8F0D0000 		.4byte	.LASF215
 1530 0513 05       		.byte	0x5
 1531 0514 00       		.uleb128 0
 1532 0515 A0130000 		.4byte	.LASF216
 1533 0519 05       		.byte	0x5
 1534 051a 00       		.uleb128 0
 1535 051b FB240000 		.4byte	.LASF217
 1536 051f 05       		.byte	0x5
 1537 0520 00       		.uleb128 0
 1538 0521 370D0000 		.4byte	.LASF218
 1539 0525 05       		.byte	0x5
 1540 0526 00       		.uleb128 0
 1541 0527 66150000 		.4byte	.LASF219
 1542 052b 05       		.byte	0x5
 1543 052c 00       		.uleb128 0
 1544 052d EE0F0000 		.4byte	.LASF220
 1545 0531 05       		.byte	0x5
 1546 0532 00       		.uleb128 0
 1547 0533 BE1A0000 		.4byte	.LASF221
 1548 0537 05       		.byte	0x5
 1549 0538 00       		.uleb128 0
 1550 0539 1A0B0000 		.4byte	.LASF222
 1551 053d 05       		.byte	0x5
 1552 053e 00       		.uleb128 0
 1553 053f F91D0000 		.4byte	.LASF223
 1554 0543 05       		.byte	0x5
 1555 0544 00       		.uleb128 0
 1556 0545 171D0000 		.4byte	.LASF224
 1557 0549 05       		.byte	0x5
 1558 054a 00       		.uleb128 0
ARM GAS  C:\Users\Daro\AppData\Local\Temp\ccMicR6A.s 			page 29


 1559 054b C0080000 		.4byte	.LASF225
 1560 054f 05       		.byte	0x5
 1561 0550 00       		.uleb128 0
 1562 0551 CE0D0000 		.4byte	.LASF226
 1563 0555 05       		.byte	0x5
 1564 0556 00       		.uleb128 0
 1565 0557 C6040000 		.4byte	.LASF227
 1566 055b 05       		.byte	0x5
 1567 055c 00       		.uleb128 0
 1568 055d 982F0000 		.4byte	.LASF228
 1569 0561 05       		.byte	0x5
 1570 0562 00       		.uleb128 0
 1571 0563 950E0000 		.4byte	.LASF229
 1572 0567 05       		.byte	0x5
 1573 0568 00       		.uleb128 0
 1574 0569 B42A0000 		.4byte	.LASF230
 1575 056d 05       		.byte	0x5
 1576 056e 00       		.uleb128 0
 1577 056f 37250000 		.4byte	.LASF231
 1578 0573 05       		.byte	0x5
 1579 0574 00       		.uleb128 0
 1580 0575 80180000 		.4byte	.LASF232
 1581 0579 05       		.byte	0x5
 1582 057a 00       		.uleb128 0
 1583 057b 0A120000 		.4byte	.LASF233
 1584 057f 05       		.byte	0x5
 1585 0580 00       		.uleb128 0
 1586 0581 7F210000 		.4byte	.LASF234
 1587 0585 05       		.byte	0x5
 1588 0586 00       		.uleb128 0
 1589 0587 42140000 		.4byte	.LASF235
 1590 058b 05       		.byte	0x5
 1591 058c 00       		.uleb128 0
 1592 058d 14290000 		.4byte	.LASF236
 1593 0591 05       		.byte	0x5
 1594 0592 00       		.uleb128 0
 1595 0593 021F0000 		.4byte	.LASF237
 1596 0597 05       		.byte	0x5
 1597 0598 00       		.uleb128 0
 1598 0599 2F0C0000 		.4byte	.LASF238
 1599 059d 05       		.byte	0x5
 1600 059e 00       		.uleb128 0
 1601 059f 0F150000 		.4byte	.LASF239
 1602 05a3 05       		.byte	0x5
 1603 05a4 00       		.uleb128 0
 1604 05a5 4D0F0000 		.4byte	.LASF240
 1605 05a9 05       		.byte	0x5
 1606 05aa 00       		.uleb128 0
 1607 05ab B71B0000 		.4byte	.LASF241
 1608 05af 05       		.byte	0x5
 1609 05b0 00       		.uleb128 0
 1610 05b1 6E1D0000 		.4byte	.LASF242
 1611 05b5 05       		.byte	0x5
 1612 05b6 00       		.uleb128 0
 1613 05b7 3C170000 		.4byte	.LASF243
 1614 05bb 05       		.byte	0x5
 1615 05bc 00       		.uleb128 0
ARM GAS  C:\Users\Daro\AppData\Local\Temp\ccMicR6A.s 			page 30


 1616 05bd 2C300000 		.4byte	.LASF244
 1617 05c1 05       		.byte	0x5
 1618 05c2 00       		.uleb128 0
 1619 05c3 FF130000 		.4byte	.LASF245
 1620 05c7 05       		.byte	0x5
 1621 05c8 00       		.uleb128 0
 1622 05c9 140E0000 		.4byte	.LASF246
 1623 05cd 05       		.byte	0x5
 1624 05ce 00       		.uleb128 0
 1625 05cf B1200000 		.4byte	.LASF247
 1626 05d3 05       		.byte	0x5
 1627 05d4 00       		.uleb128 0
 1628 05d5 300F0000 		.4byte	.LASF248
 1629 05d9 05       		.byte	0x5
 1630 05da 00       		.uleb128 0
 1631 05db B5160000 		.4byte	.LASF249
 1632 05df 05       		.byte	0x5
 1633 05e0 00       		.uleb128 0
 1634 05e1 46110000 		.4byte	.LASF250
 1635 05e5 05       		.byte	0x5
 1636 05e6 00       		.uleb128 0
 1637 05e7 37090000 		.4byte	.LASF251
 1638 05eb 05       		.byte	0x5
 1639 05ec 00       		.uleb128 0
 1640 05ed C81F0000 		.4byte	.LASF252
 1641 05f1 05       		.byte	0x5
 1642 05f2 00       		.uleb128 0
 1643 05f3 AF250000 		.4byte	.LASF253
 1644 05f7 05       		.byte	0x5
 1645 05f8 00       		.uleb128 0
 1646 05f9 731B0000 		.4byte	.LASF254
 1647 05fd 05       		.byte	0x5
 1648 05fe 00       		.uleb128 0
 1649 05ff 52150000 		.4byte	.LASF255
 1650 0603 05       		.byte	0x5
 1651 0604 00       		.uleb128 0
 1652 0605 87090000 		.4byte	.LASF256
 1653 0609 05       		.byte	0x5
 1654 060a 00       		.uleb128 0
 1655 060b 610C0000 		.4byte	.LASF257
 1656 060f 05       		.byte	0x5
 1657 0610 00       		.uleb128 0
 1658 0611 6A1F0000 		.4byte	.LASF258
 1659 0615 05       		.byte	0x5
 1660 0616 00       		.uleb128 0
 1661 0617 D82E0000 		.4byte	.LASF259
 1662 061b 05       		.byte	0x5
 1663 061c 00       		.uleb128 0
 1664 061d 2C060000 		.4byte	.LASF260
 1665 0621 05       		.byte	0x5
 1666 0622 00       		.uleb128 0
 1667 0623 BD110000 		.4byte	.LASF261
 1668 0627 05       		.byte	0x5
 1669 0628 00       		.uleb128 0
 1670 0629 47130000 		.4byte	.LASF262
 1671 062d 05       		.byte	0x5
 1672 062e 00       		.uleb128 0
ARM GAS  C:\Users\Daro\AppData\Local\Temp\ccMicR6A.s 			page 31


 1673 062f 71130000 		.4byte	.LASF263
 1674 0633 05       		.byte	0x5
 1675 0634 00       		.uleb128 0
 1676 0635 D9290000 		.4byte	.LASF264
 1677 0639 05       		.byte	0x5
 1678 063a 00       		.uleb128 0
 1679 063b 0B230000 		.4byte	.LASF265
 1680 063f 05       		.byte	0x5
 1681 0640 00       		.uleb128 0
 1682 0641 6B0A0000 		.4byte	.LASF266
 1683 0645 05       		.byte	0x5
 1684 0646 00       		.uleb128 0
 1685 0647 5B090000 		.4byte	.LASF267
 1686 064b 05       		.byte	0x5
 1687 064c 00       		.uleb128 0
 1688 064d E52F0000 		.4byte	.LASF268
 1689 0651 05       		.byte	0x5
 1690 0652 00       		.uleb128 0
 1691 0653 7C2C0000 		.4byte	.LASF269
 1692 0657 05       		.byte	0x5
 1693 0658 00       		.uleb128 0
 1694 0659 C00C0000 		.4byte	.LASF270
 1695 065d 05       		.byte	0x5
 1696 065e 00       		.uleb128 0
 1697 065f 67230000 		.4byte	.LASF271
 1698 0663 05       		.byte	0x5
 1699 0664 00       		.uleb128 0
 1700 0665 02020000 		.4byte	.LASF272
 1701 0669 05       		.byte	0x5
 1702 066a 00       		.uleb128 0
 1703 066b 5B210000 		.4byte	.LASF273
 1704 066f 05       		.byte	0x5
 1705 0670 00       		.uleb128 0
 1706 0671 0A200000 		.4byte	.LASF274
 1707 0675 05       		.byte	0x5
 1708 0676 00       		.uleb128 0
 1709 0677 F31E0000 		.4byte	.LASF275
 1710 067b 05       		.byte	0x5
 1711 067c 00       		.uleb128 0
 1712 067d 65290000 		.4byte	.LASF276
 1713 0681 05       		.byte	0x5
 1714 0682 00       		.uleb128 0
 1715 0683 8D220000 		.4byte	.LASF277
 1716 0687 05       		.byte	0x5
 1717 0688 00       		.uleb128 0
 1718 0689 BA180000 		.4byte	.LASF278
 1719 068d 05       		.byte	0x5
 1720 068e 00       		.uleb128 0
 1721 068f 52200000 		.4byte	.LASF279
 1722 0693 05       		.byte	0x5
 1723 0694 00       		.uleb128 0
 1724 0695 E5230000 		.4byte	.LASF280
 1725 0699 05       		.byte	0x5
 1726 069a 00       		.uleb128 0
 1727 069b E7200000 		.4byte	.LASF281
 1728 069f 05       		.byte	0x5
 1729 06a0 00       		.uleb128 0
ARM GAS  C:\Users\Daro\AppData\Local\Temp\ccMicR6A.s 			page 32


 1730 06a1 A8120000 		.4byte	.LASF282
 1731 06a5 05       		.byte	0x5
 1732 06a6 00       		.uleb128 0
 1733 06a7 F1250000 		.4byte	.LASF283
 1734 06ab 05       		.byte	0x5
 1735 06ac 00       		.uleb128 0
 1736 06ad CB130000 		.4byte	.LASF284
 1737 06b1 05       		.byte	0x5
 1738 06b2 00       		.uleb128 0
 1739 06b3 57230000 		.4byte	.LASF285
 1740 06b7 05       		.byte	0x5
 1741 06b8 00       		.uleb128 0
 1742 06b9 29020000 		.4byte	.LASF286
 1743 06bd 05       		.byte	0x5
 1744 06be 00       		.uleb128 0
 1745 06bf E0170000 		.4byte	.LASF287
 1746 06c3 05       		.byte	0x5
 1747 06c4 00       		.uleb128 0
 1748 06c5 A20D0000 		.4byte	.LASF288
 1749 06c9 05       		.byte	0x5
 1750 06ca 00       		.uleb128 0
 1751 06cb 1D250000 		.4byte	.LASF289
 1752 06cf 05       		.byte	0x5
 1753 06d0 00       		.uleb128 0
 1754 06d1 01260000 		.4byte	.LASF290
 1755 06d5 05       		.byte	0x5
 1756 06d6 00       		.uleb128 0
 1757 06d7 FB110000 		.4byte	.LASF291
 1758 06db 05       		.byte	0x5
 1759 06dc 00       		.uleb128 0
 1760 06dd 0B0B0000 		.4byte	.LASF292
 1761 06e1 05       		.byte	0x5
 1762 06e2 00       		.uleb128 0
 1763 06e3 BA0B0000 		.4byte	.LASF293
 1764 06e7 05       		.byte	0x5
 1765 06e8 00       		.uleb128 0
 1766 06e9 1F110000 		.4byte	.LASF294
 1767 06ed 05       		.byte	0x5
 1768 06ee 00       		.uleb128 0
 1769 06ef BF1C0000 		.4byte	.LASF295
 1770 06f3 05       		.byte	0x5
 1771 06f4 00       		.uleb128 0
 1772 06f5 6D2C0000 		.4byte	.LASF296
 1773 06f9 05       		.byte	0x5
 1774 06fa 00       		.uleb128 0
 1775 06fb C8180000 		.4byte	.LASF297
 1776 06ff 05       		.byte	0x5
 1777 0700 00       		.uleb128 0
 1778 0701 96230000 		.4byte	.LASF298
 1779 0705 05       		.byte	0x5
 1780 0706 00       		.uleb128 0
 1781 0707 7F150000 		.4byte	.LASF299
 1782 070b 05       		.byte	0x5
 1783 070c 00       		.uleb128 0
 1784 070d DE0F0000 		.4byte	.LASF300
 1785 0711 05       		.byte	0x5
 1786 0712 00       		.uleb128 0
ARM GAS  C:\Users\Daro\AppData\Local\Temp\ccMicR6A.s 			page 33


 1787 0713 B52E0000 		.4byte	.LASF301
 1788 0717 05       		.byte	0x5
 1789 0718 00       		.uleb128 0
 1790 0719 EB090000 		.4byte	.LASF302
 1791 071d 05       		.byte	0x5
 1792 071e 00       		.uleb128 0
 1793 071f 1F050000 		.4byte	.LASF303
 1794 0723 05       		.byte	0x5
 1795 0724 00       		.uleb128 0
 1796 0725 5E2E0000 		.4byte	.LASF304
 1797 0729 05       		.byte	0x5
 1798 072a 00       		.uleb128 0
 1799 072b 9E060000 		.4byte	.LASF305
 1800 072f 05       		.byte	0x5
 1801 0730 00       		.uleb128 0
 1802 0731 29220000 		.4byte	.LASF306
 1803 0735 05       		.byte	0x5
 1804 0736 00       		.uleb128 0
 1805 0737 14010000 		.4byte	.LASF307
 1806 073b 05       		.byte	0x5
 1807 073c 00       		.uleb128 0
 1808 073d 90130000 		.4byte	.LASF308
 1809 0741 05       		.byte	0x5
 1810 0742 00       		.uleb128 0
 1811 0743 082E0000 		.4byte	.LASF309
 1812 0747 05       		.byte	0x5
 1813 0748 00       		.uleb128 0
 1814 0749 F7220000 		.4byte	.LASF310
 1815 074d 05       		.byte	0x5
 1816 074e 00       		.uleb128 0
 1817 074f E60A0000 		.4byte	.LASF311
 1818 0753 05       		.byte	0x5
 1819 0754 00       		.uleb128 0
 1820 0755 950B0000 		.4byte	.LASF312
 1821 0759 05       		.byte	0x5
 1822 075a 00       		.uleb128 0
 1823 075b DA130000 		.4byte	.LASF313
 1824 075f 05       		.byte	0x5
 1825 0760 00       		.uleb128 0
 1826 0761 3C180000 		.4byte	.LASF314
 1827 0765 05       		.byte	0x5
 1828 0766 00       		.uleb128 0
 1829 0767 8A120000 		.4byte	.LASF315
 1830 076b 05       		.byte	0x5
 1831 076c 00       		.uleb128 0
 1832 076d 93160000 		.4byte	.LASF316
 1833 0771 05       		.byte	0x5
 1834 0772 00       		.uleb128 0
 1835 0773 3D260000 		.4byte	.LASF317
 1836 0777 05       		.byte	0x5
 1837 0778 00       		.uleb128 0
 1838 0779 31150000 		.4byte	.LASF318
 1839 077d 05       		.byte	0x5
 1840 077e 00       		.uleb128 0
 1841 077f 162A0000 		.4byte	.LASF319
 1842 0783 05       		.byte	0x5
 1843 0784 00       		.uleb128 0
ARM GAS  C:\Users\Daro\AppData\Local\Temp\ccMicR6A.s 			page 34


 1844 0785 FE0E0000 		.4byte	.LASF320
 1845 0789 05       		.byte	0x5
 1846 078a 00       		.uleb128 0
 1847 078b 1E170000 		.4byte	.LASF321
 1848 078f 05       		.byte	0x5
 1849 0790 00       		.uleb128 0
 1850 0791 AA270000 		.4byte	.LASF322
 1851 0795 05       		.byte	0x5
 1852 0796 00       		.uleb128 0
 1853 0797 48190000 		.4byte	.LASF323
 1854 079b 05       		.byte	0x5
 1855 079c 00       		.uleb128 0
 1856 079d 77250000 		.4byte	.LASF324
 1857 07a1 05       		.byte	0x5
 1858 07a2 00       		.uleb128 0
 1859 07a3 6C190000 		.4byte	.LASF325
 1860 07a7 05       		.byte	0x5
 1861 07a8 00       		.uleb128 0
 1862 07a9 26270000 		.4byte	.LASF326
 1863 07ad 05       		.byte	0x5
 1864 07ae 00       		.uleb128 0
 1865 07af 2C1D0000 		.4byte	.LASF327
 1866 07b3 05       		.byte	0x5
 1867 07b4 00       		.uleb128 0
 1868 07b5 D6020000 		.4byte	.LASF328
 1869 07b9 05       		.byte	0x5
 1870 07ba 00       		.uleb128 0
 1871 07bb A90F0000 		.4byte	.LASF329
 1872 07bf 05       		.byte	0x5
 1873 07c0 00       		.uleb128 0
 1874 07c1 0B050000 		.4byte	.LASF330
 1875 07c5 05       		.byte	0x5
 1876 07c6 00       		.uleb128 0
 1877 07c7 4B2F0000 		.4byte	.LASF331
 1878 07cb 05       		.byte	0x5
 1879 07cc 00       		.uleb128 0
 1880 07cd 6E2E0000 		.4byte	.LASF332
 1881 07d1 05       		.byte	0x5
 1882 07d2 00       		.uleb128 0
 1883 07d3 2E190000 		.4byte	.LASF333
 1884 07d7 05       		.byte	0x5
 1885 07d8 00       		.uleb128 0
 1886 07d9 D5030000 		.4byte	.LASF334
 1887 07dd 05       		.byte	0x5
 1888 07de 00       		.uleb128 0
 1889 07df 411F0000 		.4byte	.LASF335
 1890 07e3 05       		.byte	0x5
 1891 07e4 00       		.uleb128 0
 1892 07e5 B7120000 		.4byte	.LASF336
 1893 07e9 05       		.byte	0x5
 1894 07ea 00       		.uleb128 0
 1895 07eb A5230000 		.4byte	.LASF337
 1896 07ef 05       		.byte	0x5
 1897 07f0 00       		.uleb128 0
 1898 07f1 C90B0000 		.4byte	.LASF338
 1899 07f5 05       		.byte	0x5
 1900 07f6 00       		.uleb128 0
ARM GAS  C:\Users\Daro\AppData\Local\Temp\ccMicR6A.s 			page 35


 1901 07f7 75220000 		.4byte	.LASF339
 1902 07fb 05       		.byte	0x5
 1903 07fc 00       		.uleb128 0
 1904 07fd A70E0000 		.4byte	.LASF340
 1905 0801 05       		.byte	0x5
 1906 0802 00       		.uleb128 0
 1907 0803 9B180000 		.4byte	.LASF341
 1908 0807 05       		.byte	0x5
 1909 0808 00       		.uleb128 0
 1910 0809 A7070000 		.4byte	.LASF342
 1911 080d 05       		.byte	0x5
 1912 080e 00       		.uleb128 0
 1913 080f 442B0000 		.4byte	.LASF343
 1914 0813 05       		.byte	0x5
 1915 0814 00       		.uleb128 0
 1916 0815 EA210000 		.4byte	.LASF344
 1917 0819 05       		.byte	0x5
 1918 081a 00       		.uleb128 0
 1919 081b 520A0000 		.4byte	.LASF345
 1920 081f 05       		.byte	0x5
 1921 0820 00       		.uleb128 0
 1922 0821 8B170000 		.4byte	.LASF346
 1923 0825 05       		.byte	0x5
 1924 0826 00       		.uleb128 0
 1925 0827 C0090000 		.4byte	.LASF347
 1926 082b 05       		.byte	0x5
 1927 082c 00       		.uleb128 0
 1928 082d FD100000 		.4byte	.LASF348
 1929 0831 05       		.byte	0x5
 1930 0832 00       		.uleb128 0
 1931 0833 EE240000 		.4byte	.LASF349
 1932 0837 05       		.byte	0x5
 1933 0838 00       		.uleb128 0
 1934 0839 9E090000 		.4byte	.LASF350
 1935 083d 05       		.byte	0x5
 1936 083e 00       		.uleb128 0
 1937 083f 842F0000 		.4byte	.LASF351
 1938 0843 05       		.byte	0x5
 1939 0844 00       		.uleb128 0
 1940 0845 E7220000 		.4byte	.LASF352
 1941 0849 05       		.byte	0x5
 1942 084a 00       		.uleb128 0
 1943 084b 86140000 		.4byte	.LASF353
 1944 084f 05       		.byte	0x5
 1945 0850 00       		.uleb128 0
 1946 0851 C52E0000 		.4byte	.LASF354
 1947 0855 05       		.byte	0x5
 1948 0856 00       		.uleb128 0
 1949 0857 04290000 		.4byte	.LASF355
 1950 085b 05       		.byte	0x5
 1951 085c 00       		.uleb128 0
 1952 085d DF140000 		.4byte	.LASF356
 1953 0861 05       		.byte	0x5
 1954 0862 00       		.uleb128 0
 1955 0863 2D100000 		.4byte	.LASF357
 1956 0867 05       		.byte	0x5
 1957 0868 00       		.uleb128 0
ARM GAS  C:\Users\Daro\AppData\Local\Temp\ccMicR6A.s 			page 36


 1958 0869 B3100000 		.4byte	.LASF358
 1959 086d 05       		.byte	0x5
 1960 086e 00       		.uleb128 0
 1961 086f 24190000 		.4byte	.LASF359
 1962 0873 05       		.byte	0x5
 1963 0874 00       		.uleb128 0
 1964 0875 E50B0000 		.4byte	.LASF360
 1965 0879 05       		.byte	0x5
 1966 087a 00       		.uleb128 0
 1967 087b 110D0000 		.4byte	.LASF361
 1968 087f 05       		.byte	0x5
 1969 0880 00       		.uleb128 0
 1970 0881 98070000 		.4byte	.LASF362
 1971 0885 05       		.byte	0x5
 1972 0886 00       		.uleb128 0
 1973 0887 D9050000 		.4byte	.LASF363
 1974 088b 00       		.byte	0
 1975              		.section	.debug_macro,"G",%progbits,wm4.features.h.22.bee0aee4a3878f51861c775df98fa3ea,comdat
 1976              	.Ldebug_macro2:
 1977 0000 0400     		.2byte	0x4
 1978 0002 00       		.byte	0
 1979 0003 05       		.byte	0x5
 1980 0004 16       		.uleb128 0x16
 1981 0005 CE0C0000 		.4byte	.LASF367
 1982 0009 05       		.byte	0x5
 1983 000a 1F       		.uleb128 0x1f
 1984 000b B10D0000 		.4byte	.LASF368
 1985 000f 05       		.byte	0x5
 1986 0010 20       		.uleb128 0x20
 1987 0011 571F0000 		.4byte	.LASF369
 1988 0015 05       		.byte	0x5
 1989 0016 25       		.uleb128 0x25
 1990 0017 EA020000 		.4byte	.LASF370
 1991 001b 05       		.byte	0x5
 1992 001c 2C       		.uleb128 0x2c
 1993 001d 9B1F0000 		.4byte	.LASF371
 1994 0021 00       		.byte	0
 1995              		.section	.debug_macro,"G",%progbits,wm4._default_types.h.15.933e8edd27a65e0b69af4a865eb623d2,comda
 1996              	.Ldebug_macro3:
 1997 0000 0400     		.2byte	0x4
 1998 0002 00       		.byte	0
 1999 0003 05       		.byte	0x5
 2000 0004 0F       		.uleb128 0xf
 2001 0005 6A210000 		.4byte	.LASF372
 2002 0009 05       		.byte	0x5
 2003 000a 21       		.uleb128 0x21
 2004 000b 4D0C0000 		.4byte	.LASF373
 2005 000f 05       		.byte	0x5
 2006 0010 2F       		.uleb128 0x2f
 2007 0011 C8160000 		.4byte	.LASF374
 2008 0015 05       		.byte	0x5
 2009 0016 45       		.uleb128 0x45
 2010 0017 26120000 		.4byte	.LASF375
 2011 001b 05       		.byte	0x5
 2012 001c 5F       		.uleb128 0x5f
 2013 001d 01100000 		.4byte	.LASF376
 2014 0021 05       		.byte	0x5
ARM GAS  C:\Users\Daro\AppData\Local\Temp\ccMicR6A.s 			page 37


 2015 0022 7E       		.uleb128 0x7e
 2016 0023 352A0000 		.4byte	.LASF377
 2017 0027 05       		.byte	0x5
 2018 0028 9801     		.uleb128 0x98
 2019 002a E4150000 		.4byte	.LASF378
 2020 002e 05       		.byte	0x5
 2021 002f AE01     		.uleb128 0xae
 2022 0031 282D0000 		.4byte	.LASF379
 2023 0035 05       		.byte	0x5
 2024 0036 C001     		.uleb128 0xc0
 2025 0038 AE140000 		.4byte	.LASF380
 2026 003c 06       		.byte	0x6
 2027 003d D601     		.uleb128 0xd6
 2028 003f EE290000 		.4byte	.LASF381
 2029 0043 00       		.byte	0
 2030              		.section	.debug_macro,"G",%progbits,wm4._intsup.h.10.ca9f32a61b410c270a48d1161ca2c217,comdat
 2031              	.Ldebug_macro4:
 2032 0000 0400     		.2byte	0x4
 2033 0002 00       		.byte	0
 2034 0003 05       		.byte	0x5
 2035 0004 0A       		.uleb128 0xa
 2036 0005 21150000 		.4byte	.LASF382
 2037 0009 05       		.byte	0x5
 2038 000a 10       		.uleb128 0x10
 2039 000b 6B270000 		.4byte	.LASF383
 2040 000f 05       		.byte	0x5
 2041 0010 1A       		.uleb128 0x1a
 2042 0011 76120000 		.4byte	.LASF384
 2043 0015 05       		.byte	0x5
 2044 0016 21       		.uleb128 0x21
 2045 0017 DF000000 		.4byte	.LASF385
 2046 001b 00       		.byte	0
 2047              		.section	.debug_macro,"G",%progbits,wm4.stdint.h.22.f4a337c398d8b6d821a97202448bc0d0,comdat
 2048              	.Ldebug_macro5:
 2049 0000 0400     		.2byte	0x4
 2050 0002 00       		.byte	0
 2051 0003 05       		.byte	0x5
 2052 0004 16       		.uleb128 0x16
 2053 0005 8B060000 		.4byte	.LASF386
 2054 0009 05       		.byte	0x5
 2055 000a 1C       		.uleb128 0x1c
 2056 000b 032F0000 		.4byte	.LASF387
 2057 000f 05       		.byte	0x5
 2058 0010 22       		.uleb128 0x22
 2059 0011 73200000 		.4byte	.LASF388
 2060 0015 05       		.byte	0x5
 2061 0016 28       		.uleb128 0x28
 2062 0017 FB190000 		.4byte	.LASF389
 2063 001b 05       		.byte	0x5
 2064 001c 2E       		.uleb128 0x2e
 2065 001d 31210000 		.4byte	.LASF390
 2066 0021 05       		.byte	0x5
 2067 0022 34       		.uleb128 0x34
 2068 0023 DF1A0000 		.4byte	.LASF391
 2069 0027 05       		.byte	0x5
 2070 0028 3A       		.uleb128 0x3a
 2071 0029 0B110000 		.4byte	.LASF392
ARM GAS  C:\Users\Daro\AppData\Local\Temp\ccMicR6A.s 			page 38


 2072 002d 05       		.byte	0x5
 2073 002e 40       		.uleb128 0x40
 2074 002f 22180000 		.4byte	.LASF393
 2075 0033 05       		.byte	0x5
 2076 0034 4C       		.uleb128 0x4c
 2077 0035 AF000000 		.4byte	.LASF394
 2078 0039 05       		.byte	0x5
 2079 003a 56       		.uleb128 0x56
 2080 003b 871E0000 		.4byte	.LASF395
 2081 003f 05       		.byte	0x5
 2082 0040 60       		.uleb128 0x60
 2083 0041 341A0000 		.4byte	.LASF396
 2084 0045 05       		.byte	0x5
 2085 0046 6A       		.uleb128 0x6a
 2086 0047 72170000 		.4byte	.LASF397
 2087 004b 05       		.byte	0x5
 2088 004c AD01     		.uleb128 0xad
 2089 004e 232B0000 		.4byte	.LASF398
 2090 0052 05       		.byte	0x5
 2091 0053 AE01     		.uleb128 0xae
 2092 0055 EE2D0000 		.4byte	.LASF399
 2093 0059 05       		.byte	0x5
 2094 005a AF01     		.uleb128 0xaf
 2095 005c F91A0000 		.4byte	.LASF400
 2096 0060 05       		.byte	0x5
 2097 0061 C501     		.uleb128 0xc5
 2098 0063 502C0000 		.4byte	.LASF401
 2099 0067 05       		.byte	0x5
 2100 0068 C601     		.uleb128 0xc6
 2101 006a C3290000 		.4byte	.LASF402
 2102 006e 05       		.byte	0x5
 2103 006f C701     		.uleb128 0xc7
 2104 0071 C1050000 		.4byte	.LASF403
 2105 0075 05       		.byte	0x5
 2106 0076 CF01     		.uleb128 0xcf
 2107 0078 1E130000 		.4byte	.LASF404
 2108 007c 05       		.byte	0x5
 2109 007d D001     		.uleb128 0xd0
 2110 007f BA150000 		.4byte	.LASF405
 2111 0083 05       		.byte	0x5
 2112 0084 D101     		.uleb128 0xd1
 2113 0086 B3060000 		.4byte	.LASF406
 2114 008a 05       		.byte	0x5
 2115 008b DB01     		.uleb128 0xdb
 2116 008d CF2D0000 		.4byte	.LASF407
 2117 0091 05       		.byte	0x5
 2118 0092 DC01     		.uleb128 0xdc
 2119 0094 DA2C0000 		.4byte	.LASF408
 2120 0098 05       		.byte	0x5
 2121 0099 DD01     		.uleb128 0xdd
 2122 009b 561C0000 		.4byte	.LASF409
 2123 009f 05       		.byte	0x5
 2124 00a0 E501     		.uleb128 0xe5
 2125 00a2 7D2D0000 		.4byte	.LASF410
 2126 00a6 05       		.byte	0x5
 2127 00a7 E601     		.uleb128 0xe6
 2128 00a9 79010000 		.4byte	.LASF411
ARM GAS  C:\Users\Daro\AppData\Local\Temp\ccMicR6A.s 			page 39


 2129 00ad 05       		.byte	0x5
 2130 00ae E701     		.uleb128 0xe7
 2131 00b0 C2190000 		.4byte	.LASF412
 2132 00b4 05       		.byte	0x5
 2133 00b5 F101     		.uleb128 0xf1
 2134 00b7 151A0000 		.4byte	.LASF413
 2135 00bb 05       		.byte	0x5
 2136 00bc F201     		.uleb128 0xf2
 2137 00be C7000000 		.4byte	.LASF414
 2138 00c2 05       		.byte	0x5
 2139 00c3 F301     		.uleb128 0xf3
 2140 00c5 232C0000 		.4byte	.LASF415
 2141 00c9 05       		.byte	0x5
 2142 00ca 8102     		.uleb128 0x101
 2143 00cc 8F150000 		.4byte	.LASF416
 2144 00d0 05       		.byte	0x5
 2145 00d1 8202     		.uleb128 0x102
 2146 00d3 602F0000 		.4byte	.LASF417
 2147 00d7 05       		.byte	0x5
 2148 00d8 8302     		.uleb128 0x103
 2149 00da 5D040000 		.4byte	.LASF418
 2150 00de 05       		.byte	0x5
 2151 00df 9302     		.uleb128 0x113
 2152 00e1 762B0000 		.4byte	.LASF419
 2153 00e5 05       		.byte	0x5
 2154 00e6 9402     		.uleb128 0x114
 2155 00e8 701C0000 		.4byte	.LASF420
 2156 00ec 05       		.byte	0x5
 2157 00ed 9502     		.uleb128 0x115
 2158 00ef 442E0000 		.4byte	.LASF421
 2159 00f3 05       		.byte	0x5
 2160 00f4 A302     		.uleb128 0x123
 2161 00f6 AE010000 		.4byte	.LASF422
 2162 00fa 05       		.byte	0x5
 2163 00fb A402     		.uleb128 0x124
 2164 00fd AA210000 		.4byte	.LASF423
 2165 0101 05       		.byte	0x5
 2166 0102 A502     		.uleb128 0x125
 2167 0104 40220000 		.4byte	.LASF424
 2168 0108 05       		.byte	0x5
 2169 0109 B302     		.uleb128 0x133
 2170 010b 8A2C0000 		.4byte	.LASF425
 2171 010f 05       		.byte	0x5
 2172 0110 B402     		.uleb128 0x134
 2173 0112 0F0C0000 		.4byte	.LASF426
 2174 0116 05       		.byte	0x5
 2175 0117 B502     		.uleb128 0x135
 2176 0119 A5280000 		.4byte	.LASF427
 2177 011d 05       		.byte	0x5
 2178 011e C302     		.uleb128 0x143
 2179 0120 151B0000 		.4byte	.LASF428
 2180 0124 05       		.byte	0x5
 2181 0125 C402     		.uleb128 0x144
 2182 0127 B3030000 		.4byte	.LASF429
 2183 012b 05       		.byte	0x5
 2184 012c C502     		.uleb128 0x145
 2185 012e 522B0000 		.4byte	.LASF430
ARM GAS  C:\Users\Daro\AppData\Local\Temp\ccMicR6A.s 			page 40


 2186 0132 05       		.byte	0x5
 2187 0133 D302     		.uleb128 0x153
 2188 0135 D4100000 		.4byte	.LASF431
 2189 0139 05       		.byte	0x5
 2190 013a D402     		.uleb128 0x154
 2191 013c F4290000 		.4byte	.LASF432
 2192 0140 05       		.byte	0x5
 2193 0141 D502     		.uleb128 0x155
 2194 0143 A2170000 		.4byte	.LASF433
 2195 0147 05       		.byte	0x5
 2196 0148 E302     		.uleb128 0x163
 2197 014a 8A030000 		.4byte	.LASF434
 2198 014e 05       		.byte	0x5
 2199 014f E402     		.uleb128 0x164
 2200 0151 1F1F0000 		.4byte	.LASF435
 2201 0155 05       		.byte	0x5
 2202 0156 E502     		.uleb128 0x165
 2203 0158 00000000 		.4byte	.LASF436
 2204 015c 05       		.byte	0x5
 2205 015d F302     		.uleb128 0x173
 2206 015f 1D0D0000 		.4byte	.LASF437
 2207 0163 05       		.byte	0x5
 2208 0164 F402     		.uleb128 0x174
 2209 0166 2B010000 		.4byte	.LASF438
 2210 016a 05       		.byte	0x5
 2211 016b FC02     		.uleb128 0x17c
 2212 016d FA030000 		.4byte	.LASF439
 2213 0171 05       		.byte	0x5
 2214 0172 8403     		.uleb128 0x184
 2215 0174 EF060000 		.4byte	.LASF440
 2216 0178 05       		.byte	0x5
 2217 0179 8A03     		.uleb128 0x18a
 2218 017b 7F1A0000 		.4byte	.LASF441
 2219 017f 05       		.byte	0x5
 2220 0180 8B03     		.uleb128 0x18b
 2221 0182 EF000000 		.4byte	.LASF442
 2222 0186 05       		.byte	0x5
 2223 0187 8F03     		.uleb128 0x18f
 2224 0189 CE210000 		.4byte	.LASF443
 2225 018d 05       		.byte	0x5
 2226 018e 9303     		.uleb128 0x193
 2227 0190 F22C0000 		.4byte	.LASF444
 2228 0194 05       		.byte	0x5
 2229 0195 9803     		.uleb128 0x198
 2230 0197 AB290000 		.4byte	.LASF445
 2231 019b 05       		.byte	0x5
 2232 019c A303     		.uleb128 0x1a3
 2233 019e 87270000 		.4byte	.LASF446
 2234 01a2 05       		.byte	0x5
 2235 01a3 AD03     		.uleb128 0x1ad
 2236 01a5 CF2F0000 		.4byte	.LASF447
 2237 01a9 05       		.byte	0x5
 2238 01aa B203     		.uleb128 0x1b2
 2239 01ac 7F0E0000 		.4byte	.LASF448
 2240 01b0 05       		.byte	0x5
 2241 01b1 B903     		.uleb128 0x1b9
 2242 01b3 EB260000 		.4byte	.LASF449
ARM GAS  C:\Users\Daro\AppData\Local\Temp\ccMicR6A.s 			page 41


 2243 01b7 05       		.byte	0x5
 2244 01b8 BA03     		.uleb128 0x1ba
 2245 01ba EA180000 		.4byte	.LASF450
 2246 01be 05       		.byte	0x5
 2247 01bf C503     		.uleb128 0x1c5
 2248 01c1 45100000 		.4byte	.LASF451
 2249 01c5 05       		.byte	0x5
 2250 01c6 C603     		.uleb128 0x1c6
 2251 01c8 C6170000 		.4byte	.LASF452
 2252 01cc 05       		.byte	0x5
 2253 01cd D103     		.uleb128 0x1d1
 2254 01cf 05070000 		.4byte	.LASF453
 2255 01d3 05       		.byte	0x5
 2256 01d4 D203     		.uleb128 0x1d2
 2257 01d6 12060000 		.4byte	.LASF454
 2258 01da 05       		.byte	0x5
 2259 01db DE03     		.uleb128 0x1de
 2260 01dd 60060000 		.4byte	.LASF455
 2261 01e1 05       		.byte	0x5
 2262 01e2 DF03     		.uleb128 0x1df
 2263 01e4 38020000 		.4byte	.LASF456
 2264 01e8 05       		.byte	0x5
 2265 01e9 EE03     		.uleb128 0x1ee
 2266 01eb 952B0000 		.4byte	.LASF457
 2267 01ef 05       		.byte	0x5
 2268 01f0 EF03     		.uleb128 0x1ef
 2269 01f2 73240000 		.4byte	.LASF458
 2270 01f6 00       		.byte	0
 2271              		.section	.debug_line,"",%progbits
 2272              	.Ldebug_line0:
 2273 0000 EE010000 		.section	.debug_str,"MS",%progbits,1
 2273      02009001 
 2273      00000201 
 2273      FB0E0D00 
 2273      01010101 
 2274              	.LASF436:
 2275 0000 55494E54 		.ascii	"UINT_FAST64_MAX __UINT_FAST64_MAX__\000"
 2275      5F464153 
 2275      5436345F 
 2275      4D415820 
 2275      5F5F5549 
 2276              	.LASF78:
 2277 0024 5F5F5054 		.ascii	"__PTRDIFF_MAX__ 2147483647\000"
 2277      52444946 
 2277      465F4D41 
 2277      585F5F20 
 2277      32313437 
 2278              	.LASF73:
 2279 003f 5F5F4C4F 		.ascii	"__LONG_LONG_MAX__ 9223372036854775807LL\000"
 2279      4E475F4C 
 2279      4F4E475F 
 2279      4D41585F 
 2279      5F203932 
 2280              	.LASF181:
 2281 0067 5F5F4445 		.ascii	"__DEC64_SUBNORMAL_MIN__ 0.000000000000001E-383DD\000"
 2281      4336345F 
 2281      5355424E 
ARM GAS  C:\Users\Daro\AppData\Local\Temp\ccMicR6A.s 			page 42


 2281      4F524D41 
 2281      4C5F4D49 
 2282              	.LASF146:
 2283 0098 5F5F4442 		.ascii	"__DBL_DECIMAL_DIG__ 17\000"
 2283      4C5F4445 
 2283      43494D41 
 2283      4C5F4449 
 2283      475F5F20 
 2284              	.LASF394:
 2285 00af 5F5F696E 		.ascii	"__int_fast8_t_defined 1\000"
 2285      745F6661 
 2285      7374385F 
 2285      745F6465 
 2285      66696E65 
 2286              	.LASF414:
 2287 00c7 494E5433 		.ascii	"INT32_MAX __INT32_MAX__\000"
 2287      325F4D41 
 2287      58205F5F 
 2287      494E5433 
 2287      325F4D41 
 2288              	.LASF385:
 2289 00df 5F5F6861 		.ascii	"__have_long32 1\000"
 2289      76655F6C 
 2289      6F6E6733 
 2289      32203100 
 2290              	.LASF442:
 2291 00ef 5349475F 		.ascii	"SIG_ATOMIC_MAX __STDINT_EXP(INT_MAX)\000"
 2291      41544F4D 
 2291      49435F4D 
 2291      4158205F 
 2291      5F535444 
 2292              	.LASF307:
 2293 0114 5F5F474E 		.ascii	"__GNUC_STDC_INLINE__ 1\000"
 2293      55435F53 
 2293      5444435F 
 2293      494E4C49 
 2293      4E455F5F 
 2294              	.LASF438:
 2295 012b 494E544D 		.ascii	"INTMAX_MIN (-INTMAX_MAX - 1)\000"
 2295      41585F4D 
 2295      494E2028 
 2295      2D494E54 
 2295      4D41585F 
 2296              	.LASF180:
 2297 0148 5F5F4445 		.ascii	"__DEC64_EPSILON__ 1E-15DD\000"
 2297      4336345F 
 2297      45505349 
 2297      4C4F4E5F 
 2297      5F203145 
 2298              	.LASF94:
 2299 0162 5F5F494E 		.ascii	"__INT_LEAST8_MAX__ 127\000"
 2299      545F4C45 
 2299      41535438 
 2299      5F4D4158 
 2299      5F5F2031 
 2300              	.LASF411:
 2301 0179 494E545F 		.ascii	"INT_LEAST16_MAX __INT_LEAST16_MAX__\000"
ARM GAS  C:\Users\Daro\AppData\Local\Temp\ccMicR6A.s 			page 43


 2301      4C454153 
 2301      5431365F 
 2301      4D415820 
 2301      5F5F494E 
 2302              	.LASF86:
 2303 019d 5F5F494E 		.ascii	"__INT8_MAX__ 127\000"
 2303      54385F4D 
 2303      41585F5F 
 2303      20313237 
 2303      00
 2304              	.LASF422:
 2305 01ae 494E545F 		.ascii	"INT_LEAST64_MIN (-__INT_LEAST64_MAX__ - 1)\000"
 2305      4C454153 
 2305      5436345F 
 2305      4D494E20 
 2305      282D5F5F 
 2306              	.LASF103:
 2307 01d9 5F5F5549 		.ascii	"__UINT8_C(c) c\000"
 2307      4E54385F 
 2307      43286329 
 2307      206300
 2308              	.LASF88:
 2309 01e8 5F5F494E 		.ascii	"__INT32_MAX__ 2147483647L\000"
 2309      5433325F 
 2309      4D41585F 
 2309      5F203231 
 2309      34373438 
 2310              	.LASF272:
 2311 0202 5F5F4851 		.ascii	"__HQ_IBIT__ 0\000"
 2311      5F494249 
 2311      545F5F20 
 2311      3000
 2312              	.LASF72:
 2313 0210 5F5F4C4F 		.ascii	"__LONG_MAX__ 2147483647L\000"
 2313      4E475F4D 
 2313      41585F5F 
 2313      20323134 
 2313      37343833 
 2314              	.LASF286:
 2315 0229 5F5F5544 		.ascii	"__UDQ_IBIT__ 0\000"
 2315      515F4942 
 2315      49545F5F 
 2315      203000
 2316              	.LASF456:
 2317 0238 55494E54 		.ascii	"UINT64_C(x) __UINT64_C(x)\000"
 2317      36345F43 
 2317      28782920 
 2317      5F5F5549 
 2317      4E543634 
 2318              	.LASF132:
 2319 0252 5F5F464C 		.ascii	"__FLT_MAX__ 3.4028234663852886e+38F\000"
 2319      545F4D41 
 2319      585F5F20 
 2319      332E3430 
 2319      32383233 
 2320              	.LASF142:
 2321 0276 5F5F4442 		.ascii	"__DBL_MIN_EXP__ (-1021)\000"
ARM GAS  C:\Users\Daro\AppData\Local\Temp\ccMicR6A.s 			page 44


 2321      4C5F4D49 
 2321      4E5F4558 
 2321      505F5F20 
 2321      282D3130 
 2322              	.LASF100:
 2323 028e 5F5F494E 		.ascii	"__INT_LEAST64_MAX__ 9223372036854775807LL\000"
 2323      545F4C45 
 2323      41535436 
 2323      345F4D41 
 2323      585F5F20 
 2324              	.LASF211:
 2325 02b8 5F5F4C46 		.ascii	"__LFRACT_MIN__ (-0.5LR-0.5LR)\000"
 2325      52414354 
 2325      5F4D494E 
 2325      5F5F2028 
 2325      2D302E35 
 2326              	.LASF328:
 2327 02d6 5F5F5349 		.ascii	"__SIZEOF_WINT_T__ 4\000"
 2327      5A454F46 
 2327      5F57494E 
 2327      545F545F 
 2327      5F203400 
 2328              	.LASF370:
 2329 02ea 5F5F474E 		.ascii	"__GNUC_PREREQ(maj,min) ((__GNUC__ << 16) + __GNUC_M"
 2329      55435F50 
 2329      52455245 
 2329      51286D61 
 2329      6A2C6D69 
 2330 031d 494E4F52 		.ascii	"INOR__ >= ((maj) << 16) + (min))\000"
 2330      5F5F203E 
 2330      3D202828 
 2330      6D616A29 
 2330      203C3C20 
 2331              	.LASF478:
 2332 033e 51756575 		.ascii	"Queue\000"
 2332      6500
 2333              	.LASF147:
 2334 0344 5F5F4442 		.ascii	"__DBL_MAX__ ((double)1.7976931348623157e+308L)\000"
 2334      4C5F4D41 
 2334      585F5F20 
 2334      2828646F 
 2334      75626C65 
 2335              	.LASF196:
 2336 0373 5F5F5553 		.ascii	"__USFRACT_MIN__ 0.0UHR\000"
 2336      46524143 
 2336      545F4D49 
 2336      4E5F5F20 
 2336      302E3055 
 2337              	.LASF434:
 2338 038a 494E545F 		.ascii	"INT_FAST64_MIN (-__INT_FAST64_MAX__ - 1)\000"
 2338      46415354 
 2338      36345F4D 
 2338      494E2028 
 2338      2D5F5F49 
 2339              	.LASF429:
 2340 03b3 494E545F 		.ascii	"INT_FAST16_MAX __INT_FAST16_MAX__\000"
 2340      46415354 
ARM GAS  C:\Users\Daro\AppData\Local\Temp\ccMicR6A.s 			page 45


 2340      31365F4D 
 2340      4158205F 
 2340      5F494E54 
 2341              	.LASF334:
 2342 03d5 5F5F4152 		.ascii	"__ARM_32BIT_STATE 1\000"
 2342      4D5F3332 
 2342      4249545F 
 2342      53544154 
 2342      45203100 
 2343              	.LASF4:
 2344 03e9 5F5F474E 		.ascii	"__GNUC_MINOR__ 9\000"
 2344      55435F4D 
 2344      494E4F52 
 2344      5F5F2039 
 2344      00
 2345              	.LASF439:
 2346 03fa 55494E54 		.ascii	"UINTMAX_MAX __UINTMAX_MAX__\000"
 2346      4D41585F 
 2346      4D415820 
 2346      5F5F5549 
 2346      4E544D41 
 2347              	.LASF105:
 2348 0416 5F5F5549 		.ascii	"__UINT16_C(c) c\000"
 2348      4E543136 
 2348      5F432863 
 2348      29206300 
 2349              	.LASF22:
 2350 0426 5F5F5349 		.ascii	"__SIZEOF_SIZE_T__ 4\000"
 2350      5A454F46 
 2350      5F53495A 
 2350      455F545F 
 2350      5F203400 
 2351              	.LASF37:
 2352 043a 5F5F4348 		.ascii	"__CHAR16_TYPE__ short unsigned int\000"
 2352      41523136 
 2352      5F545950 
 2352      455F5F20 
 2352      73686F72 
 2353              	.LASF418:
 2354 045d 55494E54 		.ascii	"UINT_LEAST32_MAX __UINT_LEAST32_MAX__\000"
 2354      5F4C4541 
 2354      53543332 
 2354      5F4D4158 
 2354      205F5F55 
 2355              	.LASF21:
 2356 0483 5F5F5349 		.ascii	"__SIZEOF_LONG_DOUBLE__ 8\000"
 2356      5A454F46 
 2356      5F4C4F4E 
 2356      475F444F 
 2356      55424C45 
 2357              	.LASF3:
 2358 049c 5F5F474E 		.ascii	"__GNUC__ 4\000"
 2358      55435F5F 
 2358      203400
 2359              	.LASF475:
 2360 04a7 68656164 		.ascii	"head\000"
 2360      00
ARM GAS  C:\Users\Daro\AppData\Local\Temp\ccMicR6A.s 			page 46


 2361              	.LASF26:
 2362 04ac 5F5F4F52 		.ascii	"__ORDER_BIG_ENDIAN__ 4321\000"
 2362      4445525F 
 2362      4249475F 
 2362      454E4449 
 2362      414E5F5F 
 2363              	.LASF227:
 2364 04c6 5F5F554C 		.ascii	"__ULLFRACT_MAX__ 0XFFFFFFFFFFFFFFFFP-64ULLR\000"
 2364      4C465241 
 2364      43545F4D 
 2364      41585F5F 
 2364      20305846 
 2365              	.LASF185:
 2366 04f2 5F5F4445 		.ascii	"__DEC128_MIN__ 1E-6143DL\000"
 2366      43313238 
 2366      5F4D494E 
 2366      5F5F2031 
 2366      452D3631 
 2367              	.LASF330:
 2368 050b 5F5F4152 		.ascii	"__ARM_FEATURE_DSP 1\000"
 2368      4D5F4645 
 2368      41545552 
 2368      455F4453 
 2368      50203100 
 2369              	.LASF303:
 2370 051f 5F5F5554 		.ascii	"__UTA_FBIT__ 64\000"
 2370      415F4642 
 2370      49545F5F 
 2370      20363400 
 2371              	.LASF140:
 2372 052f 5F5F4442 		.ascii	"__DBL_MANT_DIG__ 53\000"
 2372      4C5F4D41 
 2372      4E545F44 
 2372      49475F5F 
 2372      20353300 
 2373              	.LASF55:
 2374 0543 5F5F5549 		.ascii	"__UINT_LEAST64_TYPE__ long long unsigned int\000"
 2374      4E545F4C 
 2374      45415354 
 2374      36345F54 
 2374      5950455F 
 2375              	.LASF10:
 2376 0570 5F5F4154 		.ascii	"__ATOMIC_RELEASE 3\000"
 2376      4F4D4943 
 2376      5F52454C 
 2376      45415345 
 2376      203300
 2377              	.LASF79:
 2378 0583 5F5F5349 		.ascii	"__SIZE_MAX__ 4294967295U\000"
 2378      5A455F4D 
 2378      41585F5F 
 2378      20343239 
 2378      34393637 
 2379              	.LASF485:
 2380 059c 7372632F 		.ascii	"src/queue.c\000"
 2380      71756575 
 2380      652E6300 
ARM GAS  C:\Users\Daro\AppData\Local\Temp\ccMicR6A.s 			page 47


 2381              	.LASF41:
 2382 05a8 5F5F494E 		.ascii	"__INT16_TYPE__ short int\000"
 2382      5431365F 
 2382      54595045 
 2382      5F5F2073 
 2382      686F7274 
 2383              	.LASF403:
 2384 05c1 55494E54 		.ascii	"UINT8_MAX __UINT8_MAX__\000"
 2384      385F4D41 
 2384      58205F5F 
 2384      55494E54 
 2384      385F4D41 
 2385              	.LASF363:
 2386 05d9 5F5F4650 		.ascii	"__FPU_PRESENT 1\000"
 2386      555F5052 
 2386      4553454E 
 2386      54203100 
 2387              	.LASF173:
 2388 05e9 5F5F4445 		.ascii	"__DEC32_EPSILON__ 1E-6DF\000"
 2388      4333325F 
 2388      45505349 
 2388      4C4F4E5F 
 2388      5F203145 
 2389              	.LASF155:
 2390 0602 5F5F4C44 		.ascii	"__LDBL_DIG__ 15\000"
 2390      424C5F44 
 2390      49475F5F 
 2390      20313500 
 2391              	.LASF454:
 2392 0612 55494E54 		.ascii	"UINT32_C(x) __UINT32_C(x)\000"
 2392      33325F43 
 2392      28782920 
 2392      5F5F5549 
 2392      4E543332 
 2393              	.LASF260:
 2394 062c 5F5F4C4C 		.ascii	"__LLACCUM_IBIT__ 32\000"
 2394      41434355 
 2394      4D5F4942 
 2394      49545F5F 
 2394      20333200 
 2395              	.LASF8:
 2396 0640 5F5F4154 		.ascii	"__ATOMIC_SEQ_CST 5\000"
 2396      4F4D4943 
 2396      5F534551 
 2396      5F435354 
 2396      203500
 2397              	.LASF479:
 2398 0653 71756575 		.ascii	"queueIsEmpty\000"
 2398      65497345 
 2398      6D707479 
 2398      00
 2399              	.LASF455:
 2400 0660 494E5436 		.ascii	"INT64_C(x) __INT64_C(x)\000"
 2400      345F4328 
 2400      7829205F 
 2400      5F494E54 
 2400      36345F43 
ARM GAS  C:\Users\Daro\AppData\Local\Temp\ccMicR6A.s 			page 48


 2401              	.LASF18:
 2402 0678 5F5F5349 		.ascii	"__SIZEOF_SHORT__ 2\000"
 2402      5A454F46 
 2402      5F53484F 
 2402      52545F5F 
 2402      203200
 2403              	.LASF386:
 2404 068b 5F5F696E 		.ascii	"__int8_t_defined 1\000"
 2404      74385F74 
 2404      5F646566 
 2404      696E6564 
 2404      203100
 2405              	.LASF305:
 2406 069e 5F5F5245 		.ascii	"__REGISTER_PREFIX__ \000"
 2406      47495354 
 2406      45525F50 
 2406      52454649 
 2406      585F5F20 
 2407              	.LASF406:
 2408 06b3 55494E54 		.ascii	"UINT_LEAST8_MAX __UINT_LEAST8_MAX__\000"
 2408      5F4C4541 
 2408      5354385F 
 2408      4D415820 
 2408      5F5F5549 
 2409              	.LASF83:
 2410 06d7 5F5F5549 		.ascii	"__UINTMAX_C(c) c ## ULL\000"
 2410      4E544D41 
 2410      585F4328 
 2410      63292063 
 2410      20232320 
 2411              	.LASF440:
 2412 06ef 53495A45 		.ascii	"SIZE_MAX __SIZE_MAX__\000"
 2412      5F4D4158 
 2412      205F5F53 
 2412      495A455F 
 2412      4D41585F 
 2413              	.LASF453:
 2414 0705 494E5433 		.ascii	"INT32_C(x) __INT32_C(x)\000"
 2414      325F4328 
 2414      7829205F 
 2414      5F494E54 
 2414      33325F43 
 2415              	.LASF6:
 2416 071d 5F5F5645 		.ascii	"__VERSION__ \"4.9.3 20141119 (prerelease)\"\000"
 2416      5253494F 
 2416      4E5F5F20 
 2416      22342E39 
 2416      2E332032 
 2417              	.LASF28:
 2418 0747 5F5F4259 		.ascii	"__BYTE_ORDER__ __ORDER_LITTLE_ENDIAN__\000"
 2418      54455F4F 
 2418      52444552 
 2418      5F5F205F 
 2418      5F4F5244 
 2419              	.LASF102:
 2420 076e 5F5F5549 		.ascii	"__UINT_LEAST8_MAX__ 255\000"
 2420      4E545F4C 
ARM GAS  C:\Users\Daro\AppData\Local\Temp\ccMicR6A.s 			page 49


 2420      45415354 
 2420      385F4D41 
 2420      585F5F20 
 2421              	.LASF210:
 2422 0786 5F5F4C46 		.ascii	"__LFRACT_IBIT__ 0\000"
 2422      52414354 
 2422      5F494249 
 2422      545F5F20 
 2422      3000
 2423              	.LASF362:
 2424 0798 41524D5F 		.ascii	"ARM_MATH_CM4 1\000"
 2424      4D415448 
 2424      5F434D34 
 2424      203100
 2425              	.LASF342:
 2426 07a7 5F5F4152 		.ascii	"__ARM_ARCH 7\000"
 2426      4D5F4152 
 2426      43482037 
 2426      00
 2427              	.LASF484:
 2428 07b4 474E5520 		.ascii	"GNU C 4.9.3 20141119 (prerelease) -mcpu=cortex-m4 -"
 2428      4320342E 
 2428      392E3320 
 2428      32303134 
 2428      31313139 
 2429 07e7 6D746875 		.ascii	"mthumb -mfloat-abi=hard -mfpu=fpv4-sp-d16 -g -ggdb3"
 2429      6D62202D 
 2429      6D666C6F 
 2429      61742D61 
 2429      62693D68 
 2430 081a 202D4F30 		.ascii	" -O0 -std=c99 -ffast-math -ffunction-sections -fdat"
 2430      202D7374 
 2430      643D6339 
 2430      39202D66 
 2430      66617374 
 2431 084d 612D7365 		.ascii	"a-sections\000"
 2431      6374696F 
 2431      6E7300
 2432              	.LASF52:
 2433 0858 5F5F5549 		.ascii	"__UINT_LEAST8_TYPE__ unsigned char\000"
 2433      4E545F4C 
 2433      45415354 
 2433      385F5459 
 2433      50455F5F 
 2434              	.LASF188:
 2435 087b 5F5F4445 		.ascii	"__DEC128_SUBNORMAL_MIN__ 0.000000000000000000000000"
 2435      43313238 
 2435      5F535542 
 2435      4E4F524D 
 2435      414C5F4D 
 2436 08ae 30303030 		.ascii	"000000001E-6143DL\000"
 2436      30303030 
 2436      31452D36 
 2436      31343344 
 2436      4C00
 2437              	.LASF225:
 2438 08c0 5F5F554C 		.ascii	"__ULLFRACT_IBIT__ 0\000"
ARM GAS  C:\Users\Daro\AppData\Local\Temp\ccMicR6A.s 			page 50


 2438      4C465241 
 2438      43545F49 
 2438      4249545F 
 2438      5F203000 
 2439              	.LASF7:
 2440 08d4 5F5F4154 		.ascii	"__ATOMIC_RELAXED 0\000"
 2440      4F4D4943 
 2440      5F52454C 
 2440      41584544 
 2440      203000
 2441              	.LASF50:
 2442 08e7 5F5F494E 		.ascii	"__INT_LEAST32_TYPE__ long int\000"
 2442      545F4C45 
 2442      41535433 
 2442      325F5459 
 2442      50455F5F 
 2443              	.LASF67:
 2444 0905 5F5F6861 		.ascii	"__has_include_next(STR) __has_include_next__(STR)\000"
 2444      735F696E 
 2444      636C7564 
 2444      655F6E65 
 2444      78742853 
 2445              	.LASF251:
 2446 0937 5F5F4C41 		.ascii	"__LACCUM_MIN__ (-0X1P31LK-0X1P31LK)\000"
 2446      4343554D 
 2446      5F4D494E 
 2446      5F5F2028 
 2446      2D305831 
 2447              	.LASF267:
 2448 095b 5F5F554C 		.ascii	"__ULLACCUM_MAX__ 0XFFFFFFFFFFFFFFFFP-32ULLK\000"
 2448      4C414343 
 2448      554D5F4D 
 2448      41585F5F 
 2448      20305846 
 2449              	.LASF256:
 2450 0987 5F5F554C 		.ascii	"__ULACCUM_MIN__ 0.0ULK\000"
 2450      41434355 
 2450      4D5F4D49 
 2450      4E5F5F20 
 2450      302E3055 
 2451              	.LASF350:
 2452 099e 5F5F4152 		.ascii	"__ARM_FP 4\000"
 2452      4D5F4650 
 2452      203400
 2453              	.LASF137:
 2454 09a9 5F5F464C 		.ascii	"__FLT_HAS_INFINITY__ 1\000"
 2454      545F4841 
 2454      535F494E 
 2454      46494E49 
 2454      54595F5F 
 2455              	.LASF347:
 2456 09c0 5F5F4152 		.ascii	"__ARMEL__ 1\000"
 2456      4D454C5F 
 2456      5F203100 
 2457              	.LASF114:
 2458 09cc 5F5F5549 		.ascii	"__UINT_FAST8_MAX__ 4294967295U\000"
 2458      4E545F46 
ARM GAS  C:\Users\Daro\AppData\Local\Temp\ccMicR6A.s 			page 51


 2458      41535438 
 2458      5F4D4158 
 2458      5F5F2034 
 2459              	.LASF302:
 2460 09eb 5F5F5544 		.ascii	"__UDA_IBIT__ 32\000"
 2460      415F4942 
 2460      49545F5F 
 2460      20333200 
 2461              	.LASF93:
 2462 09fb 5F5F5549 		.ascii	"__UINT64_MAX__ 18446744073709551615ULL\000"
 2462      4E543634 
 2462      5F4D4158 
 2462      5F5F2031 
 2462      38343436 
 2463              	.LASF59:
 2464 0a22 5F5F494E 		.ascii	"__INT_FAST64_TYPE__ long long int\000"
 2464      545F4641 
 2464      53543634 
 2464      5F545950 
 2464      455F5F20 
 2465              	.LASF95:
 2466 0a44 5F5F494E 		.ascii	"__INT8_C(c) c\000"
 2466      54385F43 
 2466      28632920 
 2466      6300
 2467              	.LASF345:
 2468 0a52 5F5F7468 		.ascii	"__thumb2__ 1\000"
 2468      756D6232 
 2468      5F5F2031 
 2468      00
 2469              	.LASF461:
 2470 0a5f 7369676E 		.ascii	"signed char\000"
 2470      65642063 
 2470      68617200 
 2471              	.LASF266:
 2472 0a6b 5F5F554C 		.ascii	"__ULLACCUM_MIN__ 0.0ULLK\000"
 2472      4C414343 
 2472      554D5F4D 
 2472      494E5F5F 
 2472      20302E30 
 2473              	.LASF473:
 2474 0a84 75696E74 		.ascii	"uint32_t\000"
 2474      33325F74 
 2474      00
 2475              	.LASF459:
 2476 0a8d 5F474343 		.ascii	"_GCC_WRAP_STDINT_H \000"
 2476      5F575241 
 2476      505F5354 
 2476      44494E54 
 2476      5F482000 
 2477              	.LASF134:
 2478 0aa1 5F5F464C 		.ascii	"__FLT_EPSILON__ 1.1920928955078125e-7F\000"
 2478      545F4550 
 2478      53494C4F 
 2478      4E5F5F20 
 2478      312E3139 
 2479              	.LASF65:
ARM GAS  C:\Users\Daro\AppData\Local\Temp\ccMicR6A.s 			page 52


 2480 0ac8 5F5F5549 		.ascii	"__UINTPTR_TYPE__ unsigned int\000"
 2480      4E545054 
 2480      525F5459 
 2480      50455F5F 
 2480      20756E73 
 2481              	.LASF311:
 2482 0ae6 5F5F4743 		.ascii	"__GCC_HAVE_SYNC_COMPARE_AND_SWAP_1 1\000"
 2482      435F4841 
 2482      56455F53 
 2482      594E435F 
 2482      434F4D50 
 2483              	.LASF292:
 2484 0b0b 5F5F5341 		.ascii	"__SA_IBIT__ 16\000"
 2484      5F494249 
 2484      545F5F20 
 2484      313600
 2485              	.LASF222:
 2486 0b1a 5F5F4C4C 		.ascii	"__LLFRACT_MAX__ 0X7FFFFFFFFFFFFFFFP-63LLR\000"
 2486      46524143 
 2486      545F4D41 
 2486      585F5F20 
 2486      30583746 
 2487              	.LASF139:
 2488 0b44 5F5F4650 		.ascii	"__FP_FAST_FMAF 1\000"
 2488      5F464153 
 2488      545F464D 
 2488      41462031 
 2488      00
 2489              	.LASF126:
 2490 0b55 5F5F464C 		.ascii	"__FLT_DIG__ 6\000"
 2490      545F4449 
 2490      475F5F20 
 2490      3600
 2491              	.LASF149:
 2492 0b63 5F5F4442 		.ascii	"__DBL_EPSILON__ ((double)2.2204460492503131e-16L)\000"
 2492      4C5F4550 
 2492      53494C4F 
 2492      4E5F5F20 
 2492      2828646F 
 2493              	.LASF312:
 2494 0b95 5F5F4743 		.ascii	"__GCC_HAVE_SYNC_COMPARE_AND_SWAP_2 1\000"
 2494      435F4841 
 2494      56455F53 
 2494      594E435F 
 2494      434F4D50 
 2495              	.LASF293:
 2496 0bba 5F5F4441 		.ascii	"__DA_FBIT__ 31\000"
 2496      5F464249 
 2496      545F5F20 
 2496      333100
 2497              	.LASF338:
 2498 0bc9 5F5F4152 		.ascii	"__ARM_SIZEOF_MINIMAL_ENUM 1\000"
 2498      4D5F5349 
 2498      5A454F46 
 2498      5F4D494E 
 2498      494D414C 
 2499              	.LASF360:
ARM GAS  C:\Users\Daro\AppData\Local\Temp\ccMicR6A.s 			page 53


 2500 0be5 5F5F5553 		.ascii	"__USES_INITFINI__ 1\000"
 2500      45535F49 
 2500      4E495446 
 2500      494E495F 
 2500      5F203100 
 2501              	.LASF171:
 2502 0bf9 5F5F4445 		.ascii	"__DEC32_MIN__ 1E-95DF\000"
 2502      4333325F 
 2502      4D494E5F 
 2502      5F203145 
 2502      2D393544 
 2503              	.LASF426:
 2504 0c0f 494E545F 		.ascii	"INT_FAST8_MAX __INT_FAST8_MAX__\000"
 2504      46415354 
 2504      385F4D41 
 2504      58205F5F 
 2504      494E545F 
 2505              	.LASF238:
 2506 0c2f 5F5F5553 		.ascii	"__USACCUM_EPSILON__ 0x1P-8UHK\000"
 2506      41434355 
 2506      4D5F4550 
 2506      53494C4F 
 2506      4E5F5F20 
 2507              	.LASF373:
 2508 0c4d 5F5F5F69 		.ascii	"___int8_t_defined 1\000"
 2508      6E74385F 
 2508      745F6465 
 2508      66696E65 
 2508      64203100 
 2509              	.LASF257:
 2510 0c61 5F5F554C 		.ascii	"__ULACCUM_MAX__ 0XFFFFFFFFFFFFFFFFP-32ULK\000"
 2510      41434355 
 2510      4D5F4D41 
 2510      585F5F20 
 2510      30584646 
 2511              	.LASF207:
 2512 0c8b 5F5F5546 		.ascii	"__UFRACT_MAX__ 0XFFFFP-16UR\000"
 2512      52414354 
 2512      5F4D4158 
 2512      5F5F2030 
 2512      58464646 
 2513              	.LASF192:
 2514 0ca7 5F5F5346 		.ascii	"__SFRACT_MAX__ 0X7FP-7HR\000"
 2514      52414354 
 2514      5F4D4158 
 2514      5F5F2030 
 2514      58374650 
 2515              	.LASF270:
 2516 0cc0 5F5F5151 		.ascii	"__QQ_IBIT__ 0\000"
 2516      5F494249 
 2516      545F5F20 
 2516      3000
 2517              	.LASF367:
 2518 0cce 5F535953 		.ascii	"_SYS_FEATURES_H \000"
 2518      5F464541 
 2518      54555245 
 2518      535F4820 
ARM GAS  C:\Users\Daro\AppData\Local\Temp\ccMicR6A.s 			page 54


 2518      00
 2519              	.LASF470:
 2520 0cdf 6C6F6E67 		.ascii	"long long unsigned int\000"
 2520      206C6F6E 
 2520      6720756E 
 2520      7369676E 
 2520      65642069 
 2521              	.LASF183:
 2522 0cf6 5F5F4445 		.ascii	"__DEC128_MIN_EXP__ (-6142)\000"
 2522      43313238 
 2522      5F4D494E 
 2522      5F455850 
 2522      5F5F2028 
 2523              	.LASF361:
 2524 0d11 53544D33 		.ascii	"STM32F4XX 1\000"
 2524      32463458 
 2524      58203100 
 2525              	.LASF437:
 2526 0d1d 494E544D 		.ascii	"INTMAX_MAX __INTMAX_MAX__\000"
 2526      41585F4D 
 2526      4158205F 
 2526      5F494E54 
 2526      4D41585F 
 2527              	.LASF218:
 2528 0d37 5F5F554C 		.ascii	"__ULFRACT_EPSILON__ 0x1P-32ULR\000"
 2528      46524143 
 2528      545F4550 
 2528      53494C4F 
 2528      4E5F5F20 
 2529              	.LASF187:
 2530 0d56 5F5F4445 		.ascii	"__DEC128_EPSILON__ 1E-33DL\000"
 2530      43313238 
 2530      5F455053 
 2530      494C4F4E 
 2530      5F5F2031 
 2531              	.LASF112:
 2532 0d71 5F5F494E 		.ascii	"__INT_FAST32_MAX__ 2147483647\000"
 2532      545F4641 
 2532      53543332 
 2532      5F4D4158 
 2532      5F5F2032 
 2533              	.LASF215:
 2534 0d8f 5F5F554C 		.ascii	"__ULFRACT_IBIT__ 0\000"
 2534      46524143 
 2534      545F4942 
 2534      49545F5F 
 2534      203000
 2535              	.LASF288:
 2536 0da2 5F5F5554 		.ascii	"__UTQ_IBIT__ 0\000"
 2536      515F4942 
 2536      49545F5F 
 2536      203000
 2537              	.LASF368:
 2538 0db1 5F5F4E45 		.ascii	"__NEWLIB__ 2\000"
 2538      574C4942 
 2538      5F5F2032 
 2538      00
ARM GAS  C:\Users\Daro\AppData\Local\Temp\ccMicR6A.s 			page 55


 2539              	.LASF124:
 2540 0dbe 5F5F464C 		.ascii	"__FLT_RADIX__ 2\000"
 2540      545F5241 
 2540      4449585F 
 2540      5F203200 
 2541              	.LASF226:
 2542 0dce 5F5F554C 		.ascii	"__ULLFRACT_MIN__ 0.0ULLR\000"
 2542      4C465241 
 2542      43545F4D 
 2542      494E5F5F 
 2542      20302E30 
 2543              	.LASF108:
 2544 0de7 5F5F5549 		.ascii	"__UINT_LEAST64_MAX__ 18446744073709551615ULL\000"
 2544      4E545F4C 
 2544      45415354 
 2544      36345F4D 
 2544      41585F5F 
 2545              	.LASF246:
 2546 0e14 5F5F5541 		.ascii	"__UACCUM_MIN__ 0.0UK\000"
 2546      4343554D 
 2546      5F4D494E 
 2546      5F5F2030 
 2546      2E30554B 
 2547              	.LASF213:
 2548 0e29 5F5F4C46 		.ascii	"__LFRACT_EPSILON__ 0x1P-31LR\000"
 2548      52414354 
 2548      5F455053 
 2548      494C4F4E 
 2548      5F5F2030 
 2549              	.LASF56:
 2550 0e46 5F5F494E 		.ascii	"__INT_FAST8_TYPE__ int\000"
 2550      545F4641 
 2550      5354385F 
 2550      54595045 
 2550      5F5F2069 
 2551              	.LASF61:
 2552 0e5d 5F5F5549 		.ascii	"__UINT_FAST16_TYPE__ unsigned int\000"
 2552      4E545F46 
 2552      41535431 
 2552      365F5459 
 2552      50455F5F 
 2553              	.LASF448:
 2554 0e7f 57494E54 		.ascii	"WINT_MIN __WINT_MIN__\000"
 2554      5F4D494E 
 2554      205F5F57 
 2554      494E545F 
 2554      4D494E5F 
 2555              	.LASF229:
 2556 0e95 5F5F5341 		.ascii	"__SACCUM_FBIT__ 7\000"
 2556      4343554D 
 2556      5F464249 
 2556      545F5F20 
 2556      3700
 2557              	.LASF340:
 2558 0ea7 5F5F4152 		.ascii	"__ARM_ARCH_PROFILE 77\000"
 2558      4D5F4152 
 2558      43485F50 
ARM GAS  C:\Users\Daro\AppData\Local\Temp\ccMicR6A.s 			page 56


 2558      524F4649 
 2558      4C452037 
 2559              	.LASF179:
 2560 0ebd 5F5F4445 		.ascii	"__DEC64_MAX__ 9.999999999999999E384DD\000"
 2560      4336345F 
 2560      4D41585F 
 2560      5F20392E 
 2560      39393939 
 2561              	.LASF201:
 2562 0ee3 5F5F4652 		.ascii	"__FRACT_MIN__ (-0.5R-0.5R)\000"
 2562      4143545F 
 2562      4D494E5F 
 2562      5F20282D 
 2562      302E3552 
 2563              	.LASF320:
 2564 0efe 5F5F4743 		.ascii	"__GCC_ATOMIC_INT_LOCK_FREE 2\000"
 2564      435F4154 
 2564      4F4D4943 
 2564      5F494E54 
 2564      5F4C4F43 
 2565              	.LASF206:
 2566 0f1b 5F5F5546 		.ascii	"__UFRACT_MIN__ 0.0UR\000"
 2566      52414354 
 2566      5F4D494E 
 2566      5F5F2030 
 2566      2E305552 
 2567              	.LASF248:
 2568 0f30 5F5F5541 		.ascii	"__UACCUM_EPSILON__ 0x1P-16UK\000"
 2568      4343554D 
 2568      5F455053 
 2568      494C4F4E 
 2568      5F5F2030 
 2569              	.LASF240:
 2570 0f4d 5F5F4143 		.ascii	"__ACCUM_IBIT__ 16\000"
 2570      43554D5F 
 2570      49424954 
 2570      5F5F2031 
 2570      3600
 2571              	.LASF164:
 2572 0f5f 5F5F4C44 		.ascii	"__LDBL_DENORM_MIN__ 4.9406564584124654e-324L\000"
 2572      424C5F44 
 2572      454E4F52 
 2572      4D5F4D49 
 2572      4E5F5F20 
 2573              	.LASF25:
 2574 0f8c 5F5F4F52 		.ascii	"__ORDER_LITTLE_ENDIAN__ 1234\000"
 2574      4445525F 
 2574      4C495454 
 2574      4C455F45 
 2574      4E444941 
 2575              	.LASF329:
 2576 0fa9 5F5F5349 		.ascii	"__SIZEOF_PTRDIFF_T__ 4\000"
 2576      5A454F46 
 2576      5F505452 
 2576      44494646 
 2576      5F545F5F 
 2577              	.LASF191:
ARM GAS  C:\Users\Daro\AppData\Local\Temp\ccMicR6A.s 			page 57


 2578 0fc0 5F5F5346 		.ascii	"__SFRACT_MIN__ (-0.5HR-0.5HR)\000"
 2578      52414354 
 2578      5F4D494E 
 2578      5F5F2028 
 2578      2D302E35 
 2579              	.LASF300:
 2580 0fde 5F5F5553 		.ascii	"__USA_IBIT__ 16\000"
 2580      415F4942 
 2580      49545F5F 
 2580      20313600 
 2581              	.LASF220:
 2582 0fee 5F5F4C4C 		.ascii	"__LLFRACT_IBIT__ 0\000"
 2582      46524143 
 2582      545F4942 
 2582      49545F5F 
 2582      203000
 2583              	.LASF376:
 2584 1001 5F5F5F69 		.ascii	"___int64_t_defined 1\000"
 2584      6E743634 
 2584      5F745F64 
 2584      6566696E 
 2584      65642031 
 2585              	.LASF182:
 2586 1016 5F5F4445 		.ascii	"__DEC128_MANT_DIG__ 34\000"
 2586      43313238 
 2586      5F4D414E 
 2586      545F4449 
 2586      475F5F20 
 2587              	.LASF357:
 2588 102d 5F5F4152 		.ascii	"__ARM_ARCH_EXT_IDIV__ 1\000"
 2588      4D5F4152 
 2588      43485F45 
 2588      58545F49 
 2588      4449565F 
 2589              	.LASF451:
 2590 1045 494E5431 		.ascii	"INT16_C(x) __INT16_C(x)\000"
 2590      365F4328 
 2590      7829205F 
 2590      5F494E54 
 2590      31365F43 
 2591              	.LASF153:
 2592 105d 5F5F4442 		.ascii	"__DBL_HAS_QUIET_NAN__ 1\000"
 2592      4C5F4841 
 2592      535F5155 
 2592      4945545F 
 2592      4E414E5F 
 2593              	.LASF19:
 2594 1075 5F5F5349 		.ascii	"__SIZEOF_FLOAT__ 4\000"
 2594      5A454F46 
 2594      5F464C4F 
 2594      41545F5F 
 2594      203400
 2595              	.LASF107:
 2596 1088 5F5F5549 		.ascii	"__UINT32_C(c) c ## UL\000"
 2596      4E543332 
 2596      5F432863 
 2596      29206320 
ARM GAS  C:\Users\Daro\AppData\Local\Temp\ccMicR6A.s 			page 58


 2596      23232055 
 2597              	.LASF170:
 2598 109e 5F5F4445 		.ascii	"__DEC32_MAX_EXP__ 97\000"
 2598      4333325F 
 2598      4D41585F 
 2598      4558505F 
 2598      5F203937 
 2599              	.LASF358:
 2600 10b3 5F5F4758 		.ascii	"__GXX_TYPEINFO_EQUALITY_INLINE 0\000"
 2600      585F5459 
 2600      5045494E 
 2600      464F5F45 
 2600      5155414C 
 2601              	.LASF431:
 2602 10d4 494E545F 		.ascii	"INT_FAST32_MIN (-__INT_FAST32_MAX__ - 1)\000"
 2602      46415354 
 2602      33325F4D 
 2602      494E2028 
 2602      2D5F5F49 
 2603              	.LASF348:
 2604 10fd 5F5F5448 		.ascii	"__THUMBEL__ 1\000"
 2604      554D4245 
 2604      4C5F5F20 
 2604      3100
 2605              	.LASF392:
 2606 110b 5F5F696E 		.ascii	"__int64_t_defined 1\000"
 2606      7436345F 
 2606      745F6465 
 2606      66696E65 
 2606      64203100 
 2607              	.LASF294:
 2608 111f 5F5F4441 		.ascii	"__DA_IBIT__ 32\000"
 2608      5F494249 
 2608      545F5F20 
 2608      333200
 2609              	.LASF24:
 2610 112e 5F5F4249 		.ascii	"__BIGGEST_ALIGNMENT__ 8\000"
 2610      47474553 
 2610      545F414C 
 2610      49474E4D 
 2610      454E545F 
 2611              	.LASF250:
 2612 1146 5F5F4C41 		.ascii	"__LACCUM_IBIT__ 32\000"
 2612      4343554D 
 2612      5F494249 
 2612      545F5F20 
 2612      333200
 2613              	.LASF96:
 2614 1159 5F5F494E 		.ascii	"__INT_LEAST16_MAX__ 32767\000"
 2614      545F4C45 
 2614      41535431 
 2614      365F4D41 
 2614      585F5F20 
 2615              	.LASF197:
 2616 1173 5F5F5553 		.ascii	"__USFRACT_MAX__ 0XFFP-8UHR\000"
 2616      46524143 
 2616      545F4D41 
ARM GAS  C:\Users\Daro\AppData\Local\Temp\ccMicR6A.s 			page 59


 2616      585F5F20 
 2616      30584646 
 2617              	.LASF148:
 2618 118e 5F5F4442 		.ascii	"__DBL_MIN__ ((double)2.2250738585072014e-308L)\000"
 2618      4C5F4D49 
 2618      4E5F5F20 
 2618      2828646F 
 2618      75626C65 
 2619              	.LASF261:
 2620 11bd 5F5F4C4C 		.ascii	"__LLACCUM_MIN__ (-0X1P31LLK-0X1P31LLK)\000"
 2620      41434355 
 2620      4D5F4D49 
 2620      4E5F5F20 
 2620      282D3058 
 2621              	.LASF68:
 2622 11e4 5F5F4758 		.ascii	"__GXX_ABI_VERSION 1002\000"
 2622      585F4142 
 2622      495F5645 
 2622      5253494F 
 2622      4E203130 
 2623              	.LASF291:
 2624 11fb 5F5F5341 		.ascii	"__SA_FBIT__ 15\000"
 2624      5F464249 
 2624      545F5F20 
 2624      313500
 2625              	.LASF233:
 2626 120a 5F5F5341 		.ascii	"__SACCUM_EPSILON__ 0x1P-7HK\000"
 2626      4343554D 
 2626      5F455053 
 2626      494C4F4E 
 2626      5F5F2030 
 2627              	.LASF375:
 2628 1226 5F5F5F69 		.ascii	"___int32_t_defined 1\000"
 2628      6E743332 
 2628      5F745F64 
 2628      6566696E 
 2628      65642031 
 2629              	.LASF57:
 2630 123b 5F5F494E 		.ascii	"__INT_FAST16_TYPE__ int\000"
 2630      545F4641 
 2630      53543136 
 2630      5F545950 
 2630      455F5F20 
 2631              	.LASF45:
 2632 1253 5F5F5549 		.ascii	"__UINT16_TYPE__ short unsigned int\000"
 2632      4E543136 
 2632      5F545950 
 2632      455F5F20 
 2632      73686F72 
 2633              	.LASF384:
 2634 1276 5F5F6861 		.ascii	"__have_longlong64 1\000"
 2634      76655F6C 
 2634      6F6E676C 
 2634      6F6E6736 
 2634      34203100 
 2635              	.LASF315:
 2636 128a 5F5F4743 		.ascii	"__GCC_ATOMIC_CHAR_LOCK_FREE 2\000"
ARM GAS  C:\Users\Daro\AppData\Local\Temp\ccMicR6A.s 			page 60


 2636      435F4154 
 2636      4F4D4943 
 2636      5F434841 
 2636      525F4C4F 
 2637              	.LASF282:
 2638 12a8 5F5F5548 		.ascii	"__UHQ_IBIT__ 0\000"
 2638      515F4942 
 2638      49545F5F 
 2638      203000
 2639              	.LASF336:
 2640 12b7 5F5F4152 		.ascii	"__ARM_FEATURE_CLZ 1\000"
 2640      4D5F4645 
 2640      41545552 
 2640      455F434C 
 2640      5A203100 
 2641              	.LASF48:
 2642 12cb 5F5F494E 		.ascii	"__INT_LEAST8_TYPE__ signed char\000"
 2642      545F4C45 
 2642      41535438 
 2642      5F545950 
 2642      455F5F20 
 2643              	.LASF43:
 2644 12eb 5F5F494E 		.ascii	"__INT64_TYPE__ long long int\000"
 2644      5436345F 
 2644      54595045 
 2644      5F5F206C 
 2644      6F6E6720 
 2645              	.LASF130:
 2646 1308 5F5F464C 		.ascii	"__FLT_MAX_10_EXP__ 38\000"
 2646      545F4D41 
 2646      585F3130 
 2646      5F455850 
 2646      5F5F2033 
 2647              	.LASF404:
 2648 131e 494E545F 		.ascii	"INT_LEAST8_MIN (-__INT_LEAST8_MAX__ - 1)\000"
 2648      4C454153 
 2648      54385F4D 
 2648      494E2028 
 2648      2D5F5F49 
 2649              	.LASF262:
 2650 1347 5F5F4C4C 		.ascii	"__LLACCUM_MAX__ 0X7FFFFFFFFFFFFFFFP-31LLK\000"
 2650      41434355 
 2650      4D5F4D41 
 2650      585F5F20 
 2650      30583746 
 2651              	.LASF263:
 2652 1371 5F5F4C4C 		.ascii	"__LLACCUM_EPSILON__ 0x1P-31LLK\000"
 2652      41434355 
 2652      4D5F4550 
 2652      53494C4F 
 2652      4E5F5F20 
 2653              	.LASF308:
 2654 1390 5F5F4E4F 		.ascii	"__NO_INLINE__ 1\000"
 2654      5F494E4C 
 2654      494E455F 
 2654      5F203100 
 2655              	.LASF216:
ARM GAS  C:\Users\Daro\AppData\Local\Temp\ccMicR6A.s 			page 61


 2656 13a0 5F5F554C 		.ascii	"__ULFRACT_MIN__ 0.0ULR\000"
 2656      46524143 
 2656      545F4D49 
 2656      4E5F5F20 
 2656      302E3055 
 2657              	.LASF125:
 2658 13b7 5F5F464C 		.ascii	"__FLT_MANT_DIG__ 24\000"
 2658      545F4D41 
 2658      4E545F44 
 2658      49475F5F 
 2658      20323400 
 2659              	.LASF284:
 2660 13cb 5F5F5553 		.ascii	"__USQ_IBIT__ 0\000"
 2660      515F4942 
 2660      49545F5F 
 2660      203000
 2661              	.LASF313:
 2662 13da 5F5F4743 		.ascii	"__GCC_HAVE_SYNC_COMPARE_AND_SWAP_4 1\000"
 2662      435F4841 
 2662      56455F53 
 2662      594E435F 
 2662      434F4D50 
 2663              	.LASF245:
 2664 13ff 5F5F5541 		.ascii	"__UACCUM_IBIT__ 16\000"
 2664      4343554D 
 2664      5F494249 
 2664      545F5F20 
 2664      313600
 2665              	.LASF123:
 2666 1412 5F5F4445 		.ascii	"__DEC_EVAL_METHOD__ 2\000"
 2666      435F4556 
 2666      414C5F4D 
 2666      4554484F 
 2666      445F5F20 
 2667              	.LASF143:
 2668 1428 5F5F4442 		.ascii	"__DBL_MIN_10_EXP__ (-307)\000"
 2668      4C5F4D49 
 2668      4E5F3130 
 2668      5F455850 
 2668      5F5F2028 
 2669              	.LASF235:
 2670 1442 5F5F5553 		.ascii	"__USACCUM_IBIT__ 8\000"
 2670      41434355 
 2670      4D5F4942 
 2670      49545F5F 
 2670      203800
 2671              	.LASF92:
 2672 1455 5F5F5549 		.ascii	"__UINT32_MAX__ 4294967295UL\000"
 2672      4E543332 
 2672      5F4D4158 
 2672      5F5F2034 
 2672      32393439 
 2673              	.LASF136:
 2674 1471 5F5F464C 		.ascii	"__FLT_HAS_DENORM__ 1\000"
 2674      545F4841 
 2674      535F4445 
 2674      4E4F524D 
ARM GAS  C:\Users\Daro\AppData\Local\Temp\ccMicR6A.s 			page 62


 2674      5F5F2031 
 2675              	.LASF353:
 2676 1486 5F5F5448 		.ascii	"__THUMB_INTERWORK__ 1\000"
 2676      554D425F 
 2676      494E5445 
 2676      52574F52 
 2676      4B5F5F20 
 2677              	.LASF199:
 2678 149c 5F5F4652 		.ascii	"__FRACT_FBIT__ 15\000"
 2678      4143545F 
 2678      46424954 
 2678      5F5F2031 
 2678      3500
 2679              	.LASF380:
 2680 14ae 5F5F5F69 		.ascii	"___int_least64_t_defined 1\000"
 2680      6E745F6C 
 2680      65617374 
 2680      36345F74 
 2680      5F646566 
 2681              	.LASF122:
 2682 14c9 5F5F464C 		.ascii	"__FLT_EVAL_METHOD__ 0\000"
 2682      545F4556 
 2682      414C5F4D 
 2682      4554484F 
 2682      445F5F20 
 2683              	.LASF356:
 2684 14df 5F5F4152 		.ascii	"__ARM_EABI__ 1\000"
 2684      4D5F4541 
 2684      42495F5F 
 2684      203100
 2685              	.LASF60:
 2686 14ee 5F5F5549 		.ascii	"__UINT_FAST8_TYPE__ unsigned int\000"
 2686      4E545F46 
 2686      41535438 
 2686      5F545950 
 2686      455F5F20 
 2687              	.LASF239:
 2688 150f 5F5F4143 		.ascii	"__ACCUM_FBIT__ 15\000"
 2688      43554D5F 
 2688      46424954 
 2688      5F5F2031 
 2688      3500
 2689              	.LASF382:
 2690 1521 5F535953 		.ascii	"_SYS__INTSUP_H \000"
 2690      5F5F494E 
 2690      54535550 
 2690      5F482000 
 2691              	.LASF318:
 2692 1531 5F5F4743 		.ascii	"__GCC_ATOMIC_WCHAR_T_LOCK_FREE 2\000"
 2692      435F4154 
 2692      4F4D4943 
 2692      5F574348 
 2692      41525F54 
 2693              	.LASF255:
 2694 1552 5F5F554C 		.ascii	"__ULACCUM_IBIT__ 32\000"
 2694      41434355 
 2694      4D5F4942 
ARM GAS  C:\Users\Daro\AppData\Local\Temp\ccMicR6A.s 			page 63


 2694      49545F5F 
 2694      20333200 
 2695              	.LASF219:
 2696 1566 5F5F4C4C 		.ascii	"__LLFRACT_FBIT__ 63\000"
 2696      46524143 
 2696      545F4642 
 2696      49545F5F 
 2696      20363300 
 2697              	.LASF474:
 2698 157a 64617461 		.ascii	"data\000"
 2698      00
 2699              	.LASF299:
 2700 157f 5F5F5553 		.ascii	"__USA_FBIT__ 16\000"
 2700      415F4642 
 2700      49545F5F 
 2700      20313600 
 2701              	.LASF416:
 2702 158f 494E545F 		.ascii	"INT_LEAST32_MIN (-__INT_LEAST32_MAX__ - 1)\000"
 2702      4C454153 
 2702      5433325F 
 2702      4D494E20 
 2702      282D5F5F 
 2703              	.LASF405:
 2704 15ba 494E545F 		.ascii	"INT_LEAST8_MAX __INT_LEAST8_MAX__\000"
 2704      4C454153 
 2704      54385F4D 
 2704      4158205F 
 2704      5F494E54 
 2705              	.LASF472:
 2706 15dc 75696E74 		.ascii	"uint8_t\000"
 2706      385F7400 
 2707              	.LASF378:
 2708 15e4 5F5F5F69 		.ascii	"___int_least16_t_defined 1\000"
 2708      6E745F6C 
 2708      65617374 
 2708      31365F74 
 2708      5F646566 
 2709              	.LASF98:
 2710 15ff 5F5F494E 		.ascii	"__INT_LEAST32_MAX__ 2147483647L\000"
 2710      545F4C45 
 2710      41535433 
 2710      325F4D41 
 2710      585F5F20 
 2711              	.LASF172:
 2712 161f 5F5F4445 		.ascii	"__DEC32_MAX__ 9.999999E96DF\000"
 2712      4333325F 
 2712      4D41585F 
 2712      5F20392E 
 2712      39393939 
 2713              	.LASF209:
 2714 163b 5F5F4C46 		.ascii	"__LFRACT_FBIT__ 31\000"
 2714      52414354 
 2714      5F464249 
 2714      545F5F20 
 2714      333100
 2715              	.LASF49:
 2716 164e 5F5F494E 		.ascii	"__INT_LEAST16_TYPE__ short int\000"
ARM GAS  C:\Users\Daro\AppData\Local\Temp\ccMicR6A.s 			page 64


 2716      545F4C45 
 2716      41535431 
 2716      365F5459 
 2716      50455F5F 
 2717              	.LASF14:
 2718 166d 5F5F4649 		.ascii	"__FINITE_MATH_ONLY__ 1\000"
 2718      4E495445 
 2718      5F4D4154 
 2718      485F4F4E 
 2718      4C595F5F 
 2719              	.LASF141:
 2720 1684 5F5F4442 		.ascii	"__DBL_DIG__ 15\000"
 2720      4C5F4449 
 2720      475F5F20 
 2720      313500
 2721              	.LASF316:
 2722 1693 5F5F4743 		.ascii	"__GCC_ATOMIC_CHAR16_T_LOCK_FREE 2\000"
 2722      435F4154 
 2722      4F4D4943 
 2722      5F434841 
 2722      5231365F 
 2723              	.LASF249:
 2724 16b5 5F5F4C41 		.ascii	"__LACCUM_FBIT__ 31\000"
 2724      4343554D 
 2724      5F464249 
 2724      545F5F20 
 2724      333100
 2725              	.LASF374:
 2726 16c8 5F5F5F69 		.ascii	"___int16_t_defined 1\000"
 2726      6E743136 
 2726      5F745F64 
 2726      6566696E 
 2726      65642031 
 2727              	.LASF208:
 2728 16dd 5F5F5546 		.ascii	"__UFRACT_EPSILON__ 0x1P-16UR\000"
 2728      52414354 
 2728      5F455053 
 2728      494C4F4E 
 2728      5F5F2030 
 2729              	.LASF133:
 2730 16fa 5F5F464C 		.ascii	"__FLT_MIN__ 1.1754943508222875e-38F\000"
 2730      545F4D49 
 2730      4E5F5F20 
 2730      312E3137 
 2730      35343934 
 2731              	.LASF321:
 2732 171e 5F5F4743 		.ascii	"__GCC_ATOMIC_LONG_LOCK_FREE 2\000"
 2732      435F4154 
 2732      4F4D4943 
 2732      5F4C4F4E 
 2732      475F4C4F 
 2733              	.LASF243:
 2734 173c 5F5F4143 		.ascii	"__ACCUM_EPSILON__ 0x1P-15K\000"
 2734      43554D5F 
 2734      45505349 
 2734      4C4F4E5F 
 2734      5F203078 
ARM GAS  C:\Users\Daro\AppData\Local\Temp\ccMicR6A.s 			page 65


 2735              	.LASF366:
 2736 1757 5F4D4143 		.ascii	"_MACHINE__DEFAULT_TYPES_H \000"
 2736      48494E45 
 2736      5F5F4445 
 2736      4641554C 
 2736      545F5459 
 2737              	.LASF397:
 2738 1772 5F5F696E 		.ascii	"__int_fast64_t_defined 1\000"
 2738      745F6661 
 2738      73743634 
 2738      5F745F64 
 2738      6566696E 
 2739              	.LASF346:
 2740 178b 5F5F4152 		.ascii	"__ARM_ARCH_ISA_THUMB 2\000"
 2740      4D5F4152 
 2740      43485F49 
 2740      53415F54 
 2740      48554D42 
 2741              	.LASF433:
 2742 17a2 55494E54 		.ascii	"UINT_FAST32_MAX __UINT_FAST32_MAX__\000"
 2742      5F464153 
 2742      5433325F 
 2742      4D415820 
 2742      5F5F5549 
 2743              	.LASF452:
 2744 17c6 55494E54 		.ascii	"UINT16_C(x) __UINT16_C(x)\000"
 2744      31365F43 
 2744      28782920 
 2744      5F5F5549 
 2744      4E543136 
 2745              	.LASF287:
 2746 17e0 5F5F5554 		.ascii	"__UTQ_FBIT__ 128\000"
 2746      515F4642 
 2746      49545F5F 
 2746      20313238 
 2746      00
 2747              	.LASF87:
 2748 17f1 5F5F494E 		.ascii	"__INT16_MAX__ 32767\000"
 2748      5431365F 
 2748      4D41585F 
 2748      5F203332 
 2748      37363700 
 2749              	.LASF469:
 2750 1805 6C6F6E67 		.ascii	"long long int\000"
 2750      206C6F6E 
 2750      6720696E 
 2750      7400
 2751              	.LASF23:
 2752 1813 5F5F4348 		.ascii	"__CHAR_BIT__ 8\000"
 2752      41525F42 
 2752      49545F5F 
 2752      203800
 2753              	.LASF393:
 2754 1822 5F5F696E 		.ascii	"__int_least64_t_defined 1\000"
 2754      745F6C65 
 2754      61737436 
 2754      345F745F 
ARM GAS  C:\Users\Daro\AppData\Local\Temp\ccMicR6A.s 			page 66


 2754      64656669 
 2755              	.LASF314:
 2756 183c 5F5F4743 		.ascii	"__GCC_ATOMIC_BOOL_LOCK_FREE 2\000"
 2756      435F4154 
 2756      4F4D4943 
 2756      5F424F4F 
 2756      4C5F4C4F 
 2757              	.LASF161:
 2758 185a 5F5F4C44 		.ascii	"__LDBL_MAX__ 1.7976931348623157e+308L\000"
 2758      424C5F4D 
 2758      41585F5F 
 2758      20312E37 
 2758      39373639 
 2759              	.LASF232:
 2760 1880 5F5F5341 		.ascii	"__SACCUM_MAX__ 0X7FFFP-7HK\000"
 2760      4343554D 
 2760      5F4D4158 
 2760      5F5F2030 
 2760      58374646 
 2761              	.LASF341:
 2762 189b 5F5F6172 		.ascii	"__arm__ 1\000"
 2762      6D5F5F20 
 2762      3100
 2763              	.LASF154:
 2764 18a5 5F5F4C44 		.ascii	"__LDBL_MANT_DIG__ 53\000"
 2764      424C5F4D 
 2764      414E545F 
 2764      4449475F 
 2764      5F203533 
 2765              	.LASF278:
 2766 18ba 5F5F5451 		.ascii	"__TQ_IBIT__ 0\000"
 2766      5F494249 
 2766      545F5F20 
 2766      3000
 2767              	.LASF297:
 2768 18c8 5F5F5548 		.ascii	"__UHA_FBIT__ 8\000"
 2768      415F4642 
 2768      49545F5F 
 2768      203800
 2769              	.LASF70:
 2770 18d7 5F5F5348 		.ascii	"__SHRT_MAX__ 32767\000"
 2770      52545F4D 
 2770      41585F5F 
 2770      20333237 
 2770      363700
 2771              	.LASF450:
 2772 18ea 55494E54 		.ascii	"UINT8_C(x) __UINT8_C(x)\000"
 2772      385F4328 
 2772      7829205F 
 2772      5F55494E 
 2772      54385F43 
 2773              	.LASF106:
 2774 1902 5F5F5549 		.ascii	"__UINT_LEAST32_MAX__ 4294967295UL\000"
 2774      4E545F4C 
 2774      45415354 
 2774      33325F4D 
 2774      41585F5F 
ARM GAS  C:\Users\Daro\AppData\Local\Temp\ccMicR6A.s 			page 67


 2775              	.LASF359:
 2776 1924 5F5F454C 		.ascii	"__ELF__ 1\000"
 2776      465F5F20 
 2776      3100
 2777              	.LASF333:
 2778 192e 5F5F4152 		.ascii	"__ARM_FEATURE_UNALIGNED 1\000"
 2778      4D5F4645 
 2778      41545552 
 2778      455F554E 
 2778      414C4947 
 2779              	.LASF323:
 2780 1948 5F5F4743 		.ascii	"__GCC_ATOMIC_TEST_AND_SET_TRUEVAL 1\000"
 2780      435F4154 
 2780      4F4D4943 
 2780      5F544553 
 2780      545F414E 
 2781              	.LASF325:
 2782 196c 5F5F4743 		.ascii	"__GCC_HAVE_DWARF2_CFI_ASM 1\000"
 2782      435F4841 
 2782      56455F44 
 2782      57415246 
 2782      325F4346 
 2783              	.LASF204:
 2784 1988 5F5F5546 		.ascii	"__UFRACT_FBIT__ 16\000"
 2784      52414354 
 2784      5F464249 
 2784      545F5F20 
 2784      313600
 2785              	.LASF174:
 2786 199b 5F5F4445 		.ascii	"__DEC32_SUBNORMAL_MIN__ 0.000001E-95DF\000"
 2786      4333325F 
 2786      5355424E 
 2786      4F524D41 
 2786      4C5F4D49 
 2787              	.LASF412:
 2788 19c2 55494E54 		.ascii	"UINT_LEAST16_MAX __UINT_LEAST16_MAX__\000"
 2788      5F4C4541 
 2788      53543136 
 2788      5F4D4158 
 2788      205F5F55 
 2789              	.LASF9:
 2790 19e8 5F5F4154 		.ascii	"__ATOMIC_ACQUIRE 2\000"
 2790      4F4D4943 
 2790      5F414351 
 2790      55495245 
 2790      203200
 2791              	.LASF389:
 2792 19fb 5F5F696E 		.ascii	"__int_least16_t_defined 1\000"
 2792      745F6C65 
 2792      61737431 
 2792      365F745F 
 2792      64656669 
 2793              	.LASF413:
 2794 1a15 494E5433 		.ascii	"INT32_MIN (-__INT32_MAX__ - 1)\000"
 2794      325F4D49 
 2794      4E20282D 
 2794      5F5F494E 
ARM GAS  C:\Users\Daro\AppData\Local\Temp\ccMicR6A.s 			page 68


 2794      5433325F 
 2795              	.LASF396:
 2796 1a34 5F5F696E 		.ascii	"__int_fast32_t_defined 1\000"
 2796      745F6661 
 2796      73743332 
 2796      5F745F64 
 2796      6566696E 
 2797              	.LASF0:
 2798 1a4d 5F5F5354 		.ascii	"__STDC__ 1\000"
 2798      44435F5F 
 2798      203100
 2799              	.LASF16:
 2800 1a58 5F5F5349 		.ascii	"__SIZEOF_LONG__ 4\000"
 2800      5A454F46 
 2800      5F4C4F4E 
 2800      475F5F20 
 2800      3400
 2801              	.LASF144:
 2802 1a6a 5F5F4442 		.ascii	"__DBL_MAX_EXP__ 1024\000"
 2802      4C5F4D41 
 2802      585F4558 
 2802      505F5F20 
 2802      31303234 
 2803              	.LASF441:
 2804 1a7f 5349475F 		.ascii	"SIG_ATOMIC_MIN (-__STDINT_EXP(INT_MAX) - 1)\000"
 2804      41544F4D 
 2804      49435F4D 
 2804      494E2028 
 2804      2D5F5F53 
 2805              	.LASF12:
 2806 1aab 5F5F4154 		.ascii	"__ATOMIC_CONSUME 1\000"
 2806      4F4D4943 
 2806      5F434F4E 
 2806      53554D45 
 2806      203100
 2807              	.LASF221:
 2808 1abe 5F5F4C4C 		.ascii	"__LLFRACT_MIN__ (-0.5LLR-0.5LLR)\000"
 2808      46524143 
 2808      545F4D49 
 2808      4E5F5F20 
 2808      282D302E 
 2809              	.LASF391:
 2810 1adf 5F5F696E 		.ascii	"__int_least32_t_defined 1\000"
 2810      745F6C65 
 2810      61737433 
 2810      325F745F 
 2810      64656669 
 2811              	.LASF400:
 2812 1af9 55494E54 		.ascii	"UINTPTR_MAX __UINTPTR_MAX__\000"
 2812      5054525F 
 2812      4D415820 
 2812      5F5F5549 
 2812      4E545054 
 2813              	.LASF428:
 2814 1b15 494E545F 		.ascii	"INT_FAST16_MIN (-__INT_FAST16_MAX__ - 1)\000"
 2814      46415354 
 2814      31365F4D 
ARM GAS  C:\Users\Daro\AppData\Local\Temp\ccMicR6A.s 			page 69


 2814      494E2028 
 2814      2D5F5F49 
 2815              	.LASF34:
 2816 1b3e 5F5F5749 		.ascii	"__WINT_TYPE__ unsigned int\000"
 2816      4E545F54 
 2816      5950455F 
 2816      5F20756E 
 2816      7369676E 
 2817              	.LASF118:
 2818 1b59 5F5F494E 		.ascii	"__INTPTR_MAX__ 2147483647\000"
 2818      54505452 
 2818      5F4D4158 
 2818      5F5F2032 
 2818      31343734 
 2819              	.LASF254:
 2820 1b73 5F5F554C 		.ascii	"__ULACCUM_FBIT__ 32\000"
 2820      41434355 
 2820      4D5F4642 
 2820      49545F5F 
 2820      20333200 
 2821              	.LASF214:
 2822 1b87 5F5F554C 		.ascii	"__ULFRACT_FBIT__ 32\000"
 2822      46524143 
 2822      545F4642 
 2822      49545F5F 
 2822      20333200 
 2823              	.LASF33:
 2824 1b9b 5F5F5743 		.ascii	"__WCHAR_TYPE__ unsigned int\000"
 2824      4841525F 
 2824      54595045 
 2824      5F5F2075 
 2824      6E736967 
 2825              	.LASF241:
 2826 1bb7 5F5F4143 		.ascii	"__ACCUM_MIN__ (-0X1P15K-0X1P15K)\000"
 2826      43554D5F 
 2826      4D494E5F 
 2826      5F20282D 
 2826      30583150 
 2827              	.LASF20:
 2828 1bd8 5F5F5349 		.ascii	"__SIZEOF_DOUBLE__ 8\000"
 2828      5A454F46 
 2828      5F444F55 
 2828      424C455F 
 2828      5F203800 
 2829              	.LASF5:
 2830 1bec 5F5F474E 		.ascii	"__GNUC_PATCHLEVEL__ 3\000"
 2830      55435F50 
 2830      41544348 
 2830      4C455645 
 2830      4C5F5F20 
 2831              	.LASF202:
 2832 1c02 5F5F4652 		.ascii	"__FRACT_MAX__ 0X7FFFP-15R\000"
 2832      4143545F 
 2832      4D41585F 
 2832      5F203058 
 2832      37464646 
 2833              	.LASF77:
ARM GAS  C:\Users\Daro\AppData\Local\Temp\ccMicR6A.s 			page 70


 2834 1c1c 5F5F5749 		.ascii	"__WINT_MIN__ 0U\000"
 2834      4E545F4D 
 2834      494E5F5F 
 2834      20305500 
 2835              	.LASF74:
 2836 1c2c 5F5F5743 		.ascii	"__WCHAR_MAX__ 4294967295U\000"
 2836      4841525F 
 2836      4D41585F 
 2836      5F203432 
 2836      39343936 
 2837              	.LASF13:
 2838 1c46 5F5F4641 		.ascii	"__FAST_MATH__ 1\000"
 2838      53545F4D 
 2838      4154485F 
 2838      5F203100 
 2839              	.LASF409:
 2840 1c56 55494E54 		.ascii	"UINT16_MAX __UINT16_MAX__\000"
 2840      31365F4D 
 2840      4158205F 
 2840      5F55494E 
 2840      5431365F 
 2841              	.LASF420:
 2842 1c70 494E5436 		.ascii	"INT64_MAX __INT64_MAX__\000"
 2842      345F4D41 
 2842      58205F5F 
 2842      494E5436 
 2842      345F4D41 
 2843              	.LASF200:
 2844 1c88 5F5F4652 		.ascii	"__FRACT_IBIT__ 0\000"
 2844      4143545F 
 2844      49424954 
 2844      5F5F2030 
 2844      00
 2845              	.LASF162:
 2846 1c99 5F5F4C44 		.ascii	"__LDBL_MIN__ 2.2250738585072014e-308L\000"
 2846      424C5F4D 
 2846      494E5F5F 
 2846      20322E32 
 2846      32353037 
 2847              	.LASF295:
 2848 1cbf 5F5F5441 		.ascii	"__TA_FBIT__ 63\000"
 2848      5F464249 
 2848      545F5F20 
 2848      363300
 2849              	.LASF166:
 2850 1cce 5F5F4C44 		.ascii	"__LDBL_HAS_INFINITY__ 1\000"
 2850      424C5F48 
 2850      41535F49 
 2850      4E46494E 
 2850      4954595F 
 2851              	.LASF121:
 2852 1ce6 5F5F4743 		.ascii	"__GCC_IEC_559_COMPLEX 0\000"
 2852      435F4945 
 2852      435F3535 
 2852      395F434F 
 2852      4D504C45 
 2853              	.LASF156:
ARM GAS  C:\Users\Daro\AppData\Local\Temp\ccMicR6A.s 			page 71


 2854 1cfe 5F5F4C44 		.ascii	"__LDBL_MIN_EXP__ (-1021)\000"
 2854      424C5F4D 
 2854      494E5F45 
 2854      58505F5F 
 2854      20282D31 
 2855              	.LASF224:
 2856 1d17 5F5F554C 		.ascii	"__ULLFRACT_FBIT__ 64\000"
 2856      4C465241 
 2856      43545F46 
 2856      4249545F 
 2856      5F203634 
 2857              	.LASF327:
 2858 1d2c 5F5F5349 		.ascii	"__SIZEOF_WCHAR_T__ 4\000"
 2858      5A454F46 
 2858      5F574348 
 2858      41525F54 
 2858      5F5F2034 
 2859              	.LASF29:
 2860 1d41 5F5F464C 		.ascii	"__FLOAT_WORD_ORDER__ __ORDER_LITTLE_ENDIAN__\000"
 2860      4F41545F 
 2860      574F5244 
 2860      5F4F5244 
 2860      45525F5F 
 2861              	.LASF242:
 2862 1d6e 5F5F4143 		.ascii	"__ACCUM_MAX__ 0X7FFFFFFFP-15K\000"
 2862      43554D5F 
 2862      4D41585F 
 2862      5F203058 
 2862      37464646 
 2863              	.LASF205:
 2864 1d8c 5F5F5546 		.ascii	"__UFRACT_IBIT__ 0\000"
 2864      52414354 
 2864      5F494249 
 2864      545F5F20 
 2864      3000
 2865              	.LASF168:
 2866 1d9e 5F5F4445 		.ascii	"__DEC32_MANT_DIG__ 7\000"
 2866      4333325F 
 2866      4D414E54 
 2866      5F444947 
 2866      5F5F2037 
 2867              	.LASF176:
 2868 1db3 5F5F4445 		.ascii	"__DEC64_MIN_EXP__ (-382)\000"
 2868      4336345F 
 2868      4D494E5F 
 2868      4558505F 
 2868      5F20282D 
 2869              	.LASF85:
 2870 1dcc 5F5F5349 		.ascii	"__SIG_ATOMIC_MIN__ (-__SIG_ATOMIC_MAX__ - 1)\000"
 2870      475F4154 
 2870      4F4D4943 
 2870      5F4D494E 
 2870      5F5F2028 
 2871              	.LASF223:
 2872 1df9 5F5F4C4C 		.ascii	"__LLFRACT_EPSILON__ 0x1P-63LLR\000"
 2872      46524143 
 2872      545F4550 
ARM GAS  C:\Users\Daro\AppData\Local\Temp\ccMicR6A.s 			page 72


 2872      53494C4F 
 2872      4E5F5F20 
 2873              	.LASF159:
 2874 1e18 5F5F4C44 		.ascii	"__LDBL_MAX_10_EXP__ 308\000"
 2874      424C5F4D 
 2874      41585F31 
 2874      305F4558 
 2874      505F5F20 
 2875              	.LASF189:
 2876 1e30 5F5F5346 		.ascii	"__SFRACT_FBIT__ 7\000"
 2876      52414354 
 2876      5F464249 
 2876      545F5F20 
 2876      3700
 2877              	.LASF38:
 2878 1e42 5F5F4348 		.ascii	"__CHAR32_TYPE__ long unsigned int\000"
 2878      41523332 
 2878      5F545950 
 2878      455F5F20 
 2878      6C6F6E67 
 2879              	.LASF51:
 2880 1e64 5F5F494E 		.ascii	"__INT_LEAST64_TYPE__ long long int\000"
 2880      545F4C45 
 2880      41535436 
 2880      345F5459 
 2880      50455F5F 
 2881              	.LASF395:
 2882 1e87 5F5F696E 		.ascii	"__int_fast16_t_defined 1\000"
 2882      745F6661 
 2882      73743136 
 2882      5F745F64 
 2882      6566696E 
 2883              	.LASF135:
 2884 1ea0 5F5F464C 		.ascii	"__FLT_DENORM_MIN__ 1.4012984643248171e-45F\000"
 2884      545F4445 
 2884      4E4F524D 
 2884      5F4D494E 
 2884      5F5F2031 
 2885              	.LASF54:
 2886 1ecb 5F5F5549 		.ascii	"__UINT_LEAST32_TYPE__ long unsigned int\000"
 2886      4E545F4C 
 2886      45415354 
 2886      33325F54 
 2886      5950455F 
 2887              	.LASF275:
 2888 1ef3 5F5F4451 		.ascii	"__DQ_FBIT__ 63\000"
 2888      5F464249 
 2888      545F5F20 
 2888      363300
 2889              	.LASF237:
 2890 1f02 5F5F5553 		.ascii	"__USACCUM_MAX__ 0XFFFFP-8UHK\000"
 2890      41434355 
 2890      4D5F4D41 
 2890      585F5F20 
 2890      30584646 
 2891              	.LASF435:
 2892 1f1f 494E545F 		.ascii	"INT_FAST64_MAX __INT_FAST64_MAX__\000"
ARM GAS  C:\Users\Daro\AppData\Local\Temp\ccMicR6A.s 			page 73


 2892      46415354 
 2892      36345F4D 
 2892      4158205F 
 2892      5F494E54 
 2893              	.LASF335:
 2894 1f41 5F5F4152 		.ascii	"__ARM_FEATURE_LDREX 7\000"
 2894      4D5F4645 
 2894      41545552 
 2894      455F4C44 
 2894      52455820 
 2895              	.LASF369:
 2896 1f57 5F5F4E45 		.ascii	"__NEWLIB_MINOR__ 1\000"
 2896      574C4942 
 2896      5F4D494E 
 2896      4F525F5F 
 2896      203100
 2897              	.LASF258:
 2898 1f6a 5F5F554C 		.ascii	"__ULACCUM_EPSILON__ 0x1P-32ULK\000"
 2898      41434355 
 2898      4D5F4550 
 2898      53494C4F 
 2898      4E5F5F20 
 2899              	.LASF90:
 2900 1f89 5F5F5549 		.ascii	"__UINT8_MAX__ 255\000"
 2900      4E54385F 
 2900      4D41585F 
 2900      5F203235 
 2900      3500
 2901              	.LASF371:
 2902 1f9b 5F5F474E 		.ascii	"__GNUC_PREREQ__(ma,mi) __GNUC_PREREQ(ma, mi)\000"
 2902      55435F50 
 2902      52455245 
 2902      515F5F28 
 2902      6D612C6D 
 2903              	.LASF252:
 2904 1fc8 5F5F4C41 		.ascii	"__LACCUM_MAX__ 0X7FFFFFFFFFFFFFFFP-31LK\000"
 2904      4343554D 
 2904      5F4D4158 
 2904      5F5F2030 
 2904      58374646 
 2905              	.LASF27:
 2906 1ff0 5F5F4F52 		.ascii	"__ORDER_PDP_ENDIAN__ 3412\000"
 2906      4445525F 
 2906      5044505F 
 2906      454E4449 
 2906      414E5F5F 
 2907              	.LASF274:
 2908 200a 5F5F5351 		.ascii	"__SQ_IBIT__ 0\000"
 2908      5F494249 
 2908      545F5F20 
 2908      3000
 2909              	.LASF131:
 2910 2018 5F5F464C 		.ascii	"__FLT_DECIMAL_DIG__ 9\000"
 2910      545F4445 
 2910      43494D41 
 2910      4C5F4449 
 2910      475F5F20 
ARM GAS  C:\Users\Daro\AppData\Local\Temp\ccMicR6A.s 			page 74


 2911              	.LASF365:
 2912 202e 5F535444 		.ascii	"_STDINT_H \000"
 2912      494E545F 
 2912      482000
 2913              	.LASF76:
 2914 2039 5F5F5749 		.ascii	"__WINT_MAX__ 4294967295U\000"
 2914      4E545F4D 
 2914      41585F5F 
 2914      20343239 
 2914      34393637 
 2915              	.LASF279:
 2916 2052 5F5F5551 		.ascii	"__UQQ_FBIT__ 8\000"
 2916      515F4642 
 2916      49545F5F 
 2916      203800
 2917              	.LASF69:
 2918 2061 5F5F5343 		.ascii	"__SCHAR_MAX__ 127\000"
 2918      4841525F 
 2918      4D41585F 
 2918      5F203132 
 2918      3700
 2919              	.LASF388:
 2920 2073 5F5F696E 		.ascii	"__int16_t_defined 1\000"
 2920      7431365F 
 2920      745F6465 
 2920      66696E65 
 2920      64203100 
 2921              	.LASF116:
 2922 2087 5F5F5549 		.ascii	"__UINT_FAST32_MAX__ 4294967295U\000"
 2922      4E545F46 
 2922      41535433 
 2922      325F4D41 
 2922      585F5F20 
 2923              	.LASF463:
 2924 20a7 73686F72 		.ascii	"short int\000"
 2924      7420696E 
 2924      7400
 2925              	.LASF247:
 2926 20b1 5F5F5541 		.ascii	"__UACCUM_MAX__ 0XFFFFFFFFP-16UK\000"
 2926      4343554D 
 2926      5F4D4158 
 2926      5F5F2030 
 2926      58464646 
 2927              	.LASF177:
 2928 20d1 5F5F4445 		.ascii	"__DEC64_MAX_EXP__ 385\000"
 2928      4336345F 
 2928      4D41585F 
 2928      4558505F 
 2928      5F203338 
 2929              	.LASF281:
 2930 20e7 5F5F5548 		.ascii	"__UHQ_FBIT__ 16\000"
 2930      515F4642 
 2930      49545F5F 
 2930      20313600 
 2931              	.LASF42:
 2932 20f7 5F5F494E 		.ascii	"__INT32_TYPE__ long int\000"
 2932      5433325F 
ARM GAS  C:\Users\Daro\AppData\Local\Temp\ccMicR6A.s 			page 75


 2932      54595045 
 2932      5F5F206C 
 2932      6F6E6720 
 2933              	.LASF482:
 2934 210f 71756575 		.ascii	"queueInit\000"
 2934      65496E69 
 2934      7400
 2935              	.LASF465:
 2936 2119 6C6F6E67 		.ascii	"long int\000"
 2936      20696E74 
 2936      00
 2937              	.LASF460:
 2938 2122 51554555 		.ascii	"QUEUE_SIZE 256\000"
 2938      455F5349 
 2938      5A452032 
 2938      353600
 2939              	.LASF390:
 2940 2131 5F5F696E 		.ascii	"__int32_t_defined 1\000"
 2940      7433325F 
 2940      745F6465 
 2940      66696E65 
 2940      64203100 
 2941              	.LASF158:
 2942 2145 5F5F4C44 		.ascii	"__LDBL_MAX_EXP__ 1024\000"
 2942      424C5F4D 
 2942      41585F45 
 2942      58505F5F 
 2942      20313032 
 2943              	.LASF273:
 2944 215b 5F5F5351 		.ascii	"__SQ_FBIT__ 31\000"
 2944      5F464249 
 2944      545F5F20 
 2944      333100
 2945              	.LASF372:
 2946 216a 5F5F4558 		.ascii	"__EXP(x) __ ##x ##__\000"
 2946      50287829 
 2946      205F5F20 
 2946      23237820 
 2946      23235F5F 
 2947              	.LASF234:
 2948 217f 5F5F5553 		.ascii	"__USACCUM_FBIT__ 8\000"
 2948      41434355 
 2948      4D5F4642 
 2948      49545F5F 
 2948      203800
 2949              	.LASF184:
 2950 2192 5F5F4445 		.ascii	"__DEC128_MAX_EXP__ 6145\000"
 2950      43313238 
 2950      5F4D4158 
 2950      5F455850 
 2950      5F5F2036 
 2951              	.LASF423:
 2952 21aa 494E545F 		.ascii	"INT_LEAST64_MAX __INT_LEAST64_MAX__\000"
 2952      4C454153 
 2952      5436345F 
 2952      4D415820 
 2952      5F5F494E 
ARM GAS  C:\Users\Daro\AppData\Local\Temp\ccMicR6A.s 			page 76


 2953              	.LASF443:
 2954 21ce 50545244 		.ascii	"PTRDIFF_MAX __PTRDIFF_MAX__\000"
 2954      4946465F 
 2954      4D415820 
 2954      5F5F5054 
 2954      52444946 
 2955              	.LASF344:
 2956 21ea 5F5F7468 		.ascii	"__thumb__ 1\000"
 2956      756D625F 
 2956      5F203100 
 2957              	.LASF167:
 2958 21f6 5F5F4C44 		.ascii	"__LDBL_HAS_QUIET_NAN__ 1\000"
 2958      424C5F48 
 2958      41535F51 
 2958      55494554 
 2958      5F4E414E 
 2959              	.LASF40:
 2960 220f 5F5F494E 		.ascii	"__INT8_TYPE__ signed char\000"
 2960      54385F54 
 2960      5950455F 
 2960      5F207369 
 2960      676E6564 
 2961              	.LASF306:
 2962 2229 5F5F5553 		.ascii	"__USER_LABEL_PREFIX__ \000"
 2962      45525F4C 
 2962      4142454C 
 2962      5F505245 
 2962      4649585F 
 2963              	.LASF424:
 2964 2240 55494E54 		.ascii	"UINT_LEAST64_MAX __UINT_LEAST64_MAX__\000"
 2964      5F4C4541 
 2964      53543634 
 2964      5F4D4158 
 2964      205F5F55 
 2965              	.LASF97:
 2966 2266 5F5F494E 		.ascii	"__INT16_C(c) c\000"
 2966      5431365F 
 2966      43286329 
 2966      206300
 2967              	.LASF339:
 2968 2275 5F5F4152 		.ascii	"__ARM_SIZEOF_WCHAR_T 32\000"
 2968      4D5F5349 
 2968      5A454F46 
 2968      5F574348 
 2968      41525F54 
 2969              	.LASF277:
 2970 228d 5F5F5451 		.ascii	"__TQ_FBIT__ 127\000"
 2970      5F464249 
 2970      545F5F20 
 2970      31323700 
 2971              	.LASF198:
 2972 229d 5F5F5553 		.ascii	"__USFRACT_EPSILON__ 0x1P-8UHR\000"
 2972      46524143 
 2972      545F4550 
 2972      53494C4F 
 2972      4E5F5F20 
 2973              	.LASF117:
ARM GAS  C:\Users\Daro\AppData\Local\Temp\ccMicR6A.s 			page 77


 2974 22bb 5F5F5549 		.ascii	"__UINT_FAST64_MAX__ 18446744073709551615ULL\000"
 2974      4E545F46 
 2974      41535436 
 2974      345F4D41 
 2974      585F5F20 
 2975              	.LASF352:
 2976 22e7 5F5F4152 		.ascii	"__ARM_NEON_FP 4\000"
 2976      4D5F4E45 
 2976      4F4E5F46 
 2976      50203400 
 2977              	.LASF310:
 2978 22f7 5F5F4348 		.ascii	"__CHAR_UNSIGNED__ 1\000"
 2978      41525F55 
 2978      4E534947 
 2978      4E45445F 
 2978      5F203100 
 2979              	.LASF265:
 2980 230b 5F5F554C 		.ascii	"__ULLACCUM_IBIT__ 32\000"
 2980      4C414343 
 2980      554D5F49 
 2980      4249545F 
 2980      5F203332 
 2981              	.LASF89:
 2982 2320 5F5F494E 		.ascii	"__INT64_MAX__ 9223372036854775807LL\000"
 2982      5436345F 
 2982      4D41585F 
 2982      5F203932 
 2982      32333337 
 2983              	.LASF194:
 2984 2344 5F5F5553 		.ascii	"__USFRACT_FBIT__ 8\000"
 2984      46524143 
 2984      545F4642 
 2984      49545F5F 
 2984      203800
 2985              	.LASF285:
 2986 2357 5F5F5544 		.ascii	"__UDQ_FBIT__ 64\000"
 2986      515F4642 
 2986      49545F5F 
 2986      20363400 
 2987              	.LASF271:
 2988 2367 5F5F4851 		.ascii	"__HQ_FBIT__ 15\000"
 2988      5F464249 
 2988      545F5F20 
 2988      313500
 2989              	.LASF115:
 2990 2376 5F5F5549 		.ascii	"__UINT_FAST16_MAX__ 4294967295U\000"
 2990      4E545F46 
 2990      41535431 
 2990      365F4D41 
 2990      585F5F20 
 2991              	.LASF298:
 2992 2396 5F5F5548 		.ascii	"__UHA_IBIT__ 8\000"
 2992      415F4942 
 2992      49545F5F 
 2992      203800
 2993              	.LASF337:
 2994 23a5 5F5F4152 		.ascii	"__ARM_FEATURE_SIMD32 1\000"
ARM GAS  C:\Users\Daro\AppData\Local\Temp\ccMicR6A.s 			page 78


 2994      4D5F4645 
 2994      41545552 
 2994      455F5349 
 2994      4D443332 
 2995              	.LASF190:
 2996 23bc 5F5F5346 		.ascii	"__SFRACT_IBIT__ 0\000"
 2996      52414354 
 2996      5F494249 
 2996      545F5F20 
 2996      3000
 2997              	.LASF17:
 2998 23ce 5F5F5349 		.ascii	"__SIZEOF_LONG_LONG__ 8\000"
 2998      5A454F46 
 2998      5F4C4F4E 
 2998      475F4C4F 
 2998      4E475F5F 
 2999              	.LASF280:
 3000 23e5 5F5F5551 		.ascii	"__UQQ_IBIT__ 0\000"
 3000      515F4942 
 3000      49545F5F 
 3000      203000
 3001              	.LASF44:
 3002 23f4 5F5F5549 		.ascii	"__UINT8_TYPE__ unsigned char\000"
 3002      4E54385F 
 3002      54595045 
 3002      5F5F2075 
 3002      6E736967 
 3003              	.LASF66:
 3004 2411 5F5F6861 		.ascii	"__has_include(STR) __has_include__(STR)\000"
 3004      735F696E 
 3004      636C7564 
 3004      65285354 
 3004      5229205F 
 3005              	.LASF101:
 3006 2439 5F5F494E 		.ascii	"__INT64_C(c) c ## LL\000"
 3006      5436345F 
 3006      43286329 
 3006      20632023 
 3006      23204C4C 
 3007              	.LASF466:
 3008 244e 5F5F7569 		.ascii	"__uint8_t\000"
 3008      6E74385F 
 3008      7400
 3009              	.LASF104:
 3010 2458 5F5F5549 		.ascii	"__UINT_LEAST16_MAX__ 65535\000"
 3010      4E545F4C 
 3010      45415354 
 3010      31365F4D 
 3010      41585F5F 
 3011              	.LASF458:
 3012 2473 55494E54 		.ascii	"UINTMAX_C(x) __UINTMAX_C(x)\000"
 3012      4D41585F 
 3012      43287829 
 3012      205F5F55 
 3012      494E544D 
 3013              	.LASF46:
 3014 248f 5F5F5549 		.ascii	"__UINT32_TYPE__ long unsigned int\000"
ARM GAS  C:\Users\Daro\AppData\Local\Temp\ccMicR6A.s 			page 79


 3014      4E543332 
 3014      5F545950 
 3014      455F5F20 
 3014      6C6F6E67 
 3015              	.LASF157:
 3016 24b1 5F5F4C44 		.ascii	"__LDBL_MIN_10_EXP__ (-307)\000"
 3016      424C5F4D 
 3016      494E5F31 
 3016      305F4558 
 3016      505F5F20 
 3017              	.LASF30:
 3018 24cc 5F5F5349 		.ascii	"__SIZEOF_POINTER__ 4\000"
 3018      5A454F46 
 3018      5F504F49 
 3018      4E544552 
 3018      5F5F2034 
 3019              	.LASF471:
 3020 24e1 756E7369 		.ascii	"unsigned int\000"
 3020      676E6564 
 3020      20696E74 
 3020      00
 3021              	.LASF349:
 3022 24ee 5F5F5646 		.ascii	"__VFP_FP__ 1\000"
 3022      505F4650 
 3022      5F5F2031 
 3022      00
 3023              	.LASF217:
 3024 24fb 5F5F554C 		.ascii	"__ULFRACT_MAX__ 0XFFFFFFFFP-32ULR\000"
 3024      46524143 
 3024      545F4D41 
 3024      585F5F20 
 3024      30584646 
 3025              	.LASF289:
 3026 251d 5F5F4841 		.ascii	"__HA_FBIT__ 7\000"
 3026      5F464249 
 3026      545F5F20 
 3026      3700
 3027              	.LASF483:
 3028 252b 71756575 		.ascii	"queueDelete\000"
 3028      6544656C 
 3028      65746500 
 3029              	.LASF231:
 3030 2537 5F5F5341 		.ascii	"__SACCUM_MIN__ (-0X1P7HK-0X1P7HK)\000"
 3030      4343554D 
 3030      5F4D494E 
 3030      5F5F2028 
 3030      2D305831 
 3031              	.LASF84:
 3032 2559 5F5F5349 		.ascii	"__SIG_ATOMIC_MAX__ 2147483647\000"
 3032      475F4154 
 3032      4F4D4943 
 3032      5F4D4158 
 3032      5F5F2032 
 3033              	.LASF324:
 3034 2577 5F5F4743 		.ascii	"__GCC_ATOMIC_POINTER_LOCK_FREE 2\000"
 3034      435F4154 
 3034      4F4D4943 
ARM GAS  C:\Users\Daro\AppData\Local\Temp\ccMicR6A.s 			page 80


 3034      5F504F49 
 3034      4E544552 
 3035              	.LASF109:
 3036 2598 5F5F5549 		.ascii	"__UINT64_C(c) c ## ULL\000"
 3036      4E543634 
 3036      5F432863 
 3036      29206320 
 3036      23232055 
 3037              	.LASF253:
 3038 25af 5F5F4C41 		.ascii	"__LACCUM_EPSILON__ 0x1P-31LK\000"
 3038      4343554D 
 3038      5F455053 
 3038      494C4F4E 
 3038      5F5F2030 
 3039              	.LASF193:
 3040 25cc 5F5F5346 		.ascii	"__SFRACT_EPSILON__ 0x1P-7HR\000"
 3040      52414354 
 3040      5F455053 
 3040      494C4F4E 
 3040      5F5F2030 
 3041              	.LASF477:
 3042 25e8 73697A65 		.ascii	"sizetype\000"
 3042      74797065 
 3042      00
 3043              	.LASF283:
 3044 25f1 5F5F5553 		.ascii	"__USQ_FBIT__ 32\000"
 3044      515F4642 
 3044      49545F5F 
 3044      20333200 
 3045              	.LASF290:
 3046 2601 5F5F4841 		.ascii	"__HA_IBIT__ 8\000"
 3046      5F494249 
 3046      545F5F20 
 3046      3800
 3047              	.LASF468:
 3048 260f 6C6F6E67 		.ascii	"long unsigned int\000"
 3048      20756E73 
 3048      69676E65 
 3048      6420696E 
 3048      7400
 3049              	.LASF119:
 3050 2621 5F5F5549 		.ascii	"__UINTPTR_MAX__ 4294967295U\000"
 3050      4E545054 
 3050      525F4D41 
 3050      585F5F20 
 3050      34323934 
 3051              	.LASF317:
 3052 263d 5F5F4743 		.ascii	"__GCC_ATOMIC_CHAR32_T_LOCK_FREE 2\000"
 3052      435F4154 
 3052      4F4D4943 
 3052      5F434841 
 3052      5233325F 
 3053              	.LASF1:
 3054 265f 5F5F5354 		.ascii	"__STDC_VERSION__ 199901L\000"
 3054      44435F56 
 3054      45525349 
 3054      4F4E5F5F 
ARM GAS  C:\Users\Daro\AppData\Local\Temp\ccMicR6A.s 			page 81


 3054      20313939 
 3055              	.LASF481:
 3056 2678 71756575 		.ascii	"queueAdd\000"
 3056      65416464 
 3056      00
 3057              	.LASF91:
 3058 2681 5F5F5549 		.ascii	"__UINT16_MAX__ 65535\000"
 3058      4E543136 
 3058      5F4D4158 
 3058      5F5F2036 
 3058      35353335 
 3059              	.LASF82:
 3060 2696 5F5F5549 		.ascii	"__UINTMAX_MAX__ 18446744073709551615ULL\000"
 3060      4E544D41 
 3060      585F4D41 
 3060      585F5F20 
 3060      31383434 
 3061              	.LASF203:
 3062 26be 5F5F4652 		.ascii	"__FRACT_EPSILON__ 0x1P-15R\000"
 3062      4143545F 
 3062      45505349 
 3062      4C4F4E5F 
 3062      5F203078 
 3063              	.LASF2:
 3064 26d9 5F5F5354 		.ascii	"__STDC_HOSTED__ 1\000"
 3064      44435F48 
 3064      4F535445 
 3064      445F5F20 
 3064      3100
 3065              	.LASF449:
 3066 26eb 494E5438 		.ascii	"INT8_C(x) __INT8_C(x)\000"
 3066      5F432878 
 3066      29205F5F 
 3066      494E5438 
 3066      5F432878 
 3067              	.LASF80:
 3068 2701 5F5F494E 		.ascii	"__INTMAX_MAX__ 9223372036854775807LL\000"
 3068      544D4158 
 3068      5F4D4158 
 3068      5F5F2039 
 3068      32323333 
 3069              	.LASF326:
 3070 2726 5F5F5052 		.ascii	"__PRAGMA_REDEFINE_EXTNAME 1\000"
 3070      41474D41 
 3070      5F524544 
 3070      4546494E 
 3070      455F4558 
 3071              	.LASF113:
 3072 2742 5F5F494E 		.ascii	"__INT_FAST64_MAX__ 9223372036854775807LL\000"
 3072      545F4641 
 3072      53543634 
 3072      5F4D4158 
 3072      5F5F2039 
 3073              	.LASF383:
 3074 276b 5F5F5354 		.ascii	"__STDINT_EXP(x) __ ##x ##__\000"
 3074      44494E54 
 3074      5F455850 
ARM GAS  C:\Users\Daro\AppData\Local\Temp\ccMicR6A.s 			page 82


 3074      28782920 
 3074      5F5F2023 
 3075              	.LASF446:
 3076 2787 57434841 		.ascii	"WCHAR_MAX __WCHAR_MAX__\000"
 3076      525F4D41 
 3076      58205F5F 
 3076      57434841 
 3076      525F4D41 
 3077              	.LASF364:
 3078 279f 5F5F5155 		.ascii	"__QUEUE_H \000"
 3078      4555455F 
 3078      482000
 3079              	.LASF322:
 3080 27aa 5F5F4743 		.ascii	"__GCC_ATOMIC_LLONG_LOCK_FREE 1\000"
 3080      435F4154 
 3080      4F4D4943 
 3080      5F4C4C4F 
 3080      4E475F4C 
 3081              	.LASF129:
 3082 27c9 5F5F464C 		.ascii	"__FLT_MAX_EXP__ 128\000"
 3082      545F4D41 
 3082      585F4558 
 3082      505F5F20 
 3082      31323800 
 3083              	.LASF111:
 3084 27dd 5F5F494E 		.ascii	"__INT_FAST16_MAX__ 2147483647\000"
 3084      545F4641 
 3084      53543136 
 3084      5F4D4158 
 3084      5F5F2032 
 3085              	.LASF63:
 3086 27fb 5F5F5549 		.ascii	"__UINT_FAST64_TYPE__ long long unsigned int\000"
 3086      4E545F46 
 3086      41535436 
 3086      345F5459 
 3086      50455F5F 
 3087              	.LASF462:
 3088 2827 756E7369 		.ascii	"unsigned char\000"
 3088      676E6564 
 3088      20636861 
 3088      7200
 3089              	.LASF169:
 3090 2835 5F5F4445 		.ascii	"__DEC32_MIN_EXP__ (-94)\000"
 3090      4333325F 
 3090      4D494E5F 
 3090      4558505F 
 3090      5F20282D 
 3091              	.LASF36:
 3092 284d 5F5F5549 		.ascii	"__UINTMAX_TYPE__ long long unsigned int\000"
 3092      4E544D41 
 3092      585F5459 
 3092      50455F5F 
 3092      206C6F6E 
 3093              	.LASF467:
 3094 2875 5F5F7569 		.ascii	"__uint32_t\000"
 3094      6E743332 
 3094      5F7400
ARM GAS  C:\Users\Daro\AppData\Local\Temp\ccMicR6A.s 			page 83


 3095              	.LASF486:
 3096 2880 433A5C44 		.ascii	"C:\\DEV\\arm\\projects\\stm32f4discovery\000"
 3096      45565C61 
 3096      726D5C70 
 3096      726F6A65 
 3096      6374735C 
 3097              	.LASF427:
 3098 28a5 55494E54 		.ascii	"UINT_FAST8_MAX __UINT_FAST8_MAX__\000"
 3098      5F464153 
 3098      54385F4D 
 3098      4158205F 
 3098      5F55494E 
 3099              	.LASF163:
 3100 28c7 5F5F4C44 		.ascii	"__LDBL_EPSILON__ 2.2204460492503131e-16L\000"
 3100      424C5F45 
 3100      5053494C 
 3100      4F4E5F5F 
 3100      20322E32 
 3101              	.LASF64:
 3102 28f0 5F5F494E 		.ascii	"__INTPTR_TYPE__ int\000"
 3102      54505452 
 3102      5F545950 
 3102      455F5F20 
 3102      696E7400 
 3103              	.LASF355:
 3104 2904 5F5F4152 		.ascii	"__ARM_PCS_VFP 1\000"
 3104      4D5F5043 
 3104      535F5646 
 3104      50203100 
 3105              	.LASF236:
 3106 2914 5F5F5553 		.ascii	"__USACCUM_MIN__ 0.0UHK\000"
 3106      41434355 
 3106      4D5F4D49 
 3106      4E5F5F20 
 3106      302E3055 
 3107              	.LASF195:
 3108 292b 5F5F5553 		.ascii	"__USFRACT_IBIT__ 0\000"
 3108      46524143 
 3108      545F4942 
 3108      49545F5F 
 3108      203000
 3109              	.LASF62:
 3110 293e 5F5F5549 		.ascii	"__UINT_FAST32_TYPE__ unsigned int\000"
 3110      4E545F46 
 3110      41535433 
 3110      325F5459 
 3110      50455F5F 
 3111              	.LASF476:
 3112 2960 7461696C 		.ascii	"tail\000"
 3112      00
 3113              	.LASF276:
 3114 2965 5F5F4451 		.ascii	"__DQ_IBIT__ 0\000"
 3114      5F494249 
 3114      545F5F20 
 3114      3000
 3115              	.LASF110:
 3116 2973 5F5F494E 		.ascii	"__INT_FAST8_MAX__ 2147483647\000"
ARM GAS  C:\Users\Daro\AppData\Local\Temp\ccMicR6A.s 			page 84


 3116      545F4641 
 3116      5354385F 
 3116      4D41585F 
 3116      5F203231 
 3117              	.LASF31:
 3118 2990 5F5F5349 		.ascii	"__SIZE_TYPE__ unsigned int\000"
 3118      5A455F54 
 3118      5950455F 
 3118      5F20756E 
 3118      7369676E 
 3119              	.LASF445:
 3120 29ab 57434841 		.ascii	"WCHAR_MIN __WCHAR_MIN__\000"
 3120      525F4D49 
 3120      4E205F5F 
 3120      57434841 
 3120      525F4D49 
 3121              	.LASF402:
 3122 29c3 494E5438 		.ascii	"INT8_MAX __INT8_MAX__\000"
 3122      5F4D4158 
 3122      205F5F49 
 3122      4E54385F 
 3122      4D41585F 
 3123              	.LASF264:
 3124 29d9 5F5F554C 		.ascii	"__ULLACCUM_FBIT__ 32\000"
 3124      4C414343 
 3124      554D5F46 
 3124      4249545F 
 3124      5F203332 
 3125              	.LASF381:
 3126 29ee 5F5F4558 		.ascii	"__EXP\000"
 3126      5000
 3127              	.LASF432:
 3128 29f4 494E545F 		.ascii	"INT_FAST32_MAX __INT_FAST32_MAX__\000"
 3128      46415354 
 3128      33325F4D 
 3128      4158205F 
 3128      5F494E54 
 3129              	.LASF319:
 3130 2a16 5F5F4743 		.ascii	"__GCC_ATOMIC_SHORT_LOCK_FREE 2\000"
 3130      435F4154 
 3130      4F4D4943 
 3130      5F53484F 
 3130      52545F4C 
 3131              	.LASF377:
 3132 2a35 5F5F5F69 		.ascii	"___int_least8_t_defined 1\000"
 3132      6E745F6C 
 3132      65617374 
 3132      385F745F 
 3132      64656669 
 3133              	.LASF128:
 3134 2a4f 5F5F464C 		.ascii	"__FLT_MIN_10_EXP__ (-37)\000"
 3134      545F4D49 
 3134      4E5F3130 
 3134      5F455850 
 3134      5F5F2028 
 3135              	.LASF480:
 3136 2a68 71756575 		.ascii	"queueIsFull\000"
ARM GAS  C:\Users\Daro\AppData\Local\Temp\ccMicR6A.s 			page 85


 3136      65497346 
 3136      756C6C00 
 3137              	.LASF75:
 3138 2a74 5F5F5743 		.ascii	"__WCHAR_MIN__ 0U\000"
 3138      4841525F 
 3138      4D494E5F 
 3138      5F203055 
 3138      00
 3139              	.LASF152:
 3140 2a85 5F5F4442 		.ascii	"__DBL_HAS_INFINITY__ 1\000"
 3140      4C5F4841 
 3140      535F494E 
 3140      46494E49 
 3140      54595F5F 
 3141              	.LASF58:
 3142 2a9c 5F5F494E 		.ascii	"__INT_FAST32_TYPE__ int\000"
 3142      545F4641 
 3142      53543332 
 3142      5F545950 
 3142      455F5F20 
 3143              	.LASF230:
 3144 2ab4 5F5F5341 		.ascii	"__SACCUM_IBIT__ 8\000"
 3144      4343554D 
 3144      5F494249 
 3144      545F5F20 
 3144      3800
 3145              	.LASF138:
 3146 2ac6 5F5F464C 		.ascii	"__FLT_HAS_QUIET_NAN__ 1\000"
 3146      545F4841 
 3146      535F5155 
 3146      4945545F 
 3146      4E414E5F 
 3147              	.LASF15:
 3148 2ade 5F5F5349 		.ascii	"__SIZEOF_INT__ 4\000"
 3148      5A454F46 
 3148      5F494E54 
 3148      5F5F2034 
 3148      00
 3149              	.LASF35:
 3150 2aef 5F5F494E 		.ascii	"__INTMAX_TYPE__ long long int\000"
 3150      544D4158 
 3150      5F545950 
 3150      455F5F20 
 3150      6C6F6E67 
 3151              	.LASF81:
 3152 2b0d 5F5F494E 		.ascii	"__INTMAX_C(c) c ## LL\000"
 3152      544D4158 
 3152      5F432863 
 3152      29206320 
 3152      2323204C 
 3153              	.LASF398:
 3154 2b23 494E5450 		.ascii	"INTPTR_MIN (-__INTPTR_MAX__ - 1)\000"
 3154      54525F4D 
 3154      494E2028 
 3154      2D5F5F49 
 3154      4E545054 
 3155              	.LASF343:
ARM GAS  C:\Users\Daro\AppData\Local\Temp\ccMicR6A.s 			page 86


 3156 2b44 5F5F4150 		.ascii	"__APCS_32__ 1\000"
 3156      43535F33 
 3156      325F5F20 
 3156      3100
 3157              	.LASF430:
 3158 2b52 55494E54 		.ascii	"UINT_FAST16_MAX __UINT_FAST16_MAX__\000"
 3158      5F464153 
 3158      5431365F 
 3158      4D415820 
 3158      5F5F5549 
 3159              	.LASF419:
 3160 2b76 494E5436 		.ascii	"INT64_MIN (-__INT64_MAX__ - 1)\000"
 3160      345F4D49 
 3160      4E20282D 
 3160      5F5F494E 
 3160      5436345F 
 3161              	.LASF457:
 3162 2b95 494E544D 		.ascii	"INTMAX_C(x) __INTMAX_C(x)\000"
 3162      41585F43 
 3162      28782920 
 3162      5F5F494E 
 3162      544D4158 
 3163              	.LASF150:
 3164 2baf 5F5F4442 		.ascii	"__DBL_DENORM_MIN__ ((double)4.9406564584124654e-324"
 3164      4C5F4445 
 3164      4E4F524D 
 3164      5F4D494E 
 3164      5F5F2028 
 3165 2be2 4C2900   		.ascii	"L)\000"
 3166              	.LASF47:
 3167 2be5 5F5F5549 		.ascii	"__UINT64_TYPE__ long long unsigned int\000"
 3167      4E543634 
 3167      5F545950 
 3167      455F5F20 
 3167      6C6F6E67 
 3168              	.LASF145:
 3169 2c0c 5F5F4442 		.ascii	"__DBL_MAX_10_EXP__ 308\000"
 3169      4C5F4D41 
 3169      585F3130 
 3169      5F455850 
 3169      5F5F2033 
 3170              	.LASF415:
 3171 2c23 55494E54 		.ascii	"UINT32_MAX __UINT32_MAX__\000"
 3171      33325F4D 
 3171      4158205F 
 3171      5F55494E 
 3171      5433325F 
 3172              	.LASF464:
 3173 2c3d 73686F72 		.ascii	"short unsigned int\000"
 3173      7420756E 
 3173      7369676E 
 3173      65642069 
 3173      6E7400
 3174              	.LASF401:
 3175 2c50 494E5438 		.ascii	"INT8_MIN (-__INT8_MAX__ - 1)\000"
 3175      5F4D494E 
 3175      20282D5F 
ARM GAS  C:\Users\Daro\AppData\Local\Temp\ccMicR6A.s 			page 87


 3175      5F494E54 
 3175      385F4D41 
 3176              	.LASF296:
 3177 2c6d 5F5F5441 		.ascii	"__TA_IBIT__ 64\000"
 3177      5F494249 
 3177      545F5F20 
 3177      363400
 3178              	.LASF269:
 3179 2c7c 5F5F5151 		.ascii	"__QQ_FBIT__ 7\000"
 3179      5F464249 
 3179      545F5F20 
 3179      3700
 3180              	.LASF425:
 3181 2c8a 494E545F 		.ascii	"INT_FAST8_MIN (-__INT_FAST8_MAX__ - 1)\000"
 3181      46415354 
 3181      385F4D49 
 3181      4E20282D 
 3181      5F5F494E 
 3182              	.LASF53:
 3183 2cb1 5F5F5549 		.ascii	"__UINT_LEAST16_TYPE__ short unsigned int\000"
 3183      4E545F4C 
 3183      45415354 
 3183      31365F54 
 3183      5950455F 
 3184              	.LASF408:
 3185 2cda 494E5431 		.ascii	"INT16_MAX __INT16_MAX__\000"
 3185      365F4D41 
 3185      58205F5F 
 3185      494E5431 
 3185      365F4D41 
 3186              	.LASF444:
 3187 2cf2 50545244 		.ascii	"PTRDIFF_MIN (-PTRDIFF_MAX - 1)\000"
 3187      4946465F 
 3187      4D494E20 
 3187      282D5054 
 3187      52444946 
 3188              	.LASF127:
 3189 2d11 5F5F464C 		.ascii	"__FLT_MIN_EXP__ (-125)\000"
 3189      545F4D49 
 3189      4E5F4558 
 3189      505F5F20 
 3189      282D3132 
 3190              	.LASF379:
 3191 2d28 5F5F5F69 		.ascii	"___int_least32_t_defined 1\000"
 3191      6E745F6C 
 3191      65617374 
 3191      33325F74 
 3191      5F646566 
 3192              	.LASF186:
 3193 2d43 5F5F4445 		.ascii	"__DEC128_MAX__ 9.999999999999999999999999999999999E"
 3193      43313238 
 3193      5F4D4158 
 3193      5F5F2039 
 3193      2E393939 
 3194 2d76 36313434 		.ascii	"6144DL\000"
 3194      444C00
 3195              	.LASF410:
ARM GAS  C:\Users\Daro\AppData\Local\Temp\ccMicR6A.s 			page 88


 3196 2d7d 494E545F 		.ascii	"INT_LEAST16_MIN (-__INT_LEAST16_MAX__ - 1)\000"
 3196      4C454153 
 3196      5431365F 
 3196      4D494E20 
 3196      282D5F5F 
 3197              	.LASF160:
 3198 2da8 5F5F4445 		.ascii	"__DECIMAL_DIG__ 17\000"
 3198      43494D41 
 3198      4C5F4449 
 3198      475F5F20 
 3198      313700
 3199              	.LASF99:
 3200 2dbb 5F5F494E 		.ascii	"__INT32_C(c) c ## L\000"
 3200      5433325F 
 3200      43286329 
 3200      20632023 
 3200      23204C00 
 3201              	.LASF407:
 3202 2dcf 494E5431 		.ascii	"INT16_MIN (-__INT16_MAX__ - 1)\000"
 3202      365F4D49 
 3202      4E20282D 
 3202      5F5F494E 
 3202      5431365F 
 3203              	.LASF399:
 3204 2dee 494E5450 		.ascii	"INTPTR_MAX __INTPTR_MAX__\000"
 3204      54525F4D 
 3204      4158205F 
 3204      5F494E54 
 3204      5054525F 
 3205              	.LASF309:
 3206 2e08 5F5F5354 		.ascii	"__STRICT_ANSI__ 1\000"
 3206      52494354 
 3206      5F414E53 
 3206      495F5F20 
 3206      3100
 3207              	.LASF32:
 3208 2e1a 5F5F5054 		.ascii	"__PTRDIFF_TYPE__ int\000"
 3208      52444946 
 3208      465F5459 
 3208      50455F5F 
 3208      20696E74 
 3209              	.LASF151:
 3210 2e2f 5F5F4442 		.ascii	"__DBL_HAS_DENORM__ 1\000"
 3210      4C5F4841 
 3210      535F4445 
 3210      4E4F524D 
 3210      5F5F2031 
 3211              	.LASF421:
 3212 2e44 55494E54 		.ascii	"UINT64_MAX __UINT64_MAX__\000"
 3212      36345F4D 
 3212      4158205F 
 3212      5F55494E 
 3212      5436345F 
 3213              	.LASF304:
 3214 2e5e 5F5F5554 		.ascii	"__UTA_IBIT__ 64\000"
 3214      415F4942 
 3214      49545F5F 
ARM GAS  C:\Users\Daro\AppData\Local\Temp\ccMicR6A.s 			page 89


 3214      20363400 
 3215              	.LASF332:
 3216 2e6e 5F5F4152 		.ascii	"__ARM_FEATURE_SAT 1\000"
 3216      4D5F4645 
 3216      41545552 
 3216      455F5341 
 3216      54203100 
 3217              	.LASF212:
 3218 2e82 5F5F4C46 		.ascii	"__LFRACT_MAX__ 0X7FFFFFFFP-31LR\000"
 3218      52414354 
 3218      5F4D4158 
 3218      5F5F2030 
 3218      58374646 
 3219              	.LASF11:
 3220 2ea2 5F5F4154 		.ascii	"__ATOMIC_ACQ_REL 4\000"
 3220      4F4D4943 
 3220      5F414351 
 3220      5F52454C 
 3220      203400
 3221              	.LASF301:
 3222 2eb5 5F5F5544 		.ascii	"__UDA_FBIT__ 32\000"
 3222      415F4642 
 3222      49545F5F 
 3222      20333200 
 3223              	.LASF354:
 3224 2ec5 5F5F4152 		.ascii	"__ARM_ARCH_7EM__ 1\000"
 3224      4D5F4152 
 3224      43485F37 
 3224      454D5F5F 
 3224      203100
 3225              	.LASF259:
 3226 2ed8 5F5F4C4C 		.ascii	"__LLACCUM_FBIT__ 31\000"
 3226      41434355 
 3226      4D5F4642 
 3226      49545F5F 
 3226      20333100 
 3227              	.LASF178:
 3228 2eec 5F5F4445 		.ascii	"__DEC64_MIN__ 1E-383DD\000"
 3228      4336345F 
 3228      4D494E5F 
 3228      5F203145 
 3228      2D333833 
 3229              	.LASF387:
 3230 2f03 5F5F696E 		.ascii	"__int_least8_t_defined 1\000"
 3230      745F6C65 
 3230      61737438 
 3230      5F745F64 
 3230      6566696E 
 3231              	.LASF71:
 3232 2f1c 5F5F494E 		.ascii	"__INT_MAX__ 2147483647\000"
 3232      545F4D41 
 3232      585F5F20 
 3232      32313437 
 3232      34383336 
 3233              	.LASF39:
 3234 2f33 5F5F5349 		.ascii	"__SIG_ATOMIC_TYPE__ int\000"
 3234      475F4154 
ARM GAS  C:\Users\Daro\AppData\Local\Temp\ccMicR6A.s 			page 90


 3234      4F4D4943 
 3234      5F545950 
 3234      455F5F20 
 3235              	.LASF331:
 3236 2f4b 5F5F4152 		.ascii	"__ARM_FEATURE_QBIT 1\000"
 3236      4D5F4645 
 3236      41545552 
 3236      455F5142 
 3236      49542031 
 3237              	.LASF417:
 3238 2f60 494E545F 		.ascii	"INT_LEAST32_MAX __INT_LEAST32_MAX__\000"
 3238      4C454153 
 3238      5433325F 
 3238      4D415820 
 3238      5F5F494E 
 3239              	.LASF351:
 3240 2f84 5F5F4152 		.ascii	"__ARM_FEATURE_FMA 1\000"
 3240      4D5F4645 
 3240      41545552 
 3240      455F464D 
 3240      41203100 
 3241              	.LASF228:
 3242 2f98 5F5F554C 		.ascii	"__ULLFRACT_EPSILON__ 0x1P-64ULLR\000"
 3242      4C465241 
 3242      43545F45 
 3242      5053494C 
 3242      4F4E5F5F 
 3243              	.LASF165:
 3244 2fb9 5F5F4C44 		.ascii	"__LDBL_HAS_DENORM__ 1\000"
 3244      424C5F48 
 3244      41535F44 
 3244      454E4F52 
 3244      4D5F5F20 
 3245              	.LASF447:
 3246 2fcf 57494E54 		.ascii	"WINT_MAX __WINT_MAX__\000"
 3246      5F4D4158 
 3246      205F5F57 
 3246      494E545F 
 3246      4D41585F 
 3247              	.LASF268:
 3248 2fe5 5F5F554C 		.ascii	"__ULLACCUM_EPSILON__ 0x1P-32ULLK\000"
 3248      4C414343 
 3248      554D5F45 
 3248      5053494C 
 3248      4F4E5F5F 
 3249              	.LASF175:
 3250 3006 5F5F4445 		.ascii	"__DEC64_MANT_DIG__ 16\000"
 3250      4336345F 
 3250      4D414E54 
 3250      5F444947 
 3250      5F5F2031 
 3251              	.LASF120:
 3252 301c 5F5F4743 		.ascii	"__GCC_IEC_559 0\000"
 3252      435F4945 
 3252      435F3535 
 3252      39203000 
 3253              	.LASF244:
ARM GAS  C:\Users\Daro\AppData\Local\Temp\ccMicR6A.s 			page 91


 3254 302c 5F5F5541 		.ascii	"__UACCUM_FBIT__ 16\000"
 3254      4343554D 
 3254      5F464249 
 3254      545F5F20 
 3254      313600
 3255              		.ident	"GCC: (GNU Tools for ARM Embedded Processors / bleeding-edge-toolchain-141220) 4.9.3 201411
ARM GAS  C:\Users\Daro\AppData\Local\Temp\ccMicR6A.s 			page 92


DEFINED SYMBOLS
                            *ABS*:00000000 queue.c
C:\Users\Daro\AppData\Local\Temp\ccMicR6A.s:51     .text.queueInit:00000000 $t
C:\Users\Daro\AppData\Local\Temp\ccMicR6A.s:56     .text.queueInit:00000000 queueInit
C:\Users\Daro\AppData\Local\Temp\ccMicR6A.s:92     .text.queueIsEmpty:00000000 $t
C:\Users\Daro\AppData\Local\Temp\ccMicR6A.s:97     .text.queueIsEmpty:00000000 queueIsEmpty
C:\Users\Daro\AppData\Local\Temp\ccMicR6A.s:137    .text.queueIsFull:00000000 $t
C:\Users\Daro\AppData\Local\Temp\ccMicR6A.s:142    .text.queueIsFull:00000000 queueIsFull
C:\Users\Daro\AppData\Local\Temp\ccMicR6A.s:183    .text.queueAdd:00000000 $t
C:\Users\Daro\AppData\Local\Temp\ccMicR6A.s:188    .text.queueAdd:00000000 queueAdd
C:\Users\Daro\AppData\Local\Temp\ccMicR6A.s:243    .text.queueDelete:00000000 $t
C:\Users\Daro\AppData\Local\Temp\ccMicR6A.s:248    .text.queueDelete:00000000 queueDelete
                     .debug_frame:00000010 $d
                           .group:00000000 wm4.0.39a8a4e28e2dee4d4dd6532f731b2ca1
                           .group:00000000 wm4.features.h.22.bee0aee4a3878f51861c775df98fa3ea
                           .group:00000000 wm4._default_types.h.15.933e8edd27a65e0b69af4a865eb623d2
                           .group:00000000 wm4._intsup.h.10.ca9f32a61b410c270a48d1161ca2c217
                           .group:00000000 wm4.stdint.h.22.f4a337c398d8b6d821a97202448bc0d0

NO UNDEFINED SYMBOLS
