Archive member included to satisfy reference by file (symbol)

c:/dev/arm/gcc-arm-none-eabi-4_9-141220/bin/../lib/gcc/arm-none-eabi/4.9.3/armv7e-m/fpu\libgcc.a(_arm_addsubdf3.o)
                              bin/ms5611.o (__aeabi_i2d)
c:/dev/arm/gcc-arm-none-eabi-4_9-141220/bin/../lib/gcc/arm-none-eabi/4.9.3/armv7e-m/fpu\libgcc.a(_arm_muldivdf3.o)
                              bin/ms5611.o (__aeabi_ddiv)

Discarded input sections

 .data          0x00000000        0x0 bin/startup.o
 .bss           0x00000000        0x0 bin/startup.o
 .group         0x00000000        0x8 bin/config.o
 .group         0x00000000        0x8 bin/config.o
 .group         0x00000000        0x8 bin/config.o
 .group         0x00000000        0x8 bin/config.o
 .group         0x00000000        0x8 bin/config.o
 .group         0x00000000        0x8 bin/config.o
 .group         0x00000000        0x8 bin/config.o
 .group         0x00000000        0x8 bin/config.o
 .group         0x00000000        0x8 bin/config.o
 .group         0x00000000        0x8 bin/config.o
 .group         0x00000000        0x8 bin/config.o
 .group         0x00000000        0x8 bin/config.o
 .group         0x00000000        0x8 bin/config.o
 .group         0x00000000        0x8 bin/config.o
 .text          0x00000000        0x0 bin/config.o
 .data          0x00000000        0x0 bin/config.o
 .bss           0x00000000        0x0 bin/config.o
 .group         0x00000000        0x8 bin/delay.o
 .group         0x00000000        0x8 bin/delay.o
 .group         0x00000000        0x8 bin/delay.o
 .group         0x00000000        0x8 bin/delay.o
 .group         0x00000000        0x8 bin/delay.o
 .group         0x00000000        0x8 bin/delay.o
 .group         0x00000000        0x8 bin/delay.o
 .group         0x00000000        0x8 bin/delay.o
 .group         0x00000000        0x8 bin/delay.o
 .group         0x00000000        0x8 bin/delay.o
 .group         0x00000000        0x8 bin/delay.o
 .text          0x00000000        0x0 bin/delay.o
 .data          0x00000000        0x0 bin/delay.o
 .bss           0x00000000        0x0 bin/delay.o
 .text.delay_us
                0x00000000       0x28 bin/delay.o
 .text.delay_ms
                0x00000000       0x2c bin/delay.o
 .debug_macro   0x00000000      0x88c bin/delay.o
 .debug_macro   0x00000000       0x5d bin/delay.o
 .debug_macro   0x00000000       0x35 bin/delay.o
 .debug_macro   0x00000000       0x22 bin/delay.o
 .debug_macro   0x00000000       0x44 bin/delay.o
 .debug_macro   0x00000000       0x1c bin/delay.o
 .debug_macro   0x00000000      0x1f7 bin/delay.o
 .debug_macro   0x00000000       0x18 bin/delay.o
 .debug_macro   0x00000000       0x42 bin/delay.o
 .debug_macro   0x00000000      0x8cb bin/delay.o
 .debug_macro   0x00000000     0x8088 bin/delay.o
 .group         0x00000000        0x8 bin/gpio.o
 .group         0x00000000        0x8 bin/gpio.o
 .group         0x00000000        0x8 bin/gpio.o
 .group         0x00000000        0x8 bin/gpio.o
 .group         0x00000000        0x8 bin/gpio.o
 .group         0x00000000        0x8 bin/gpio.o
 .group         0x00000000        0x8 bin/gpio.o
 .group         0x00000000        0x8 bin/gpio.o
 .group         0x00000000        0x8 bin/gpio.o
 .group         0x00000000        0x8 bin/gpio.o
 .group         0x00000000        0x8 bin/gpio.o
 .group         0x00000000        0x8 bin/gpio.o
 .text          0x00000000        0x0 bin/gpio.o
 .data          0x00000000        0x0 bin/gpio.o
 .bss           0x00000000        0x0 bin/gpio.o
 .debug_macro   0x00000000      0x88c bin/gpio.o
 .debug_macro   0x00000000       0x22 bin/gpio.o
 .debug_macro   0x00000000       0x44 bin/gpio.o
 .debug_macro   0x00000000       0x1c bin/gpio.o
 .debug_macro   0x00000000      0x1f7 bin/gpio.o
 .debug_macro   0x00000000       0x5d bin/gpio.o
 .debug_macro   0x00000000       0x35 bin/gpio.o
 .debug_macro   0x00000000       0x18 bin/gpio.o
 .debug_macro   0x00000000       0x42 bin/gpio.o
 .debug_macro   0x00000000      0x8cb bin/gpio.o
 .debug_macro   0x00000000     0x8088 bin/gpio.o
 .group         0x00000000        0x8 bin/hmc5883l.o
 .group         0x00000000        0x8 bin/hmc5883l.o
 .group         0x00000000        0x8 bin/hmc5883l.o
 .group         0x00000000        0x8 bin/hmc5883l.o
 .group         0x00000000        0x8 bin/hmc5883l.o
 .group         0x00000000        0x8 bin/hmc5883l.o
 .group         0x00000000        0x8 bin/hmc5883l.o
 .group         0x00000000        0x8 bin/hmc5883l.o
 .group         0x00000000        0x8 bin/hmc5883l.o
 .group         0x00000000        0x8 bin/hmc5883l.o
 .group         0x00000000        0x8 bin/hmc5883l.o
 .group         0x00000000        0x8 bin/hmc5883l.o
 .group         0x00000000        0x8 bin/hmc5883l.o
 .group         0x00000000        0x8 bin/hmc5883l.o
 .text          0x00000000        0x0 bin/hmc5883l.o
 .data          0x00000000        0x0 bin/hmc5883l.o
 .bss           0x00000000        0x0 bin/hmc5883l.o
 .debug_macro   0x00000000      0x88c bin/hmc5883l.o
 .debug_macro   0x00000000       0x5d bin/hmc5883l.o
 .debug_macro   0x00000000       0x35 bin/hmc5883l.o
 .debug_macro   0x00000000       0x22 bin/hmc5883l.o
 .debug_macro   0x00000000       0x44 bin/hmc5883l.o
 .debug_macro   0x00000000       0x1c bin/hmc5883l.o
 .debug_macro   0x00000000      0x1f7 bin/hmc5883l.o
 .debug_macro   0x00000000       0x18 bin/hmc5883l.o
 .debug_macro   0x00000000       0x42 bin/hmc5883l.o
 .debug_macro   0x00000000      0x8cb bin/hmc5883l.o
 .debug_macro   0x00000000     0x8088 bin/hmc5883l.o
 .debug_macro   0x00000000      0xbea bin/hmc5883l.o
 .group         0x00000000        0x8 bin/i2c.o
 .group         0x00000000        0x8 bin/i2c.o
 .group         0x00000000        0x8 bin/i2c.o
 .group         0x00000000        0x8 bin/i2c.o
 .group         0x00000000        0x8 bin/i2c.o
 .group         0x00000000        0x8 bin/i2c.o
 .group         0x00000000        0x8 bin/i2c.o
 .group         0x00000000        0x8 bin/i2c.o
 .group         0x00000000        0x8 bin/i2c.o
 .group         0x00000000        0x8 bin/i2c.o
 .group         0x00000000        0x8 bin/i2c.o
 .group         0x00000000        0x8 bin/i2c.o
 .text          0x00000000        0x0 bin/i2c.o
 .data          0x00000000        0x0 bin/i2c.o
 .bss           0x00000000        0x0 bin/i2c.o
 .debug_macro   0x00000000      0x88c bin/i2c.o
 .debug_macro   0x00000000       0x5d bin/i2c.o
 .debug_macro   0x00000000       0x35 bin/i2c.o
 .debug_macro   0x00000000       0x22 bin/i2c.o
 .debug_macro   0x00000000       0x44 bin/i2c.o
 .debug_macro   0x00000000       0x1c bin/i2c.o
 .debug_macro   0x00000000      0x1f7 bin/i2c.o
 .debug_macro   0x00000000       0x18 bin/i2c.o
 .debug_macro   0x00000000       0x42 bin/i2c.o
 .debug_macro   0x00000000      0x8cb bin/i2c.o
 .debug_macro   0x00000000     0x8088 bin/i2c.o
 .debug_macro   0x00000000      0xbea bin/i2c.o
 .group         0x00000000        0x8 bin/main.o
 .group         0x00000000        0x8 bin/main.o
 .group         0x00000000        0x8 bin/main.o
 .group         0x00000000        0x8 bin/main.o
 .group         0x00000000        0x8 bin/main.o
 .group         0x00000000        0x8 bin/main.o
 .group         0x00000000        0x8 bin/main.o
 .group         0x00000000        0x8 bin/main.o
 .group         0x00000000        0x8 bin/main.o
 .group         0x00000000        0x8 bin/main.o
 .group         0x00000000        0x8 bin/main.o
 .group         0x00000000        0x8 bin/main.o
 .group         0x00000000        0x8 bin/main.o
 .group         0x00000000        0x8 bin/main.o
 .group         0x00000000        0x8 bin/main.o
 .text          0x00000000        0x0 bin/main.o
 .data          0x00000000        0x0 bin/main.o
 .bss           0x00000000        0x0 bin/main.o
 .bss.delay_counter
                0x00000000        0x4 bin/main.o
 .text.itoa     0x00000000       0xd8 bin/main.o
 .debug_macro   0x00000000      0x88c bin/main.o
 .debug_macro   0x00000000       0x22 bin/main.o
 .debug_macro   0x00000000       0x44 bin/main.o
 .debug_macro   0x00000000       0x1c bin/main.o
 .debug_macro   0x00000000      0x1f7 bin/main.o
 .debug_macro   0x00000000       0x5d bin/main.o
 .debug_macro   0x00000000       0x35 bin/main.o
 .debug_macro   0x00000000       0x18 bin/main.o
 .debug_macro   0x00000000       0x42 bin/main.o
 .debug_macro   0x00000000      0x8cb bin/main.o
 .debug_macro   0x00000000     0x8088 bin/main.o
 .debug_macro   0x00000000      0xbea bin/main.o
 .debug_macro   0x00000000       0x5e bin/main.o
 .group         0x00000000        0x8 bin/ms5611.o
 .group         0x00000000        0x8 bin/ms5611.o
 .group         0x00000000        0x8 bin/ms5611.o
 .group         0x00000000        0x8 bin/ms5611.o
 .group         0x00000000        0x8 bin/ms5611.o
 .group         0x00000000        0x8 bin/ms5611.o
 .group         0x00000000        0x8 bin/ms5611.o
 .group         0x00000000        0x8 bin/ms5611.o
 .group         0x00000000        0x8 bin/ms5611.o
 .group         0x00000000        0x8 bin/ms5611.o
 .group         0x00000000        0x8 bin/ms5611.o
 .group         0x00000000        0x8 bin/ms5611.o
 .group         0x00000000        0x8 bin/ms5611.o
 .group         0x00000000        0x8 bin/ms5611.o
 .group         0x00000000        0x8 bin/ms5611.o
 .group         0x00000000        0x8 bin/ms5611.o
 .group         0x00000000        0x8 bin/ms5611.o
 .group         0x00000000        0x8 bin/ms5611.o
 .group         0x00000000        0x8 bin/ms5611.o
 .group         0x00000000        0x8 bin/ms5611.o
 .group         0x00000000        0x8 bin/ms5611.o
 .group         0x00000000        0x8 bin/ms5611.o
 .group         0x00000000        0x8 bin/ms5611.o
 .group         0x00000000        0x8 bin/ms5611.o
 .group         0x00000000        0x8 bin/ms5611.o
 .group         0x00000000        0x8 bin/ms5611.o
 .group         0x00000000        0x8 bin/ms5611.o
 .group         0x00000000        0x8 bin/ms5611.o
 .text          0x00000000        0x0 bin/ms5611.o
 .data          0x00000000        0x0 bin/ms5611.o
 .bss           0x00000000        0x0 bin/ms5611.o
 .bss.osr       0x00000000        0x1 bin/ms5611.o
 .bss.C         0x00000000        0xc bin/ms5611.o
 .text.getConversionTime
                0x00000000       0x20 bin/ms5611.o
 .text.MS5611_setResolution
                0x00000000       0x20 bin/ms5611.o
 .text.MS5611_getResolution
                0x00000000       0x18 bin/ms5611.o
 .text.MS5611_writeRegister
                0x00000000       0x1c bin/ms5611.o
 .text.MS5611_readRegister
                0x00000000       0x30 bin/ms5611.o
 .text.MS5611_readAdc
                0x00000000       0x30 bin/ms5611.o
 .text.MS5611_readRawTemperature
                0x00000000       0x30 bin/ms5611.o
 .text.MS5611_readRawPressure
                0x00000000       0x30 bin/ms5611.o
 .text.MS5611_readProm
                0x00000000       0x3c bin/ms5611.o
 .text.MS5611_readCalibrationData
                0x00000000       0x3c bin/ms5611.o
 .text.MS5611_readTemperature
                0x00000000       0xcc bin/ms5611.o
 .text.MS5611_readPressure
                0x00000000      0x2e4 bin/ms5611.o
 .data.conversion_times.7991
                0x00000000        0x8 bin/ms5611.o
 .debug_macro   0x00000000      0x88c bin/ms5611.o
 .debug_macro   0x00000000       0x22 bin/ms5611.o
 .debug_macro   0x00000000       0x44 bin/ms5611.o
 .debug_macro   0x00000000       0x1c bin/ms5611.o
 .debug_macro   0x00000000      0x1f7 bin/ms5611.o
 .debug_macro   0x00000000       0x22 bin/ms5611.o
 .debug_macro   0x00000000       0x35 bin/ms5611.o
 .debug_macro   0x00000000       0x18 bin/ms5611.o
 .debug_macro   0x00000000       0x42 bin/ms5611.o
 .debug_macro   0x00000000       0x5d bin/ms5611.o
 .debug_macro   0x00000000      0x8cb bin/ms5611.o
 .debug_macro   0x00000000     0x8088 bin/ms5611.o
 .debug_macro   0x00000000      0xbea bin/ms5611.o
 .debug_macro   0x00000000       0x2e bin/ms5611.o
 .group         0x00000000        0x8 bin/onewire.o
 .group         0x00000000        0x8 bin/onewire.o
 .group         0x00000000        0x8 bin/onewire.o
 .group         0x00000000        0x8 bin/onewire.o
 .group         0x00000000        0x8 bin/onewire.o
 .group         0x00000000        0x8 bin/onewire.o
 .group         0x00000000        0x8 bin/onewire.o
 .group         0x00000000        0x8 bin/onewire.o
 .group         0x00000000        0x8 bin/onewire.o
 .group         0x00000000        0x8 bin/onewire.o
 .group         0x00000000        0x8 bin/onewire.o
 .group         0x00000000        0x8 bin/onewire.o
 .text          0x00000000        0x0 bin/onewire.o
 .data          0x00000000        0x0 bin/onewire.o
 .bss           0x00000000        0x0 bin/onewire.o
 .bss.delay_counter
                0x00000000        0x4 bin/onewire.o
 .text.OW_Out   0x00000000       0x24 bin/onewire.o
 .text.OW_In    0x00000000       0x20 bin/onewire.o
 .text.OW_Set   0x00000000       0x2c bin/onewire.o
 .text.OW_Clear
                0x00000000       0x2c bin/onewire.o
 .text.OW_IsSet
                0x00000000       0x28 bin/onewire.o
 .text.OW_Delay
                0x00000000       0x18 bin/onewire.o
 .text.OW_Init  0x00000000       0x74 bin/onewire.o
 .text.OW_Write0
                0x00000000       0x2c bin/onewire.o
 .text.OW_Write1
                0x00000000       0x2c bin/onewire.o
 .text.OW_WriteByte
                0x00000000       0x48 bin/onewire.o
 .text.OW_ReadByte
                0x00000000       0x74 bin/onewire.o
 .debug_macro   0x00000000      0x88c bin/onewire.o
 .debug_macro   0x00000000       0x5d bin/onewire.o
 .debug_macro   0x00000000       0x35 bin/onewire.o
 .debug_macro   0x00000000       0x22 bin/onewire.o
 .debug_macro   0x00000000       0x44 bin/onewire.o
 .debug_macro   0x00000000       0x1c bin/onewire.o
 .debug_macro   0x00000000      0x1f7 bin/onewire.o
 .debug_macro   0x00000000       0x18 bin/onewire.o
 .debug_macro   0x00000000       0x42 bin/onewire.o
 .debug_macro   0x00000000      0x8cb bin/onewire.o
 .debug_macro   0x00000000     0x8088 bin/onewire.o
 .debug_macro   0x00000000      0xbea bin/onewire.o
 .group         0x00000000        0x8 bin/queue.o
 .group         0x00000000        0x8 bin/queue.o
 .group         0x00000000        0x8 bin/queue.o
 .group         0x00000000        0x8 bin/queue.o
 .group         0x00000000        0x8 bin/queue.o
 .text          0x00000000        0x0 bin/queue.o
 .data          0x00000000        0x0 bin/queue.o
 .bss           0x00000000        0x0 bin/queue.o
 .text.queueInit
                0x00000000       0x20 bin/queue.o
 .text.queueIsEmpty
                0x00000000       0x2c bin/queue.o
 .text.queueIsFull
                0x00000000       0x30 bin/queue.o
 .text.queueAdd
                0x00000000       0x44 bin/queue.o
 .text.queueDelete
                0x00000000       0x3c bin/queue.o
 .debug_macro   0x00000000      0x88c bin/queue.o
 .debug_macro   0x00000000       0x22 bin/queue.o
 .debug_macro   0x00000000       0x44 bin/queue.o
 .debug_macro   0x00000000       0x1c bin/queue.o
 .debug_macro   0x00000000      0x1f7 bin/queue.o
 .group         0x00000000        0x8 bin/serial.o
 .group         0x00000000        0x8 bin/serial.o
 .group         0x00000000        0x8 bin/serial.o
 .group         0x00000000        0x8 bin/serial.o
 .group         0x00000000        0x8 bin/serial.o
 .group         0x00000000        0x8 bin/serial.o
 .group         0x00000000        0x8 bin/serial.o
 .group         0x00000000        0x8 bin/serial.o
 .group         0x00000000        0x8 bin/serial.o
 .group         0x00000000        0x8 bin/serial.o
 .group         0x00000000        0x8 bin/serial.o
 .group         0x00000000        0x8 bin/serial.o
 .group         0x00000000        0x8 bin/serial.o
 .text          0x00000000        0x0 bin/serial.o
 .data          0x00000000        0x0 bin/serial.o
 .bss           0x00000000        0x0 bin/serial.o
 .bss.delay_counter
                0x00000000        0x4 bin/serial.o
 .text.Serial_SendBuffer
                0x00000000       0x50 bin/serial.o
 .text.Serial_Getc
                0x00000000       0x58 bin/serial.o
 .debug_macro   0x00000000      0x88c bin/serial.o
 .debug_macro   0x00000000       0x22 bin/serial.o
 .debug_macro   0x00000000       0x44 bin/serial.o
 .debug_macro   0x00000000       0x1c bin/serial.o
 .debug_macro   0x00000000      0x1f7 bin/serial.o
 .debug_macro   0x00000000       0x5d bin/serial.o
 .debug_macro   0x00000000       0x35 bin/serial.o
 .debug_macro   0x00000000       0x18 bin/serial.o
 .debug_macro   0x00000000       0x42 bin/serial.o
 .debug_macro   0x00000000      0x8cb bin/serial.o
 .debug_macro   0x00000000     0x8088 bin/serial.o
 .debug_macro   0x00000000       0x16 bin/serial.o
 .debug_macro   0x00000000      0xbea bin/serial.o
 .group         0x00000000        0x8 bin/vectors.o
 .text          0x00000000        0x0 bin/vectors.o
 .data          0x00000000        0x0 bin/vectors.o
 .bss           0x00000000        0x0 bin/vectors.o
 .debug_macro   0x00000000      0x88c bin/vectors.o
 .text          0x00000000      0x370 c:/dev/arm/gcc-arm-none-eabi-4_9-141220/bin/../lib/gcc/arm-none-eabi/4.9.3/armv7e-m/fpu\libgcc.a(_arm_addsubdf3.o)
 .data          0x00000000        0x0 c:/dev/arm/gcc-arm-none-eabi-4_9-141220/bin/../lib/gcc/arm-none-eabi/4.9.3/armv7e-m/fpu\libgcc.a(_arm_addsubdf3.o)
 .bss           0x00000000        0x0 c:/dev/arm/gcc-arm-none-eabi-4_9-141220/bin/../lib/gcc/arm-none-eabi/4.9.3/armv7e-m/fpu\libgcc.a(_arm_addsubdf3.o)
 .text          0x00000000      0x424 c:/dev/arm/gcc-arm-none-eabi-4_9-141220/bin/../lib/gcc/arm-none-eabi/4.9.3/armv7e-m/fpu\libgcc.a(_arm_muldivdf3.o)
 .data          0x00000000        0x0 c:/dev/arm/gcc-arm-none-eabi-4_9-141220/bin/../lib/gcc/arm-none-eabi/4.9.3/armv7e-m/fpu\libgcc.a(_arm_muldivdf3.o)
 .bss           0x00000000        0x0 c:/dev/arm/gcc-arm-none-eabi-4_9-141220/bin/../lib/gcc/arm-none-eabi/4.9.3/armv7e-m/fpu\libgcc.a(_arm_muldivdf3.o)

Memory Configuration

Name             Origin             Length             Attributes
rom              0x08000000         0x00100000         xr
ram              0x20000000         0x0001c000         xrw
aux_ram          0x2001c000         0x00004000         xrw
ccm_ram          0x10000000         0x00010000         rw
bkp_ram          0x40024000         0x00001000         xrw
*default*        0x00000000         0xffffffff

Linker script and memory map

LOAD bin/startup.o
LOAD bin/config.o
LOAD bin/delay.o
LOAD bin/gpio.o
LOAD bin/hmc5883l.o
LOAD bin/i2c.o
LOAD bin/main.o
LOAD bin/ms5611.o
LOAD bin/onewire.o
LOAD bin/queue.o
LOAD bin/serial.o
LOAD bin/vectors.o
LOAD c:/dev/arm/gcc-arm-none-eabi-4_9-141220/bin/../lib/gcc/arm-none-eabi/4.9.3/../../../../arm-none-eabi/lib/armv7e-m/fpu\libstdc++.a
LOAD c:/dev/arm/gcc-arm-none-eabi-4_9-141220/bin/../lib/gcc/arm-none-eabi/4.9.3/../../../../arm-none-eabi/lib/armv7e-m/fpu\libm.a
START GROUP
LOAD c:/dev/arm/gcc-arm-none-eabi-4_9-141220/bin/../lib/gcc/arm-none-eabi/4.9.3/armv7e-m/fpu\libgcc.a
LOAD c:/dev/arm/gcc-arm-none-eabi-4_9-141220/bin/../lib/gcc/arm-none-eabi/4.9.3/../../../../arm-none-eabi/lib/armv7e-m/fpu\libg.a
LOAD c:/dev/arm/gcc-arm-none-eabi-4_9-141220/bin/../lib/gcc/arm-none-eabi/4.9.3/../../../../arm-none-eabi/lib/armv7e-m/fpu\libc.a
END GROUP
                0x00000200                __main_stack_size = 0x200
                0x00000400                __process_stack_size = 0x400
                [0x00000200]                PROVIDE (__main_stack_size, __main_stack_size)
                [0x00000400]                PROVIDE (__process_stack_size, __process_stack_size)
                0x08000000                __rom_start = ORIGIN (rom)
                0x00100000                __rom_size = 0x100000
                0x08100000                __rom_end = (__rom_start + __rom_size)
                0x20000000                __ram_start = ORIGIN (ram)
                0x0001c000                __ram_size = 0x1c000
                0x2001c000                __ram_end = (__ram_start + __ram_size)
                0x2001c000                __aux_ram_start = ORIGIN (aux_ram)
                0x00004000                __aux_ram_size = 0x4000
                0x20020000                __aux_ram_end = (__aux_ram_start + __aux_ram_size)
                0x10000000                __ccm_ram_start = ORIGIN (ccm_ram)
                0x00010000                __ccm_ram_size = 0x10000
                0x10010000                __ccm_ram_end = (__ccm_ram_start + __ccm_ram_size)
                0x40024000                __bkp_ram_start = ORIGIN (bkp_ram)
                0x00001000                __bkp_ram_size = 0x1000
                0x40025000                __bkp_ram_end = (__bkp_ram_start + __bkp_ram_size)
                [0x08000000]                PROVIDE (__rom_start, __rom_start)
                [0x00100000]                PROVIDE (__rom_size, __rom_size)
                [0x08100000]                PROVIDE (__rom_end, __rom_end)
                [0x20000000]                PROVIDE (__ram_start, __ram_start)
                [0x0001c000]                PROVIDE (__ram_size, __ram_size)
                [0x2001c000]                PROVIDE (__ram_end, __ram_end)
                [0x2001c000]                PROVIDE (__aux_ram_start, __aux_ram_start)
                [0x00004000]                PROVIDE (__aux_ram_size, __aux_ram_size)
                [0x20020000]                PROVIDE (__aux_ram_end, __aux_ram_end)
                [0x10000000]                PROVIDE (__ccm_ram_start, __ccm_ram_start)
                [0x00010000]                PROVIDE (__ccm_ram_size, __ccm_ram_size)
                [0x10010000]                PROVIDE (__ccm_ram_end, __ccm_ram_end)
                [0x40024000]                PROVIDE (__bkp_ram_start, __bkp_ram_start)
                [0x00001000]                PROVIDE (__bkp_ram_size, __bkp_ram_size)
                [0x40025000]                PROVIDE (__bkp_ram_end, __bkp_ram_end)

.text           0x08000000      0xab0
                0x08000000                . = ALIGN (0x4)
                0x08000000                __text_start = .
                [0x08000000]                PROVIDE (__text_start, __text_start)
                0x08000000                . = ALIGN (0x4)
 *(.vectors)
 .vectors       0x08000000      0x188 bin/vectors.o
                0x08000000                vectors
                0x08000188                . = ALIGN (0x4)
 *(.text .text.* .gnu.linkonce.t.*)
 .text          0x08000188       0x68 bin/startup.o
                0x08000188                Reset_Handler
                0x080001ca                low_level_init_1
                0x080001ca                low_level_init_0
                0x080001ca                __default_low_level_init
 .text.PLL_Start
                0x080001f0      0x148 bin/config.o
                0x080001f0                PLL_Start
 .text.FPU_Enable
                0x08000338       0x20 bin/config.o
                0x08000338                FPU_Enable
 .text.Flash_SetLatency
                0x08000358       0x4c bin/config.o
                0x08000358                Flash_SetLatency
 .text.NVIC_SetPriority
                0x080003a4       0x54 bin/delay.o
 .text.SysTick_Config
                0x080003f8       0x44 bin/delay.o
 .text.Delay_Config
                0x0800043c       0x24 bin/delay.o
                0x0800043c                Delay_Config
 .text.SysTick_Handler
                0x08000460       0x24 bin/delay.o
                0x08000460                SysTick_Handler
 .text.GPIO_InitAll
                0x08000484       0x20 bin/gpio.o
                0x08000484                GPIO_InitAll
 .text.GPIO_ConfigPin
                0x080004a4      0x138 bin/gpio.o
                0x080004a4                GPIO_ConfigPin
 .text.HMC6883L_writeRegister
                0x080005dc       0x30 bin/hmc5883l.o
                0x080005dc                HMC6883L_writeRegister
 .text.HMC6883_init
                0x0800060c       0x30 bin/hmc5883l.o
                0x0800060c                HMC6883_init
 .text.I2C_Init
                0x0800063c       0x80 bin/i2c.o
                0x0800063c                I2C_Init
 .text.I2C_Write
                0x080006bc       0xbc bin/i2c.o
                0x080006bc                I2C_Write
 .text.I2C_Read
                0x08000778       0xbc bin/i2c.o
                0x08000778                I2C_Read
 .text.main     0x08000834       0x3c bin/main.o
                0x08000834                main
 .text.NVIC_EnableIRQ
                0x08000870       0x30 bin/serial.o
 .text.USART3_IRQHandler
                0x080008a0       0xfc bin/serial.o
                0x080008a0                USART3_IRQHandler
 .text.Serial_Init
                0x0800099c       0x74 bin/serial.o
                0x0800099c                Serial_Init
 .text.Serial_Putc
                0x08000a10       0x58 bin/serial.o
                0x08000a10                Serial_Putc
 .text.Serial_Puts
                0x08000a68       0x28 bin/serial.o
                0x08000a68                Serial_Puts
 .text.__Default_Handler
                0x08000a90       0x10 bin/vectors.o
                0x08000a90                RTC_Alarm_IRQHandler
                0x08000a90                HASH_RNG_IRQHandler
                0x08000a90                EXTI2_IRQHandler
                0x08000a90                TIM8_CC_IRQHandler
                0x08000a90                DebugMon_Handler
                0x08000a90                TIM1_CC_IRQHandler
                0x08000a90                DMA2_Stream5_IRQHandler
                0x08000a90                HardFault_Handler
                0x08000a90                DMA1_Stream5_IRQHandler
                0x08000a90                PVD_IRQHandler
                0x08000a90                SDIO_IRQHandler
                0x08000a90                TAMP_STAMP_IRQHandler
                0x08000a90                __Reserved_0x1C_Handler
                0x08000a90                PendSV_Handler
                0x08000a90                NMI_Handler
                0x08000a90                CAN2_RX1_IRQHandler
                0x08000a90                EXTI3_IRQHandler
                0x08000a90                TIM8_TRG_COM_TIM14_IRQHandler
                0x08000a90                TIM1_UP_TIM10_IRQHandler
                0x08000a90                TIM8_UP_TIM13_IRQHandler
                0x08000a90                I2C3_ER_IRQHandler
                0x08000a90                __Reserved_0x20_Handler
                0x08000a90                EXTI0_IRQHandler
                0x08000a90                I2C2_EV_IRQHandler
                0x08000a90                DMA1_Stream2_IRQHandler
                0x08000a90                CAN1_RX0_IRQHandler
                0x08000a90                FPU_IRQHandler
                0x08000a90                OTG_HS_WKUP_IRQHandler
                0x08000a90                UsageFault_Handler
                0x08000a90                CAN2_SCE_IRQHandler
                0x08000a90                DMA2_Stream2_IRQHandler
                0x08000a90                SPI1_IRQHandler
                0x08000a90                TIM6_DAC_IRQHandler
                0x08000a90                TIM1_BRK_TIM9_IRQHandler
                0x08000a90                DCMI_IRQHandler
                0x08000a90                CAN2_RX0_IRQHandler
                0x08000a90                DMA2_Stream3_IRQHandler
                0x08000a90                USART6_IRQHandler
                0x08000a90                CRYP_IRQHandler
                0x08000a90                CAN1_RX1_IRQHandler
                0x08000a90                UART5_IRQHandler
                0x08000a90                DMA2_Stream0_IRQHandler
                0x08000a90                TIM4_IRQHandler
                0x08000a90                __Reserved_0x34_Handler
                0x08000a90                I2C1_EV_IRQHandler
                0x08000a90                DMA1_Stream6_IRQHandler
                0x08000a90                DMA1_Stream1_IRQHandler
                0x08000a90                UART4_IRQHandler
                0x08000a90                TIM3_IRQHandler
                0x08000a90                RCC_IRQHandler
                0x08000a90                TIM8_BRK_TIM12_IRQHandler
                0x08000a90                EXTI15_10_IRQHandler
                0x08000a90                ADC_IRQHandler
                0x08000a90                DMA1_Stream7_IRQHandler
                0x08000a90                TIM7_IRQHandler
                0x08000a90                CAN2_TX_IRQHandler
                0x08000a90                TIM5_IRQHandler
                0x08000a90                DMA2_Stream7_IRQHandler
                0x08000a90                I2C3_EV_IRQHandler
                0x08000a90                __Reserved_0x28_Handler
                0x08000a90                EXTI9_5_IRQHandler
                0x08000a90                RTC_WKUP_IRQHandler
                0x08000a90                ETH_WKUP_IRQHandler
                0x08000a90                SPI2_IRQHandler
                0x08000a90                OTG_HS_EP1_IN_IRQHandler
                0x08000a90                MemManage_Handler
                0x08000a90                DMA1_Stream0_IRQHandler
                0x08000a90                __Reserved_0x24_Handler
                0x08000a90                CAN1_TX_IRQHandler
                0x08000a90                SVC_Handler
                0x08000a90                EXTI4_IRQHandler
                0x08000a90                FSMC_IRQHandler
                0x08000a90                ETH_IRQHandler
                0x08000a90                OTG_HS_EP1_OUT_IRQHandler
                0x08000a90                WWDG_IRQHandler
                0x08000a90                TIM2_IRQHandler
                0x08000a90                OTG_FS_WKUP_IRQHandler
                0x08000a90                TIM1_TRG_COM_TIM11_IRQHandler
                0x08000a90                OTG_HS_IRQHandler
                0x08000a90                EXTI1_IRQHandler
                0x08000a90                USART2_IRQHandler
                0x08000a90                I2C2_ER_IRQHandler
                0x08000a90                DMA2_Stream1_IRQHandler
                0x08000a90                CAN1_SCE_IRQHandler
                0x08000a90                FLASH_IRQHandler
                0x08000a90                DMA2_Stream4_IRQHandler
                0x08000a90                BusFault_Handler
                0x08000a90                USART1_IRQHandler
                0x08000a90                OTG_FS_IRQHandler
                0x08000a90                SPI3_IRQHandler
                0x08000a90                DMA1_Stream4_IRQHandler
                0x08000a90                I2C1_ER_IRQHandler
                0x08000a90                DMA2_Stream6_IRQHandler
                0x08000a90                DMA1_Stream3_IRQHandler
                0x08000aa0                . = ALIGN (0x4)
 *(.glue_7t .glue_7)
 .glue_7        0x08000aa0        0x0 linker stubs
 .glue_7t       0x08000aa0        0x0 linker stubs
                0x08000aa0                . = ALIGN (0x4)
 *(.rodata .rodata.* .gnu.linkonce.r.*)
 .rodata        0x08000aa0       0x10 bin/main.o
                0x08000ab0                . = ALIGN (0x4)
 *(.ARM.extab* .gnu.linkonce.armextab.*)
                0x08000ab0                . = ALIGN (0x4)
 *(.gcc_except_table)
                0x08000ab0                . = ALIGN (0x4)
 *(.eh_frame_hdr)
                0x08000ab0                . = ALIGN (0x4)
 *(.eh_frame)
                0x08000ab0                . = ALIGN (0x4)
 *(.init)
                0x08000ab0                . = ALIGN (0x4)
                0x08000ab0                __preinit_array_start = .
 *(.preinit_array)
                0x08000ab0                . = ALIGN (0x4)
                0x08000ab0                __preinit_array_end = .
                0x08000ab0                __init_array_start = .
 *(SORT(.init_array.*))
                0x08000ab0                . = ALIGN (0x4)
 *(.init_array)
                0x08000ab0                . = ALIGN (0x4)
                0x08000ab0                __init_array_end = .
 *(.fini)
                0x08000ab0                . = ALIGN (0x4)
                0x08000ab0                __fini_array_start = .
 *(.fini_array)
                0x08000ab0                . = ALIGN (0x4)
 *(SORT(.fini_array.*))
                0x08000ab0                . = ALIGN (0x4)
                0x08000ab0                __fini_array_end = .
                0x08000ab0                . = ALIGN (0x4)
                0x08000ab0                __text_end = .
                [0x08000ab0]                PROVIDE (__text_end, __text_end)

.vfp11_veneer   0x08000ab0        0x0
 .vfp11_veneer  0x08000ab0        0x0 linker stubs

.v4_bx          0x08000ab0        0x0
 .v4_bx         0x08000ab0        0x0 linker stubs

.iplt           0x08000ab0        0x0
 .iplt          0x08000ab0        0x0 bin/startup.o

.rel.dyn        0x08000ab0        0x0
 .rel.iplt      0x08000ab0        0x0 bin/startup.o
                0x08000ab0                . = ALIGN (0x4)
                0x08000ab0                __exidx_start = .
                [0x08000ab0]                PROVIDE (__exidx_start, __exidx_start)

.ARM.exidx
 *(.ARM.exidx* .gnu.linkonce.armexidx.*)
                0x08000ab0                . = ALIGN (0x4)
                0x08000ab0                __exidx_end = .
                [0x08000ab0]                PROVIDE (__exidx_end, __exidx_end)

.data           0x20000000        0x0 load address 0x08000ab0
                0x20000000                . = ALIGN (0x4)
                0x08000ab0                __data_init_start = LOADADDR (.data)
                [0x08000ab0]                PROVIDE (__data_init_start, __data_init_start)
                0x20000000                __data_start = .
                [0x20000000]                PROVIDE (__data_start, __data_start)
                0x20000000                . = ALIGN (0x4)
 *(.data .data.* .gnu.linkonce.d.*)
                0x20000000                . = ALIGN (0x4)
                0x20000000                __data_end = .
                [0x20000000]                PROVIDE (__data_end, __data_end)

.igot.plt       0x20000000        0x0 load address 0x08000ab0
 .igot.plt      0x20000000        0x0 bin/startup.o

.bss            0x20000000      0x294
                0x20000000                . = ALIGN (0x4)
                0x20000000                __bss_start = .
                [0x20000000]                PROVIDE (__bss_start, __bss_start)
                0x20000000                . = ALIGN (0x4)
 *(.bss .bss.* .gnu.linkonce.b.*)
 .bss.delay_counter
                0x20000000        0x4 bin/delay.o
 .bss.rxQueueData
                0x20000004      0x200 bin/serial.o
 .bss.rxQueueHead
                0x20000204        0x4 bin/serial.o
                0x20000204                rxQueueHead
 .bss.rxQueueTail
                0x20000208        0x4 bin/serial.o
                0x20000208                rxQueueTail
 .bss.txQueueData
                0x2000020c       0x80 bin/serial.o
 .bss.txQueueHead
                0x2000028c        0x4 bin/serial.o
                0x2000028c                txQueueHead
 .bss.txQueueTail
                0x20000290        0x4 bin/serial.o
                0x20000290                txQueueTail
                0x20000294                . = ALIGN (0x4)
 *(COMMON)
                0x20000294                . = ALIGN (0x4)
                0x20000294                __bss_end = .
                [0x20000294]                PROVIDE (__bss_end, __bss_end)

.stack          0x20000294      0x604
                0x20000298                . = ALIGN (0x8)
 *fill*         0x20000294        0x4 
                0x20000298                __stack_start = .
                [0x20000298]                PROVIDE (__stack_start, __stack_start)
                0x20000298                . = ALIGN (0x8)
                0x20000298                __main_stack_start = .
                [0x20000298]                PROVIDE (__main_stack_start, __main_stack_start)
                0x20000498                . = (. + __main_stack_size)
 *fill*         0x20000298      0x200 
                0x20000498                . = ALIGN (0x8)
                0x20000498                __main_stack_end = .
                [0x20000498]                PROVIDE (__main_stack_end, __main_stack_end)
                0x20000498                . = ALIGN (0x8)
                0x20000498                __process_stack_start = .
                [0x20000498]                PROVIDE (__process_stack_start, __process_stack_start)
                0x20000898                . = (. + __process_stack_size)
 *fill*         0x20000498      0x400 
                0x20000898                . = ALIGN (0x8)
                0x20000898                __process_stack_end = .
                [0x20000898]                PROVIDE (__process_stack_end, __process_stack_end)
                0x20000898                . = ALIGN (0x8)
                0x20000898                __stack_end = .
                [0x20000898]                PROVIDE (__stack_end, __stack_end)
                0x20000898                . = ALIGN (0x4)
                0x20000898                __heap_start = .
                [0x20000898]                PROVIDE (__heap_start, __heap_start)
                0x20000898                . = ALIGN (0x4)
                0x2001c000                __heap_end = __ram_end
                [0x2001c000]                PROVIDE (__heap_end, __heap_end)

.stab
 *(.stab)

.stabstr
 *(.stabstr)

.debug
 *(.debug)

.line
 *(.line)

.debug_srcinfo
 *(.debug_srcinfo)

.debug_sfnames
 *(.debug_sfnames)

.debug_aranges  0x00000000      0x318
 *(.debug_aranges)
 .debug_aranges
                0x00000000       0x20 bin/startup.o
 .debug_aranges
                0x00000020       0x30 bin/config.o
 .debug_aranges
                0x00000050       0x48 bin/delay.o
 .debug_aranges
                0x00000098       0x28 bin/gpio.o
 .debug_aranges
                0x000000c0       0x28 bin/hmc5883l.o
 .debug_aranges
                0x000000e8       0x30 bin/i2c.o
 .debug_aranges
                0x00000118       0x28 bin/main.o
 .debug_aranges
                0x00000140       0x78 bin/ms5611.o
 .debug_aranges
                0x000001b8       0x70 bin/onewire.o
 .debug_aranges
                0x00000228       0x40 bin/queue.o
 .debug_aranges
                0x00000268       0x50 bin/serial.o
 .debug_aranges
                0x000002b8       0x20 bin/vectors.o
 .debug_aranges
                0x000002d8       0x20 c:/dev/arm/gcc-arm-none-eabi-4_9-141220/bin/../lib/gcc/arm-none-eabi/4.9.3/armv7e-m/fpu\libgcc.a(_arm_addsubdf3.o)
 .debug_aranges
                0x000002f8       0x20 c:/dev/arm/gcc-arm-none-eabi-4_9-141220/bin/../lib/gcc/arm-none-eabi/4.9.3/armv7e-m/fpu\libgcc.a(_arm_muldivdf3.o)

.debug_pubnames
 *(.debug_pubnames)

.debug_info     0x00000000     0x2d95
 *(.debug_info .gnu.linkonce.wi.*)
 .debug_info    0x00000000       0x58 bin/startup.o
 .debug_info    0x00000058      0x560 bin/config.o
 .debug_info    0x000005b8      0x71a bin/delay.o
 .debug_info    0x00000cd2      0x3c7 bin/gpio.o
 .debug_info    0x00001099      0x106 bin/hmc5883l.o
 .debug_info    0x0000119f      0x4e4 bin/i2c.o
 .debug_info    0x00001683      0x1a0 bin/main.o
 .debug_info    0x00001823      0x44f bin/ms5611.o
 .debug_info    0x00001c72      0x3c7 bin/onewire.o
 .debug_info    0x00002039      0x1c0 bin/queue.o
 .debug_info    0x000021f9      0x96a bin/serial.o
 .debug_info    0x00002b63       0x88 bin/vectors.o
 .debug_info    0x00002beb       0xd5 c:/dev/arm/gcc-arm-none-eabi-4_9-141220/bin/../lib/gcc/arm-none-eabi/4.9.3/armv7e-m/fpu\libgcc.a(_arm_addsubdf3.o)
 .debug_info    0x00002cc0       0xd5 c:/dev/arm/gcc-arm-none-eabi-4_9-141220/bin/../lib/gcc/arm-none-eabi/4.9.3/armv7e-m/fpu\libgcc.a(_arm_muldivdf3.o)

.debug_abbrev   0x00000000      0xd04
 *(.debug_abbrev)
 .debug_abbrev  0x00000000       0x14 bin/startup.o
 .debug_abbrev  0x00000014      0x11e bin/config.o
 .debug_abbrev  0x00000132      0x1a9 bin/delay.o
 .debug_abbrev  0x000002db      0x113 bin/gpio.o
 .debug_abbrev  0x000003ee       0xa6 bin/hmc5883l.o
 .debug_abbrev  0x00000494       0xf5 bin/i2c.o
 .debug_abbrev  0x00000589       0xf7 bin/main.o
 .debug_abbrev  0x00000680      0x162 bin/ms5611.o
 .debug_abbrev  0x000007e2      0x190 bin/onewire.o
 .debug_abbrev  0x00000972      0x102 bin/queue.o
 .debug_abbrev  0x00000a74      0x1e5 bin/serial.o
 .debug_abbrev  0x00000c59       0x83 bin/vectors.o
 .debug_abbrev  0x00000cdc       0x14 c:/dev/arm/gcc-arm-none-eabi-4_9-141220/bin/../lib/gcc/arm-none-eabi/4.9.3/armv7e-m/fpu\libgcc.a(_arm_addsubdf3.o)
 .debug_abbrev  0x00000cf0       0x14 c:/dev/arm/gcc-arm-none-eabi-4_9-141220/bin/../lib/gcc/arm-none-eabi/4.9.3/armv7e-m/fpu\libgcc.a(_arm_muldivdf3.o)

.debug_line     0x00000000     0x20bb
 *(.debug_line)
 .debug_line    0x00000000       0x70 bin/startup.o
 .debug_line    0x00000070      0x2fa bin/config.o
 .debug_line    0x0000036a      0x2c6 bin/delay.o
 .debug_line    0x00000630      0x26b bin/gpio.o
 .debug_line    0x0000089b      0x27c bin/hmc5883l.o
 .debug_line    0x00000b17      0x2bd bin/i2c.o
 .debug_line    0x00000dd4      0x2dc bin/main.o
 .debug_line    0x000010b0      0x412 bin/ms5611.o
 .debug_line    0x000014c2      0x369 bin/onewire.o
 .debug_line    0x0000182b      0x1f2 bin/queue.o
 .debug_line    0x00001a1d      0x310 bin/serial.o
 .debug_line    0x00001d2d       0x42 bin/vectors.o
 .debug_line    0x00001d6f      0x194 c:/dev/arm/gcc-arm-none-eabi-4_9-141220/bin/../lib/gcc/arm-none-eabi/4.9.3/armv7e-m/fpu\libgcc.a(_arm_addsubdf3.o)
 .debug_line    0x00001f03      0x1b8 c:/dev/arm/gcc-arm-none-eabi-4_9-141220/bin/../lib/gcc/arm-none-eabi/4.9.3/armv7e-m/fpu\libgcc.a(_arm_muldivdf3.o)

.debug_frame    0x00000000      0x8d4
 *(.debug_frame)
 .debug_frame   0x00000000       0x84 bin/config.o
 .debug_frame   0x00000084       0xfc bin/delay.o
 .debug_frame   0x00000180       0x5c bin/gpio.o
 .debug_frame   0x000001dc       0x54 bin/hmc5883l.o
 .debug_frame   0x00000230       0x7c bin/i2c.o
 .debug_frame   0x000002ac       0x54 bin/main.o
 .debug_frame   0x00000300      0x1ec bin/ms5611.o
 .debug_frame   0x000004ec      0x1c8 bin/onewire.o
 .debug_frame   0x000006b4       0xd8 bin/queue.o
 .debug_frame   0x0000078c      0x118 bin/serial.o
 .debug_frame   0x000008a4       0x30 bin/vectors.o

.debug_str      0x00000000    0x67818
 *(.debug_str)
 .debug_str     0x00000000    0x53bee bin/config.o
                              0x53d78 (size before relaxing)
 .debug_str     0x00053bee      0x5d8 bin/delay.o
                              0x341fa (size before relaxing)
 .debug_str     0x000541c6     0xfd3b bin/gpio.o
                              0x439c5 (size before relaxing)
 .debug_str     0x00063f01      0x20a bin/hmc5883l.o
                              0x43902 (size before relaxing)
 .debug_str     0x0006410b       0x70 bin/i2c.o
                              0x438bf (size before relaxing)
 .debug_str     0x0006417b       0xc8 bin/main.o
                              0x439ad (size before relaxing)
 .debug_str     0x00064243     0x337c bin/ms5611.o
                              0x46c3e (size before relaxing)
 .debug_str     0x000675bf       0x98 bin/onewire.o
                              0x43804 (size before relaxing)
 .debug_str     0x00067657       0x6e bin/queue.o
                               0x303f (size before relaxing)
 .debug_str     0x000676c5      0x11a bin/serial.o
                              0x43f0c (size before relaxing)
 .debug_str     0x000677df       0x39 bin/vectors.o
                               0x24ce (size before relaxing)

.debug_loc
 *(.debug_loc)

.debug_macinfo
 *(.debug_macinfo)

.debug_weaknames
 *(.debug_weaknames)

.debug_funcnames
 *(.debug_funcnames)

.debug_typenames
 *(.debug_typenames)

.debug_varnames
 *(.debug_varnames)

.note.gnu.arm.ident
 *(.note.gnu.arm.ident)

.ARM.attributes
                0x00000000       0x31
 *(.ARM.attributes)
 .ARM.attributes
                0x00000000       0x25 bin/startup.o
 .ARM.attributes
                0x00000025       0x35 bin/config.o
 .ARM.attributes
                0x0000005a       0x35 bin/delay.o
 .ARM.attributes
                0x0000008f       0x35 bin/gpio.o
 .ARM.attributes
                0x000000c4       0x35 bin/hmc5883l.o
 .ARM.attributes
                0x000000f9       0x35 bin/i2c.o
 .ARM.attributes
                0x0000012e       0x35 bin/main.o
 .ARM.attributes
                0x00000163       0x35 bin/ms5611.o
 .ARM.attributes
                0x00000198       0x35 bin/onewire.o
 .ARM.attributes
                0x000001cd       0x35 bin/queue.o
 .ARM.attributes
                0x00000202       0x35 bin/serial.o
 .ARM.attributes
                0x00000237       0x35 bin/vectors.o
 .ARM.attributes
                0x0000026c       0x22 c:/dev/arm/gcc-arm-none-eabi-4_9-141220/bin/../lib/gcc/arm-none-eabi/4.9.3/armv7e-m/fpu\libgcc.a(_arm_addsubdf3.o)
 .ARM.attributes
                0x0000028e       0x22 c:/dev/arm/gcc-arm-none-eabi-4_9-141220/bin/../lib/gcc/arm-none-eabi/4.9.3/armv7e-m/fpu\libgcc.a(_arm_muldivdf3.o)

/DISCARD/
 *(.note.GNU-stack)
                0x00000ab0                PROVIDE (__text_size, (__text_end - __text_start))
                0x00000000                PROVIDE (__exidx_size, (__exidx_end - __exidx_start))
                0x00000000                PROVIDE (__data_size, (__data_end - __data_start))
                0x00000294                PROVIDE (__bss_size, (__bss_end - __bss_start))
                0x00000600                PROVIDE (__stack_size, (__stack_end - __stack_start))
                0x0001b768                PROVIDE (__heap_size, (__heap_end - __heap_start))
OUTPUT(bin/stm32f4.elf elf32-littlearm)

.debug_ranges   0x00000000      0x208
 .debug_ranges  0x00000000       0x20 bin/config.o
 .debug_ranges  0x00000020       0x38 bin/delay.o
 .debug_ranges  0x00000058       0x18 bin/gpio.o
 .debug_ranges  0x00000070       0x18 bin/hmc5883l.o
 .debug_ranges  0x00000088       0x20 bin/i2c.o
 .debug_ranges  0x000000a8       0x18 bin/main.o
 .debug_ranges  0x000000c0       0x68 bin/ms5611.o
 .debug_ranges  0x00000128       0x60 bin/onewire.o
 .debug_ranges  0x00000188       0x30 bin/queue.o
 .debug_ranges  0x000001b8       0x40 bin/serial.o
 .debug_ranges  0x000001f8       0x10 bin/vectors.o

.debug_macro    0x00000000     0xef85
 .debug_macro   0x00000000       0xba bin/config.o
 .debug_macro   0x000000ba      0x88c bin/config.o
 .debug_macro   0x00000946       0x5d bin/config.o
 .debug_macro   0x000009a3       0x35 bin/config.o
 .debug_macro   0x000009d8       0x22 bin/config.o
 .debug_macro   0x000009fa       0x44 bin/config.o
 .debug_macro   0x00000a3e       0x1c bin/config.o
 .debug_macro   0x00000a5a      0x1f7 bin/config.o
 .debug_macro   0x00000c51       0x18 bin/config.o
 .debug_macro   0x00000c69       0x42 bin/config.o
 .debug_macro   0x00000cab      0x8cb bin/config.o
 .debug_macro   0x00001576     0x8088 bin/config.o
 .debug_macro   0x000095fe       0x10 bin/config.o
 .debug_macro   0x0000960e       0x34 bin/config.o
 .debug_macro   0x00009642     0x3cbd bin/config.o
 .debug_macro   0x0000d2ff       0x9d bin/delay.o
 .debug_macro   0x0000d39c       0xb9 bin/gpio.o
 .debug_macro   0x0000d455      0xbea bin/gpio.o
 .debug_macro   0x0000e03f       0xb8 bin/hmc5883l.o
 .debug_macro   0x0000e0f7       0x22 bin/hmc5883l.o
 .debug_macro   0x0000e119       0x5e bin/hmc5883l.o
 .debug_macro   0x0000e177       0x9c bin/i2c.o
 .debug_macro   0x0000e213       0xd4 bin/main.o
 .debug_macro   0x0000e2e7       0x16 bin/main.o
 .debug_macro   0x0000e2fd       0x2e bin/main.o
 .debug_macro   0x0000e32b      0x193 bin/ms5611.o
 .debug_macro   0x0000e4be       0x12 bin/ms5611.o
 .debug_macro   0x0000e4d0       0x46 bin/ms5611.o
 .debug_macro   0x0000e516       0x3c bin/ms5611.o
 .debug_macro   0x0000e552       0x9c bin/ms5611.o
 .debug_macro   0x0000e5ee      0x166 bin/ms5611.o
 .debug_macro   0x0000e754       0x52 bin/ms5611.o
 .debug_macro   0x0000e7a6       0x16 bin/ms5611.o
 .debug_macro   0x0000e7bc       0x43 bin/ms5611.o
 .debug_macro   0x0000e7ff      0x19c bin/ms5611.o
 .debug_macro   0x0000e99b      0x29d bin/ms5611.o
 .debug_macro   0x0000ec38       0x10 bin/ms5611.o
 .debug_macro   0x0000ec48       0x35 bin/ms5611.o
 .debug_macro   0x0000ec7d       0xde bin/ms5611.o
 .debug_macro   0x0000ed5b       0x4a bin/ms5611.o
 .debug_macro   0x0000eda5       0xb0 bin/onewire.o
 .debug_macro   0x0000ee55       0x5b bin/queue.o
 .debug_macro   0x0000eeb0       0xc4 bin/serial.o
 .debug_macro   0x0000ef74       0x11 bin/vectors.o

.comment        0x00000000       0x6a
 .comment       0x00000000       0x6a bin/config.o
                                 0x6b (size before relaxing)
 .comment       0x0000006a       0x6b bin/delay.o
 .comment       0x0000006a       0x6b bin/gpio.o
 .comment       0x0000006a       0x6b bin/hmc5883l.o
 .comment       0x0000006a       0x6b bin/i2c.o
 .comment       0x0000006a       0x6b bin/main.o
 .comment       0x0000006a       0x6b bin/ms5611.o
 .comment       0x0000006a       0x6b bin/onewire.o
 .comment       0x0000006a       0x6b bin/queue.o
 .comment       0x0000006a       0x6b bin/serial.o
 .comment       0x0000006a       0x6b bin/vectors.o

Cross Reference Table

Symbol                                            File
ADC_IRQHandler                                    bin/vectors.o
BusFault_Handler                                  bin/vectors.o
CAN1_RX0_IRQHandler                               bin/vectors.o
CAN1_RX1_IRQHandler                               bin/vectors.o
CAN1_SCE_IRQHandler                               bin/vectors.o
CAN1_TX_IRQHandler                                bin/vectors.o
CAN2_RX0_IRQHandler                               bin/vectors.o
CAN2_RX1_IRQHandler                               bin/vectors.o
CAN2_SCE_IRQHandler                               bin/vectors.o
CAN2_TX_IRQHandler                                bin/vectors.o
CRYP_IRQHandler                                   bin/vectors.o
DCMI_IRQHandler                                   bin/vectors.o
DMA1_Stream0_IRQHandler                           bin/vectors.o
DMA1_Stream1_IRQHandler                           bin/vectors.o
DMA1_Stream2_IRQHandler                           bin/vectors.o
DMA1_Stream3_IRQHandler                           bin/vectors.o
DMA1_Stream4_IRQHandler                           bin/vectors.o
DMA1_Stream5_IRQHandler                           bin/vectors.o
DMA1_Stream6_IRQHandler                           bin/vectors.o
DMA1_Stream7_IRQHandler                           bin/vectors.o
DMA2_Stream0_IRQHandler                           bin/vectors.o
DMA2_Stream1_IRQHandler                           bin/vectors.o
DMA2_Stream2_IRQHandler                           bin/vectors.o
DMA2_Stream3_IRQHandler                           bin/vectors.o
DMA2_Stream4_IRQHandler                           bin/vectors.o
DMA2_Stream5_IRQHandler                           bin/vectors.o
DMA2_Stream6_IRQHandler                           bin/vectors.o
DMA2_Stream7_IRQHandler                           bin/vectors.o
DebugMon_Handler                                  bin/vectors.o
Delay_Config                                      bin/delay.o
                                                  bin/main.o
ETH_IRQHandler                                    bin/vectors.o
ETH_WKUP_IRQHandler                               bin/vectors.o
EXTI0_IRQHandler                                  bin/vectors.o
EXTI15_10_IRQHandler                              bin/vectors.o
EXTI1_IRQHandler                                  bin/vectors.o
EXTI2_IRQHandler                                  bin/vectors.o
EXTI3_IRQHandler                                  bin/vectors.o
EXTI4_IRQHandler                                  bin/vectors.o
EXTI9_5_IRQHandler                                bin/vectors.o
FLASH_IRQHandler                                  bin/vectors.o
FPU_Enable                                        bin/config.o
                                                  bin/main.o
FPU_IRQHandler                                    bin/vectors.o
FSMC_IRQHandler                                   bin/vectors.o
Flash_SetLatency                                  bin/config.o
GPIO_ConfigPin                                    bin/gpio.o
                                                  bin/serial.o
                                                  bin/onewire.o
                                                  bin/i2c.o
GPIO_InitAll                                      bin/gpio.o
                                                  bin/main.o
HASH_RNG_IRQHandler                               bin/vectors.o
HMC6883L_writeRegister                            bin/hmc5883l.o
HMC6883_init                                      bin/hmc5883l.o
                                                  bin/main.o
HardFault_Handler                                 bin/vectors.o
I2C1_ER_IRQHandler                                bin/vectors.o
I2C1_EV_IRQHandler                                bin/vectors.o
I2C2_ER_IRQHandler                                bin/vectors.o
I2C2_EV_IRQHandler                                bin/vectors.o
I2C3_ER_IRQHandler                                bin/vectors.o
I2C3_EV_IRQHandler                                bin/vectors.o
I2C_Init                                          bin/i2c.o
                                                  bin/main.o
I2C_Read                                          bin/i2c.o
                                                  bin/ms5611.o
                                                  bin/hmc5883l.o
I2C_Write                                         bin/i2c.o
                                                  bin/ms5611.o
                                                  bin/hmc5883l.o
MS5611_getResolution                              bin/ms5611.o
MS5611_readAdc                                    bin/ms5611.o
MS5611_readCalibrationData                        bin/ms5611.o
MS5611_readPressure                               bin/ms5611.o
MS5611_readProm                                   bin/ms5611.o
MS5611_readRawPressure                            bin/ms5611.o
MS5611_readRawTemperature                         bin/ms5611.o
MS5611_readRegister                               bin/ms5611.o
MS5611_readTemperature                            bin/ms5611.o
MS5611_setResolution                              bin/ms5611.o
MS5611_writeRegister                              bin/ms5611.o
MemManage_Handler                                 bin/vectors.o
NMI_Handler                                       bin/vectors.o
OTG_FS_IRQHandler                                 bin/vectors.o
OTG_FS_WKUP_IRQHandler                            bin/vectors.o
OTG_HS_EP1_IN_IRQHandler                          bin/vectors.o
OTG_HS_EP1_OUT_IRQHandler                         bin/vectors.o
OTG_HS_IRQHandler                                 bin/vectors.o
OTG_HS_WKUP_IRQHandler                            bin/vectors.o
OW_Clear                                          bin/onewire.o
OW_Delay                                          bin/onewire.o
OW_In                                             bin/onewire.o
OW_Init                                           bin/onewire.o
OW_IsSet                                          bin/onewire.o
OW_Out                                            bin/onewire.o
OW_ReadByte                                       bin/onewire.o
OW_Set                                            bin/onewire.o
OW_WriteByte                                      bin/onewire.o
PLL_Start                                         bin/config.o
                                                  bin/main.o
PVD_IRQHandler                                    bin/vectors.o
PendSV_Handler                                    bin/vectors.o
RCC_IRQHandler                                    bin/vectors.o
RTC_Alarm_IRQHandler                              bin/vectors.o
RTC_WKUP_IRQHandler                               bin/vectors.o
Reset_Handler                                     bin/startup.o
                                                  bin/vectors.o
SDIO_IRQHandler                                   bin/vectors.o
SPI1_IRQHandler                                   bin/vectors.o
SPI2_IRQHandler                                   bin/vectors.o
SPI3_IRQHandler                                   bin/vectors.o
SVC_Handler                                       bin/vectors.o
Serial_Getc                                       bin/serial.o
Serial_Init                                       bin/serial.o
                                                  bin/main.o
Serial_Putc                                       bin/serial.o
Serial_Puts                                       bin/serial.o
                                                  bin/main.o
Serial_SendBuffer                                 bin/serial.o
SysTick_Handler                                   bin/delay.o
TAMP_STAMP_IRQHandler                             bin/vectors.o
TIM1_BRK_TIM9_IRQHandler                          bin/vectors.o
TIM1_CC_IRQHandler                                bin/vectors.o
TIM1_TRG_COM_TIM11_IRQHandler                     bin/vectors.o
TIM1_UP_TIM10_IRQHandler                          bin/vectors.o
TIM2_IRQHandler                                   bin/vectors.o
TIM3_IRQHandler                                   bin/vectors.o
TIM4_IRQHandler                                   bin/vectors.o
TIM5_IRQHandler                                   bin/vectors.o
TIM6_DAC_IRQHandler                               bin/vectors.o
TIM7_IRQHandler                                   bin/vectors.o
TIM8_BRK_TIM12_IRQHandler                         bin/vectors.o
TIM8_CC_IRQHandler                                bin/vectors.o
TIM8_TRG_COM_TIM14_IRQHandler                     bin/vectors.o
TIM8_UP_TIM13_IRQHandler                          bin/vectors.o
UART4_IRQHandler                                  bin/vectors.o
UART5_IRQHandler                                  bin/vectors.o
USART1_IRQHandler                                 bin/vectors.o
USART2_IRQHandler                                 bin/vectors.o
USART3_IRQHandler                                 bin/serial.o
USART6_IRQHandler                                 bin/vectors.o
UsageFault_Handler                                bin/vectors.o
WWDG_IRQHandler                                   bin/vectors.o
__Reserved_0x1C_Handler                           bin/vectors.o
__Reserved_0x20_Handler                           bin/vectors.o
__Reserved_0x24_Handler                           bin/vectors.o
__Reserved_0x28_Handler                           bin/vectors.o
__Reserved_0x34_Handler                           bin/vectors.o
__adddf3                                          c:/dev/arm/gcc-arm-none-eabi-4_9-141220/bin/../lib/gcc/arm-none-eabi/4.9.3/armv7e-m/fpu\libgcc.a(_arm_addsubdf3.o)
__aeabi_dadd                                      c:/dev/arm/gcc-arm-none-eabi-4_9-141220/bin/../lib/gcc/arm-none-eabi/4.9.3/armv7e-m/fpu\libgcc.a(_arm_addsubdf3.o)
__aeabi_ddiv                                      c:/dev/arm/gcc-arm-none-eabi-4_9-141220/bin/../lib/gcc/arm-none-eabi/4.9.3/armv7e-m/fpu\libgcc.a(_arm_muldivdf3.o)
                                                  bin/ms5611.o
__aeabi_dmul                                      c:/dev/arm/gcc-arm-none-eabi-4_9-141220/bin/../lib/gcc/arm-none-eabi/4.9.3/armv7e-m/fpu\libgcc.a(_arm_muldivdf3.o)
__aeabi_drsub                                     c:/dev/arm/gcc-arm-none-eabi-4_9-141220/bin/../lib/gcc/arm-none-eabi/4.9.3/armv7e-m/fpu\libgcc.a(_arm_addsubdf3.o)
__aeabi_dsub                                      c:/dev/arm/gcc-arm-none-eabi-4_9-141220/bin/../lib/gcc/arm-none-eabi/4.9.3/armv7e-m/fpu\libgcc.a(_arm_addsubdf3.o)
__aeabi_f2d                                       c:/dev/arm/gcc-arm-none-eabi-4_9-141220/bin/../lib/gcc/arm-none-eabi/4.9.3/armv7e-m/fpu\libgcc.a(_arm_addsubdf3.o)
__aeabi_i2d                                       c:/dev/arm/gcc-arm-none-eabi-4_9-141220/bin/../lib/gcc/arm-none-eabi/4.9.3/armv7e-m/fpu\libgcc.a(_arm_addsubdf3.o)
                                                  bin/ms5611.o
__aeabi_l2d                                       c:/dev/arm/gcc-arm-none-eabi-4_9-141220/bin/../lib/gcc/arm-none-eabi/4.9.3/armv7e-m/fpu\libgcc.a(_arm_addsubdf3.o)
__aeabi_ui2d                                      c:/dev/arm/gcc-arm-none-eabi-4_9-141220/bin/../lib/gcc/arm-none-eabi/4.9.3/armv7e-m/fpu\libgcc.a(_arm_addsubdf3.o)
__aeabi_ul2d                                      c:/dev/arm/gcc-arm-none-eabi-4_9-141220/bin/../lib/gcc/arm-none-eabi/4.9.3/armv7e-m/fpu\libgcc.a(_arm_addsubdf3.o)
__bss_end                                         bin/startup.o
__bss_start                                       bin/startup.o
__data_end                                        bin/startup.o
__data_init_start                                 bin/startup.o
__data_start                                      bin/startup.o
__default_low_level_init                          bin/startup.o
__divdf3                                          c:/dev/arm/gcc-arm-none-eabi-4_9-141220/bin/../lib/gcc/arm-none-eabi/4.9.3/armv7e-m/fpu\libgcc.a(_arm_muldivdf3.o)
__extendsfdf2                                     c:/dev/arm/gcc-arm-none-eabi-4_9-141220/bin/../lib/gcc/arm-none-eabi/4.9.3/armv7e-m/fpu\libgcc.a(_arm_addsubdf3.o)
__floatdidf                                       c:/dev/arm/gcc-arm-none-eabi-4_9-141220/bin/../lib/gcc/arm-none-eabi/4.9.3/armv7e-m/fpu\libgcc.a(_arm_addsubdf3.o)
__floatsidf                                       c:/dev/arm/gcc-arm-none-eabi-4_9-141220/bin/../lib/gcc/arm-none-eabi/4.9.3/armv7e-m/fpu\libgcc.a(_arm_addsubdf3.o)
__floatundidf                                     c:/dev/arm/gcc-arm-none-eabi-4_9-141220/bin/../lib/gcc/arm-none-eabi/4.9.3/armv7e-m/fpu\libgcc.a(_arm_addsubdf3.o)
__floatunsidf                                     c:/dev/arm/gcc-arm-none-eabi-4_9-141220/bin/../lib/gcc/arm-none-eabi/4.9.3/armv7e-m/fpu\libgcc.a(_arm_addsubdf3.o)
__main_stack_end                                  bin/vectors.o
__muldf3                                          c:/dev/arm/gcc-arm-none-eabi-4_9-141220/bin/../lib/gcc/arm-none-eabi/4.9.3/armv7e-m/fpu\libgcc.a(_arm_muldivdf3.o)
__process_stack_end                               bin/startup.o
__subdf3                                          c:/dev/arm/gcc-arm-none-eabi-4_9-141220/bin/../lib/gcc/arm-none-eabi/4.9.3/armv7e-m/fpu\libgcc.a(_arm_addsubdf3.o)
delay_ms                                          bin/delay.o
                                                  bin/ms5611.o
delay_us                                          bin/delay.o
                                                  bin/onewire.o
itoa                                              bin/main.o
low_level_init_0                                  bin/startup.o
low_level_init_1                                  bin/startup.o
main                                              bin/main.o
                                                  bin/startup.o
queueAdd                                          bin/queue.o
queueDelete                                       bin/queue.o
queueInit                                         bin/queue.o
queueIsEmpty                                      bin/queue.o
queueIsFull                                       bin/queue.o
rxQueueHead                                       bin/serial.o
rxQueueTail                                       bin/serial.o
txQueueHead                                       bin/serial.o
txQueueTail                                       bin/serial.o
vectors                                           bin/vectors.o
