
bin/stm32f4.elf:     file format elf32-littlearm


Disassembly of section .text:

08000000 <__text_start>:
 8000000:	20000498 	.word	0x20000498
 8000004:	08000189 	.word	0x08000189
 8000008:	08000a91 	.word	0x08000a91
 800000c:	08000a91 	.word	0x08000a91
 8000010:	08000a91 	.word	0x08000a91
 8000014:	08000a91 	.word	0x08000a91
 8000018:	08000a91 	.word	0x08000a91
 800001c:	08000a91 	.word	0x08000a91
 8000020:	08000a91 	.word	0x08000a91
 8000024:	08000a91 	.word	0x08000a91
 8000028:	08000a91 	.word	0x08000a91
 800002c:	08000a91 	.word	0x08000a91
 8000030:	08000a91 	.word	0x08000a91
 8000034:	08000a91 	.word	0x08000a91
 8000038:	08000a91 	.word	0x08000a91
 800003c:	08000461 	.word	0x08000461
 8000040:	08000a91 	.word	0x08000a91
 8000044:	08000a91 	.word	0x08000a91
 8000048:	08000a91 	.word	0x08000a91
 800004c:	08000a91 	.word	0x08000a91
 8000050:	08000a91 	.word	0x08000a91
 8000054:	08000a91 	.word	0x08000a91
 8000058:	08000a91 	.word	0x08000a91
 800005c:	08000a91 	.word	0x08000a91
 8000060:	08000a91 	.word	0x08000a91
 8000064:	08000a91 	.word	0x08000a91
 8000068:	08000a91 	.word	0x08000a91
 800006c:	08000a91 	.word	0x08000a91
 8000070:	08000a91 	.word	0x08000a91
 8000074:	08000a91 	.word	0x08000a91
 8000078:	08000a91 	.word	0x08000a91
 800007c:	08000a91 	.word	0x08000a91
 8000080:	08000a91 	.word	0x08000a91
 8000084:	08000a91 	.word	0x08000a91
 8000088:	08000a91 	.word	0x08000a91
 800008c:	08000a91 	.word	0x08000a91
 8000090:	08000a91 	.word	0x08000a91
 8000094:	08000a91 	.word	0x08000a91
 8000098:	08000a91 	.word	0x08000a91
 800009c:	08000a91 	.word	0x08000a91
 80000a0:	08000a91 	.word	0x08000a91
 80000a4:	08000a91 	.word	0x08000a91
 80000a8:	08000a91 	.word	0x08000a91
 80000ac:	08000a91 	.word	0x08000a91
 80000b0:	08000a91 	.word	0x08000a91
 80000b4:	08000a91 	.word	0x08000a91
 80000b8:	08000a91 	.word	0x08000a91
 80000bc:	08000a91 	.word	0x08000a91
 80000c0:	08000a91 	.word	0x08000a91
 80000c4:	08000a91 	.word	0x08000a91
 80000c8:	08000a91 	.word	0x08000a91
 80000cc:	08000a91 	.word	0x08000a91
 80000d0:	08000a91 	.word	0x08000a91
 80000d4:	08000a91 	.word	0x08000a91
 80000d8:	08000a91 	.word	0x08000a91
 80000dc:	080008a1 	.word	0x080008a1
 80000e0:	08000a91 	.word	0x08000a91
 80000e4:	08000a91 	.word	0x08000a91
 80000e8:	08000a91 	.word	0x08000a91
 80000ec:	08000a91 	.word	0x08000a91
 80000f0:	08000a91 	.word	0x08000a91
 80000f4:	08000a91 	.word	0x08000a91
 80000f8:	08000a91 	.word	0x08000a91
 80000fc:	08000a91 	.word	0x08000a91
 8000100:	08000a91 	.word	0x08000a91
 8000104:	08000a91 	.word	0x08000a91
 8000108:	08000a91 	.word	0x08000a91
 800010c:	08000a91 	.word	0x08000a91
 8000110:	08000a91 	.word	0x08000a91
 8000114:	08000a91 	.word	0x08000a91
 8000118:	08000a91 	.word	0x08000a91
 800011c:	08000a91 	.word	0x08000a91
 8000120:	08000a91 	.word	0x08000a91
 8000124:	08000a91 	.word	0x08000a91
 8000128:	08000a91 	.word	0x08000a91
 800012c:	08000a91 	.word	0x08000a91
 8000130:	08000a91 	.word	0x08000a91
 8000134:	08000a91 	.word	0x08000a91
 8000138:	08000a91 	.word	0x08000a91
 800013c:	08000a91 	.word	0x08000a91
 8000140:	08000a91 	.word	0x08000a91
 8000144:	08000a91 	.word	0x08000a91
 8000148:	08000a91 	.word	0x08000a91
 800014c:	08000a91 	.word	0x08000a91
 8000150:	08000a91 	.word	0x08000a91
 8000154:	08000a91 	.word	0x08000a91
 8000158:	08000a91 	.word	0x08000a91
 800015c:	08000a91 	.word	0x08000a91
 8000160:	08000a91 	.word	0x08000a91
 8000164:	08000a91 	.word	0x08000a91
 8000168:	08000a91 	.word	0x08000a91
 800016c:	08000a91 	.word	0x08000a91
 8000170:	08000a91 	.word	0x08000a91
 8000174:	08000a91 	.word	0x08000a91
 8000178:	08000a91 	.word	0x08000a91
 800017c:	08000a91 	.word	0x08000a91
 8000180:	08000a91 	.word	0x08000a91
 8000184:	08000a91 	.word	0x08000a91

08000188 <Reset_Handler>:
+-----------------------------------------------------------------------------+
| Initialize the process stack pointer
+-----------------------------------------------------------------------------+
*/

	ldr		r0, =__process_stack_end
 8000188:	4810      	ldr	r0, [pc, #64]	; (80001cc <__default_low_level_init+0x2>)
	msr		PSP, r0
 800018a:	f380 8809 	msr	PSP, r0
+-----------------------------------------------------------------------------+
| Thread mode uses process stack (PSP) and is privileged
+-----------------------------------------------------------------------------+
*/

	movs	r0, #CONTROL_ALTERNATE_STACK
 800018e:	2002      	movs	r0, #2
	msr		CONTROL, r0
 8000190:	f380 8814 	msr	CONTROL, r0
	isb
 8000194:	f3bf 8f6f 	isb	sy
+-----------------------------------------------------------------------------+
| Branch to low_level_init_0() function (.data and .bss are not initialized!)
+-----------------------------------------------------------------------------+
*/

	ldr		r0, =low_level_init_0
 8000198:	480d      	ldr	r0, [pc, #52]	; (80001d0 <__default_low_level_init+0x6>)
	blx		r0
 800019a:	4780      	blx	r0
+-----------------------------------------------------------------------------+
| Initialize .data section
+-----------------------------------------------------------------------------+
*/

	ldr		r1, =__data_init_start
 800019c:	490d      	ldr	r1, [pc, #52]	; (80001d4 <__default_low_level_init+0xa>)
    ldr		r2, =__data_start
 800019e:	4a0e      	ldr	r2, [pc, #56]	; (80001d8 <__default_low_level_init+0xe>)
    ldr		r3, =__data_end
 80001a0:	4b0e      	ldr	r3, [pc, #56]	; (80001dc <__default_low_level_init+0x12>)

1:	cmp		r2, r3
 80001a2:	429a      	cmp	r2, r3
	ittt	lo
 80001a4:	bf3e      	ittt	cc
	ldrlo	r0, [r1], #4
 80001a6:	f851 0b04 	ldrcc.w	r0, [r1], #4
	strlo	r0, [r2], #4
 80001aa:	f842 0b04 	strcc.w	r0, [r2], #4
	blo		1b
 80001ae:	e7f8      	bcc.n	80001a2 <Reset_Handler+0x1a>
+-----------------------------------------------------------------------------+
| Zero-init .bss section
+-----------------------------------------------------------------------------+
*/

	movs	r0, #0
 80001b0:	2000      	movs	r0, #0
	ldr		r1, =__bss_start
 80001b2:	490b      	ldr	r1, [pc, #44]	; (80001e0 <__default_low_level_init+0x16>)
	ldr		r2, =__bss_end
 80001b4:	4a0b      	ldr	r2, [pc, #44]	; (80001e4 <__default_low_level_init+0x1a>)

1:	cmp		r1, r2
 80001b6:	4291      	cmp	r1, r2
	itt		lo
 80001b8:	bf3c      	itt	cc
	strlo	r0, [r1], #4
 80001ba:	f841 0b04 	strcc.w	r0, [r1], #4
	blo		1b
 80001be:	e7fa      	bcc.n	80001b6 <Reset_Handler+0x2e>
+-----------------------------------------------------------------------------+
| Branch to low_level_init_1() function
+-----------------------------------------------------------------------------+
*/

	ldr		r0, =low_level_init_1
 80001c0:	4809      	ldr	r0, [pc, #36]	; (80001e8 <__default_low_level_init+0x1e>)
	blx		r0
 80001c2:	4780      	blx	r0
+-----------------------------------------------------------------------------+
| Branch to main() with link
+-----------------------------------------------------------------------------+
*/

	ldr		r0, =main
 80001c4:	4809      	ldr	r0, [pc, #36]	; (80001ec <__default_low_level_init+0x22>)
	blx		r0
 80001c6:	4780      	blx	r0
+-----------------------------------------------------------------------------+
| On return - loop till the end of the world
+-----------------------------------------------------------------------------+
*/

	b		.
 80001c8:	e7fe      	b.n	80001c8 <Reset_Handler+0x40>

080001ca <__default_low_level_init>:
.thumb
.thumb_func
.global __default_low_level_init

__default_low_level_init:
	bx		lr
 80001ca:	4770      	bx	lr
+-----------------------------------------------------------------------------+
| Initialize the process stack pointer
+-----------------------------------------------------------------------------+
*/

	ldr		r0, =__process_stack_end
 80001cc:	20000898 	.word	0x20000898
+-----------------------------------------------------------------------------+
| Branch to low_level_init_0() function (.data and .bss are not initialized!)
+-----------------------------------------------------------------------------+
*/

	ldr		r0, =low_level_init_0
 80001d0:	080001cb 	.word	0x080001cb
+-----------------------------------------------------------------------------+
| Initialize .data section
+-----------------------------------------------------------------------------+
*/

	ldr		r1, =__data_init_start
 80001d4:	08000ab0 	.word	0x08000ab0
    ldr		r2, =__data_start
 80001d8:	20000000 	.word	0x20000000
    ldr		r3, =__data_end
 80001dc:	20000000 	.word	0x20000000
| Zero-init .bss section
+-----------------------------------------------------------------------------+
*/

	movs	r0, #0
	ldr		r1, =__bss_start
 80001e0:	20000000 	.word	0x20000000
	ldr		r2, =__bss_end
 80001e4:	20000294 	.word	0x20000294
+-----------------------------------------------------------------------------+
| Branch to low_level_init_1() function
+-----------------------------------------------------------------------------+
*/

	ldr		r0, =low_level_init_1
 80001e8:	080001cb 	.word	0x080001cb
+-----------------------------------------------------------------------------+
| Branch to main() with link
+-----------------------------------------------------------------------------+
*/

	ldr		r0, =main
 80001ec:	08000835 	.word	0x08000835

080001f0 <PLL_Start>:
*
* \return real frequency that was set
*//*-------------------------------------------------------------------------*/

uint32_t PLL_Start(uint32_t crystal, uint32_t frequency)
{
 80001f0:	b580      	push	{r7, lr}
 80001f2:	b08c      	sub	sp, #48	; 0x30
 80001f4:	af00      	add	r7, sp, #0
 80001f6:	6078      	str	r0, [r7, #4]
 80001f8:	6039      	str	r1, [r7, #0]
	uint32_t div, mul, div_core, vco_input_frequency, vco_output_frequency, frequency_core;
	uint32_t best_div = 0, best_mul = 0, best_div_core = 0, best_frequency_core = 0;
 80001fa:	2300      	movs	r3, #0
 80001fc:	623b      	str	r3, [r7, #32]
 80001fe:	2300      	movs	r3, #0
 8000200:	61fb      	str	r3, [r7, #28]
 8000202:	2300      	movs	r3, #0
 8000204:	61bb      	str	r3, [r7, #24]
 8000206:	2300      	movs	r3, #0
 8000208:	617b      	str	r3, [r7, #20]

	RCC_CR_HSEON_bb = 1;					// enable HSE clock
 800020a:	4b42      	ldr	r3, [pc, #264]	; (8000314 <PLL_Start+0x124>)
 800020c:	2201      	movs	r2, #1
 800020e:	601a      	str	r2, [r3, #0]
	Flash_SetLatency(frequency);			// configure Flash latency for desired frequency
 8000210:	6838      	ldr	r0, [r7, #0]
 8000212:	f000 f8a1 	bl	8000358 <Flash_SetLatency>

	for (div = 2; div <= 63; div++)			// PLLM in [2; 63]
 8000216:	2302      	movs	r3, #2
 8000218:	62fb      	str	r3, [r7, #44]	; 0x2c
 800021a:	e047      	b.n	80002ac <PLL_Start+0xbc>
	{
		vco_input_frequency = crystal / div;
 800021c:	687a      	ldr	r2, [r7, #4]
 800021e:	6afb      	ldr	r3, [r7, #44]	; 0x2c
 8000220:	fbb2 f3f3 	udiv	r3, r2, r3
 8000224:	613b      	str	r3, [r7, #16]

		if ((vco_input_frequency < 1000000ul) || (vco_input_frequency > 2000000))	// skip invalid settings
 8000226:	693b      	ldr	r3, [r7, #16]
 8000228:	4a3b      	ldr	r2, [pc, #236]	; (8000318 <PLL_Start+0x128>)
 800022a:	4293      	cmp	r3, r2
 800022c:	d903      	bls.n	8000236 <PLL_Start+0x46>
 800022e:	693b      	ldr	r3, [r7, #16]
 8000230:	4a3a      	ldr	r2, [pc, #232]	; (800031c <PLL_Start+0x12c>)
 8000232:	4293      	cmp	r3, r2
 8000234:	d900      	bls.n	8000238 <PLL_Start+0x48>
			continue;
 8000236:	e036      	b.n	80002a6 <PLL_Start+0xb6>

		for (mul = 64; mul <= 432; mul++)	// PLLN in [64; 432]
 8000238:	2340      	movs	r3, #64	; 0x40
 800023a:	62bb      	str	r3, [r7, #40]	; 0x28
 800023c:	e02f      	b.n	800029e <PLL_Start+0xae>
		{
			vco_output_frequency = vco_input_frequency * mul;
 800023e:	693b      	ldr	r3, [r7, #16]
 8000240:	6aba      	ldr	r2, [r7, #40]	; 0x28
 8000242:	fb02 f303 	mul.w	r3, r2, r3
 8000246:	60fb      	str	r3, [r7, #12]

			if ((vco_output_frequency < 64000000ul) || (vco_output_frequency > 432000000ul))	// skip invalid settings
 8000248:	68fb      	ldr	r3, [r7, #12]
 800024a:	4a35      	ldr	r2, [pc, #212]	; (8000320 <PLL_Start+0x130>)
 800024c:	4293      	cmp	r3, r2
 800024e:	d903      	bls.n	8000258 <PLL_Start+0x68>
 8000250:	68fb      	ldr	r3, [r7, #12]
 8000252:	4a34      	ldr	r2, [pc, #208]	; (8000324 <PLL_Start+0x134>)
 8000254:	4293      	cmp	r3, r2
 8000256:	d900      	bls.n	800025a <PLL_Start+0x6a>
				continue;
 8000258:	e01e      	b.n	8000298 <PLL_Start+0xa8>

			for (div_core = 2; div_core <= 8; div_core += 2)	// PLLP in {2, 4, 6, 8}
 800025a:	2302      	movs	r3, #2
 800025c:	627b      	str	r3, [r7, #36]	; 0x24
 800025e:	e018      	b.n	8000292 <PLL_Start+0xa2>
			{
				frequency_core = vco_output_frequency / div_core;
 8000260:	68fa      	ldr	r2, [r7, #12]
 8000262:	6a7b      	ldr	r3, [r7, #36]	; 0x24
 8000264:	fbb2 f3f3 	udiv	r3, r2, r3
 8000268:	60bb      	str	r3, [r7, #8]

				if (frequency_core > frequency)	// skip values over desired frequency
 800026a:	68ba      	ldr	r2, [r7, #8]
 800026c:	683b      	ldr	r3, [r7, #0]
 800026e:	429a      	cmp	r2, r3
 8000270:	d900      	bls.n	8000274 <PLL_Start+0x84>
					continue;
 8000272:	e00b      	b.n	800028c <PLL_Start+0x9c>

				if (frequency_core > best_frequency_core)	// is this configuration better than previous one?
 8000274:	68ba      	ldr	r2, [r7, #8]
 8000276:	697b      	ldr	r3, [r7, #20]
 8000278:	429a      	cmp	r2, r3
 800027a:	d907      	bls.n	800028c <PLL_Start+0x9c>
				{
					best_frequency_core = frequency_core;	// yes - save values
 800027c:	68bb      	ldr	r3, [r7, #8]
 800027e:	617b      	str	r3, [r7, #20]
					best_div = div;
 8000280:	6afb      	ldr	r3, [r7, #44]	; 0x2c
 8000282:	623b      	str	r3, [r7, #32]
					best_mul = mul;
 8000284:	6abb      	ldr	r3, [r7, #40]	; 0x28
 8000286:	61fb      	str	r3, [r7, #28]
					best_div_core = div_core;
 8000288:	6a7b      	ldr	r3, [r7, #36]	; 0x24
 800028a:	61bb      	str	r3, [r7, #24]
			vco_output_frequency = vco_input_frequency * mul;

			if ((vco_output_frequency < 64000000ul) || (vco_output_frequency > 432000000ul))	// skip invalid settings
				continue;

			for (div_core = 2; div_core <= 8; div_core += 2)	// PLLP in {2, 4, 6, 8}
 800028c:	6a7b      	ldr	r3, [r7, #36]	; 0x24
 800028e:	3302      	adds	r3, #2
 8000290:	627b      	str	r3, [r7, #36]	; 0x24
 8000292:	6a7b      	ldr	r3, [r7, #36]	; 0x24
 8000294:	2b08      	cmp	r3, #8
 8000296:	d9e3      	bls.n	8000260 <PLL_Start+0x70>
		vco_input_frequency = crystal / div;

		if ((vco_input_frequency < 1000000ul) || (vco_input_frequency > 2000000))	// skip invalid settings
			continue;

		for (mul = 64; mul <= 432; mul++)	// PLLN in [64; 432]
 8000298:	6abb      	ldr	r3, [r7, #40]	; 0x28
 800029a:	3301      	adds	r3, #1
 800029c:	62bb      	str	r3, [r7, #40]	; 0x28
 800029e:	6abb      	ldr	r3, [r7, #40]	; 0x28
 80002a0:	f5b3 7fd8 	cmp.w	r3, #432	; 0x1b0
 80002a4:	d9cb      	bls.n	800023e <PLL_Start+0x4e>
	uint32_t best_div = 0, best_mul = 0, best_div_core = 0, best_frequency_core = 0;

	RCC_CR_HSEON_bb = 1;					// enable HSE clock
	Flash_SetLatency(frequency);			// configure Flash latency for desired frequency

	for (div = 2; div <= 63; div++)			// PLLM in [2; 63]
 80002a6:	6afb      	ldr	r3, [r7, #44]	; 0x2c
 80002a8:	3301      	adds	r3, #1
 80002aa:	62fb      	str	r3, [r7, #44]	; 0x2c
 80002ac:	6afb      	ldr	r3, [r7, #44]	; 0x2c
 80002ae:	2b3f      	cmp	r3, #63	; 0x3f
 80002b0:	d9b4      	bls.n	800021c <PLL_Start+0x2c>
				}
			}
		}
	}

	RCC->PLLCFGR = (best_div << RCC_PLLCFGR_PLLM_bit) | (best_mul << RCC_PLLCFGR_PLLN_bit) | ((best_div_core / 2 - 1) << RCC_PLLCFGR_PLLP_bit) | RCC_PLLCFGR_PLLQ_DIV9 | RCC_PLLCFGR_PLLSRC_HSE;	// configure PLL factors, always divide USB clock by 9
 80002b2:	491d      	ldr	r1, [pc, #116]	; (8000328 <PLL_Start+0x138>)
 80002b4:	69fb      	ldr	r3, [r7, #28]
 80002b6:	019a      	lsls	r2, r3, #6
 80002b8:	6a3b      	ldr	r3, [r7, #32]
 80002ba:	431a      	orrs	r2, r3
 80002bc:	69bb      	ldr	r3, [r7, #24]
 80002be:	085b      	lsrs	r3, r3, #1
 80002c0:	3b01      	subs	r3, #1
 80002c2:	041b      	lsls	r3, r3, #16
 80002c4:	4313      	orrs	r3, r2
 80002c6:	f043 6314 	orr.w	r3, r3, #155189248	; 0x9400000
 80002ca:	604b      	str	r3, [r1, #4]

	RCC->CFGR = RCC_CFGR_PPRE2_DIV2 | RCC_CFGR_PPRE1_DIV4 | RCC_CFGR_HPRE_DIV1;	// AHB - no prescaler, APB1 - divide by 4, APB2 - divide by 2
 80002cc:	4b16      	ldr	r3, [pc, #88]	; (8000328 <PLL_Start+0x138>)
 80002ce:	f44f 4214 	mov.w	r2, #37888	; 0x9400
 80002d2:	609a      	str	r2, [r3, #8]

	while (!RCC_CR_HSERDY_bb);				// wait for stable clock
 80002d4:	bf00      	nop
 80002d6:	4b15      	ldr	r3, [pc, #84]	; (800032c <PLL_Start+0x13c>)
 80002d8:	681b      	ldr	r3, [r3, #0]
 80002da:	2b00      	cmp	r3, #0
 80002dc:	d0fb      	beq.n	80002d6 <PLL_Start+0xe6>

	RCC_CR_PLLON_bb = 1;					// enable PLL
 80002de:	4b14      	ldr	r3, [pc, #80]	; (8000330 <PLL_Start+0x140>)
 80002e0:	2201      	movs	r2, #1
 80002e2:	601a      	str	r2, [r3, #0]
	while (!RCC_CR_PLLRDY_bb);				// wait for PLL lock
 80002e4:	bf00      	nop
 80002e6:	4b13      	ldr	r3, [pc, #76]	; (8000334 <PLL_Start+0x144>)
 80002e8:	681b      	ldr	r3, [r3, #0]
 80002ea:	2b00      	cmp	r3, #0
 80002ec:	d0fb      	beq.n	80002e6 <PLL_Start+0xf6>

	RCC->CFGR |= RCC_CFGR_SW_PLL;			// change SYSCLK to PLL
 80002ee:	4a0e      	ldr	r2, [pc, #56]	; (8000328 <PLL_Start+0x138>)
 80002f0:	4b0d      	ldr	r3, [pc, #52]	; (8000328 <PLL_Start+0x138>)
 80002f2:	689b      	ldr	r3, [r3, #8]
 80002f4:	f043 0302 	orr.w	r3, r3, #2
 80002f8:	6093      	str	r3, [r2, #8]
	while (((RCC->CFGR) & RCC_CFGR_SWS) != RCC_CFGR_SWS_PLL);	// wait for switch
 80002fa:	bf00      	nop
 80002fc:	4b0a      	ldr	r3, [pc, #40]	; (8000328 <PLL_Start+0x138>)
 80002fe:	689b      	ldr	r3, [r3, #8]
 8000300:	f003 030c 	and.w	r3, r3, #12
 8000304:	2b08      	cmp	r3, #8
 8000306:	d1f9      	bne.n	80002fc <PLL_Start+0x10c>

	return best_frequency_core;
 8000308:	697b      	ldr	r3, [r7, #20]
}
 800030a:	4618      	mov	r0, r3
 800030c:	3730      	adds	r7, #48	; 0x30
 800030e:	46bd      	mov	sp, r7
 8000310:	bd80      	pop	{r7, pc}
 8000312:	bf00      	nop
 8000314:	42470040 	.word	0x42470040
 8000318:	000f423f 	.word	0x000f423f
 800031c:	001e8480 	.word	0x001e8480
 8000320:	03d08fff 	.word	0x03d08fff
 8000324:	19bfcc00 	.word	0x19bfcc00
 8000328:	40023800 	.word	0x40023800
 800032c:	42470044 	.word	0x42470044
 8000330:	42470060 	.word	0x42470060
 8000334:	42470064 	.word	0x42470064

08000338 <FPU_Enable>:
* done by enabling CP10 and CP11 coprocessors in CPACR register (possible only
* when in privileged mode).
*//*-------------------------------------------------------------------------*/

void FPU_Enable(void)
{
 8000338:	b480      	push	{r7}
 800033a:	af00      	add	r7, sp, #0
#if (__FPU_PRESENT == 1) && (__FPU_USED == 1)
	SCB->CPACR |= ((3UL << (10 * 2)) | (3UL << (11 * 2)));	// set CP10 and CP11 Full Access
 800033c:	4a05      	ldr	r2, [pc, #20]	; (8000354 <FPU_Enable+0x1c>)
 800033e:	4b05      	ldr	r3, [pc, #20]	; (8000354 <FPU_Enable+0x1c>)
 8000340:	f8d3 3088 	ldr.w	r3, [r3, #136]	; 0x88
 8000344:	f443 0370 	orr.w	r3, r3, #15728640	; 0xf00000
 8000348:	f8c2 3088 	str.w	r3, [r2, #136]	; 0x88
#endif
}
 800034c:	46bd      	mov	sp, r7
 800034e:	f85d 7b04 	ldr.w	r7, [sp], #4
 8000352:	4770      	bx	lr
 8000354:	e000ed00 	.word	0xe000ed00

08000358 <Flash_SetLatency>:
*
* \param [in] frequency defines the target frequency of the core
*//*-------------------------------------------------------------------------*/

void Flash_SetLatency(uint32_t frequency)
{
 8000358:	b480      	push	{r7}
 800035a:	b085      	sub	sp, #20
 800035c:	af00      	add	r7, sp, #0
 800035e:	6078      	str	r0, [r7, #4]
	uint32_t wait_states;

	wait_states = frequency / 30000000UL;	// calculate wait_states (30M is valid for 2.7V to 3.6V voltage range, use 24M for 2.4V to 2.7V, 18M for 2.1V to 2.4V or 16M for  1.8V to 2.1V)
 8000360:	687b      	ldr	r3, [r7, #4]
 8000362:	09db      	lsrs	r3, r3, #7
 8000364:	4a0d      	ldr	r2, [pc, #52]	; (800039c <Flash_SetLatency+0x44>)
 8000366:	fba2 2303 	umull	r2, r3, r2, r3
 800036a:	0a9b      	lsrs	r3, r3, #10
 800036c:	60fb      	str	r3, [r7, #12]
	wait_states &= 7;						// trim to max allowed value - 7
 800036e:	68fb      	ldr	r3, [r7, #12]
 8000370:	f003 0307 	and.w	r3, r3, #7
 8000374:	60fb      	str	r3, [r7, #12]

	FLASH->ACR = wait_states;				// set wait_states, disable all caches and prefetch
 8000376:	4a0a      	ldr	r2, [pc, #40]	; (80003a0 <Flash_SetLatency+0x48>)
 8000378:	68fb      	ldr	r3, [r7, #12]
 800037a:	6013      	str	r3, [r2, #0]
	FLASH->ACR = FLASH_ACR_DCRST | FLASH_ACR_ICRST | wait_states;	// reset caches
 800037c:	4a08      	ldr	r2, [pc, #32]	; (80003a0 <Flash_SetLatency+0x48>)
 800037e:	68fb      	ldr	r3, [r7, #12]
 8000380:	f443 53c0 	orr.w	r3, r3, #6144	; 0x1800
 8000384:	6013      	str	r3, [r2, #0]
	FLASH->ACR = FLASH_ACR_DCEN | FLASH_ACR_ICEN | FLASH_ACR_PRFTEN | wait_states;	// enable caches and prefetch
 8000386:	4a06      	ldr	r2, [pc, #24]	; (80003a0 <Flash_SetLatency+0x48>)
 8000388:	68fb      	ldr	r3, [r7, #12]
 800038a:	f443 63e0 	orr.w	r3, r3, #1792	; 0x700
 800038e:	6013      	str	r3, [r2, #0]
}
 8000390:	3714      	adds	r7, #20
 8000392:	46bd      	mov	sp, r7
 8000394:	f85d 7b04 	ldr.w	r7, [sp], #4
 8000398:	4770      	bx	lr
 800039a:	bf00      	nop
 800039c:	011e54c7 	.word	0x011e54c7
 80003a0:	40023c00 	.word	0x40023c00

080003a4 <NVIC_SetPriority>:

    \param [in]      IRQn  Number of the interrupt for set priority
    \param [in]  priority  Priority to set
 */
static __INLINE void NVIC_SetPriority(IRQn_Type IRQn, uint32_t priority)
{
 80003a4:	b480      	push	{r7}
 80003a6:	b083      	sub	sp, #12
 80003a8:	af00      	add	r7, sp, #0
 80003aa:	4603      	mov	r3, r0
 80003ac:	6039      	str	r1, [r7, #0]
 80003ae:	71fb      	strb	r3, [r7, #7]
  if(IRQn < 0) {
 80003b0:	f997 3007 	ldrsb.w	r3, [r7, #7]
 80003b4:	2b00      	cmp	r3, #0
 80003b6:	da0b      	bge.n	80003d0 <NVIC_SetPriority+0x2c>
    SCB->SHP[((uint32_t)(IRQn) & 0xF)-4] = ((priority << (8 - __NVIC_PRIO_BITS)) & 0xff); } /* set Priority for Cortex-M  System Interrupts */
 80003b8:	490d      	ldr	r1, [pc, #52]	; (80003f0 <NVIC_SetPriority+0x4c>)
 80003ba:	79fb      	ldrb	r3, [r7, #7]
 80003bc:	f003 030f 	and.w	r3, r3, #15
 80003c0:	3b04      	subs	r3, #4
 80003c2:	683a      	ldr	r2, [r7, #0]
 80003c4:	b2d2      	uxtb	r2, r2
 80003c6:	0112      	lsls	r2, r2, #4
 80003c8:	b2d2      	uxtb	r2, r2
 80003ca:	440b      	add	r3, r1
 80003cc:	761a      	strb	r2, [r3, #24]
 80003ce:	e009      	b.n	80003e4 <NVIC_SetPriority+0x40>
  else {
    NVIC->IP[(uint32_t)(IRQn)] = ((priority << (8 - __NVIC_PRIO_BITS)) & 0xff);    }        /* set Priority for device specific Interrupts  */
 80003d0:	4908      	ldr	r1, [pc, #32]	; (80003f4 <NVIC_SetPriority+0x50>)
 80003d2:	f997 3007 	ldrsb.w	r3, [r7, #7]
 80003d6:	683a      	ldr	r2, [r7, #0]
 80003d8:	b2d2      	uxtb	r2, r2
 80003da:	0112      	lsls	r2, r2, #4
 80003dc:	b2d2      	uxtb	r2, r2
 80003de:	440b      	add	r3, r1
 80003e0:	f883 2300 	strb.w	r2, [r3, #768]	; 0x300
}
 80003e4:	370c      	adds	r7, #12
 80003e6:	46bd      	mov	sp, r7
 80003e8:	f85d 7b04 	ldr.w	r7, [sp], #4
 80003ec:	4770      	bx	lr
 80003ee:	bf00      	nop
 80003f0:	e000ed00 	.word	0xe000ed00
 80003f4:	e000e100 	.word	0xe000e100

080003f8 <SysTick_Config>:
    \param [in]  ticks  Number of ticks between two interrupts
    \return          0  Function succeeded
    \return          1  Function failed
 */
static __INLINE uint32_t SysTick_Config(uint32_t ticks)
{
 80003f8:	b580      	push	{r7, lr}
 80003fa:	b082      	sub	sp, #8
 80003fc:	af00      	add	r7, sp, #0
 80003fe:	6078      	str	r0, [r7, #4]
  if (ticks > SysTick_LOAD_RELOAD_Msk)  return (1);            /* Reload value impossible */
 8000400:	687b      	ldr	r3, [r7, #4]
 8000402:	f1b3 7f80 	cmp.w	r3, #16777216	; 0x1000000
 8000406:	d301      	bcc.n	800040c <SysTick_Config+0x14>
 8000408:	2301      	movs	r3, #1
 800040a:	e011      	b.n	8000430 <SysTick_Config+0x38>

  SysTick->LOAD  = (ticks & SysTick_LOAD_RELOAD_Msk) - 1;      /* set reload register */
 800040c:	4a0a      	ldr	r2, [pc, #40]	; (8000438 <SysTick_Config+0x40>)
 800040e:	687b      	ldr	r3, [r7, #4]
 8000410:	f023 437f 	bic.w	r3, r3, #4278190080	; 0xff000000
 8000414:	3b01      	subs	r3, #1
 8000416:	6053      	str	r3, [r2, #4]
  NVIC_SetPriority (SysTick_IRQn, (1<<__NVIC_PRIO_BITS) - 1);  /* set Priority for Cortex-M0 System Interrupts */
 8000418:	f04f 30ff 	mov.w	r0, #4294967295
 800041c:	210f      	movs	r1, #15
 800041e:	f7ff ffc1 	bl	80003a4 <NVIC_SetPriority>
  SysTick->VAL   = 0;                                          /* Load the SysTick Counter Value */
 8000422:	4b05      	ldr	r3, [pc, #20]	; (8000438 <SysTick_Config+0x40>)
 8000424:	2200      	movs	r2, #0
 8000426:	609a      	str	r2, [r3, #8]
  SysTick->CTRL  = SysTick_CTRL_CLKSOURCE_Msk |
 8000428:	4b03      	ldr	r3, [pc, #12]	; (8000438 <SysTick_Config+0x40>)
 800042a:	2207      	movs	r2, #7
 800042c:	601a      	str	r2, [r3, #0]
                   SysTick_CTRL_TICKINT_Msk   |
                   SysTick_CTRL_ENABLE_Msk;                    /* Enable SysTick IRQ and SysTick Timer */
  return (0);                                                  /* Function successful */
 800042e:	2300      	movs	r3, #0
 }
 8000430:	4618      	mov	r0, r3
 8000432:	3708      	adds	r7, #8
 8000434:	46bd      	mov	sp, r7
 8000436:	bd80      	pop	{r7, pc}
 8000438:	e000e010 	.word	0xe000e010

0800043c <Delay_Config>:
		delay_us(1000);
	}
}

void Delay_Config(uint32_t f)
{
 800043c:	b580      	push	{r7, lr}
 800043e:	b082      	sub	sp, #8
 8000440:	af00      	add	r7, sp, #0
 8000442:	6078      	str	r0, [r7, #4]
	SysTick_Config(f / 1000000);
 8000444:	687b      	ldr	r3, [r7, #4]
 8000446:	4a05      	ldr	r2, [pc, #20]	; (800045c <Delay_Config+0x20>)
 8000448:	fba2 2303 	umull	r2, r3, r2, r3
 800044c:	0c9b      	lsrs	r3, r3, #18
 800044e:	4618      	mov	r0, r3
 8000450:	f7ff ffd2 	bl	80003f8 <SysTick_Config>
}
 8000454:	3708      	adds	r7, #8
 8000456:	46bd      	mov	sp, r7
 8000458:	bd80      	pop	{r7, pc}
 800045a:	bf00      	nop
 800045c:	431bde83 	.word	0x431bde83

08000460 <SysTick_Handler>:

void SysTick_Handler(void)
{
 8000460:	b480      	push	{r7}
 8000462:	af00      	add	r7, sp, #0
	if (delay_counter != 0)
 8000464:	4b06      	ldr	r3, [pc, #24]	; (8000480 <SysTick_Handler+0x20>)
 8000466:	681b      	ldr	r3, [r3, #0]
 8000468:	2b00      	cmp	r3, #0
 800046a:	d004      	beq.n	8000476 <SysTick_Handler+0x16>
	{
		delay_counter--;
 800046c:	4b04      	ldr	r3, [pc, #16]	; (8000480 <SysTick_Handler+0x20>)
 800046e:	681b      	ldr	r3, [r3, #0]
 8000470:	3b01      	subs	r3, #1
 8000472:	4a03      	ldr	r2, [pc, #12]	; (8000480 <SysTick_Handler+0x20>)
 8000474:	6013      	str	r3, [r2, #0]
	}
}
 8000476:	46bd      	mov	sp, r7
 8000478:	f85d 7b04 	ldr.w	r7, [sp], #4
 800047c:	4770      	bx	lr
 800047e:	bf00      	nop
 8000480:	20000000 	.word	0x20000000

08000484 <GPIO_InitAll>:
* \brief GPIO initialization.
* \details Enables all GPIO ports.
*//*-------------------------------------------------------------------------*/

void GPIO_InitAll(void)
{
 8000484:	b480      	push	{r7}
 8000486:	af00      	add	r7, sp, #0
	RCC->AHB1ENR |=
 8000488:	4a05      	ldr	r2, [pc, #20]	; (80004a0 <GPIO_InitAll+0x1c>)
 800048a:	4b05      	ldr	r3, [pc, #20]	; (80004a0 <GPIO_InitAll+0x1c>)
 800048c:	6b1b      	ldr	r3, [r3, #48]	; 0x30
 800048e:	ea6f 2353 	mvn.w	r3, r3, lsr #9
 8000492:	ea6f 2343 	mvn.w	r3, r3, lsl #9
 8000496:	6313      	str	r3, [r2, #48]	; 0x30
		RCC_AHB1ENR_GPIOEEN |
		RCC_AHB1ENR_GPIOFEN |
		RCC_AHB1ENR_GPIOGEN |
		RCC_AHB1ENR_GPIOHEN |
		RCC_AHB1ENR_GPIOIEN; // enable all possible GPIO ports
}
 8000498:	46bd      	mov	sp, r7
 800049a:	f85d 7b04 	ldr.w	r7, [sp], #4
 800049e:	4770      	bx	lr
 80004a0:	40023800 	.word	0x40023800

080004a4 <GPIO_ConfigPin>:
* GPIO_[AF0; AF15]_{PP, OD}_{2MHz, 25MHz, 50MHz, 100MHz}_{PULL_UP, PULL_DOWN},
* GPIO_ANALOG}
*//*-------------------------------------------------------------------------*/

void GPIO_ConfigPin(GPIO_TypeDef *port_ptr, uint32_t pin, uint32_t configuration)
{
 80004a4:	b480      	push	{r7}
 80004a6:	b08b      	sub	sp, #44	; 0x2c
 80004a8:	af00      	add	r7, sp, #0
 80004aa:	60f8      	str	r0, [r7, #12]
 80004ac:	60b9      	str	r1, [r7, #8]
 80004ae:	607a      	str	r2, [r7, #4]
	uint32_t moder, otyper, ospeedr, pupdr, afr, afrx;

	moder = port_ptr->MODER;				// localize
 80004b0:	68fb      	ldr	r3, [r7, #12]
 80004b2:	681b      	ldr	r3, [r3, #0]
 80004b4:	623b      	str	r3, [r7, #32]
	moder &= ~(GPIO_MODER_mask << (pin * 2));	// clear current setting
 80004b6:	68bb      	ldr	r3, [r7, #8]
 80004b8:	005b      	lsls	r3, r3, #1
 80004ba:	461a      	mov	r2, r3
 80004bc:	2303      	movs	r3, #3
 80004be:	4093      	lsls	r3, r2
 80004c0:	43db      	mvns	r3, r3
 80004c2:	461a      	mov	r2, r3
 80004c4:	6a3b      	ldr	r3, [r7, #32]
 80004c6:	4013      	ands	r3, r2
 80004c8:	623b      	str	r3, [r7, #32]
	moder |= (GPIO_GET_MODER(configuration) << (pin * 2));	// apply new setting
 80004ca:	687b      	ldr	r3, [r7, #4]
 80004cc:	f003 030f 	and.w	r3, r3, #15
 80004d0:	68ba      	ldr	r2, [r7, #8]
 80004d2:	0052      	lsls	r2, r2, #1
 80004d4:	4093      	lsls	r3, r2
 80004d6:	6a3a      	ldr	r2, [r7, #32]
 80004d8:	4313      	orrs	r3, r2
 80004da:	623b      	str	r3, [r7, #32]
	port_ptr->MODER = moder;				// save back
 80004dc:	68fb      	ldr	r3, [r7, #12]
 80004de:	6a3a      	ldr	r2, [r7, #32]
 80004e0:	601a      	str	r2, [r3, #0]

	otyper = port_ptr->OTYPER;				// localize
 80004e2:	68fb      	ldr	r3, [r7, #12]
 80004e4:	685b      	ldr	r3, [r3, #4]
 80004e6:	61fb      	str	r3, [r7, #28]
	otyper &= ~(GPIO_OTYPER_mask << pin);	// clear current setting
 80004e8:	68bb      	ldr	r3, [r7, #8]
 80004ea:	2201      	movs	r2, #1
 80004ec:	fa02 f303 	lsl.w	r3, r2, r3
 80004f0:	43db      	mvns	r3, r3
 80004f2:	461a      	mov	r2, r3
 80004f4:	69fb      	ldr	r3, [r7, #28]
 80004f6:	4013      	ands	r3, r2
 80004f8:	61fb      	str	r3, [r7, #28]
	otyper |= (GPIO_GET_OTYPER(configuration) << pin);	// apply new setting
 80004fa:	687b      	ldr	r3, [r7, #4]
 80004fc:	f003 03f0 	and.w	r3, r3, #240	; 0xf0
 8000500:	091a      	lsrs	r2, r3, #4
 8000502:	68bb      	ldr	r3, [r7, #8]
 8000504:	fa02 f303 	lsl.w	r3, r2, r3
 8000508:	69fa      	ldr	r2, [r7, #28]
 800050a:	4313      	orrs	r3, r2
 800050c:	61fb      	str	r3, [r7, #28]
	port_ptr->OTYPER = otyper;				// save back
 800050e:	68fb      	ldr	r3, [r7, #12]
 8000510:	69fa      	ldr	r2, [r7, #28]
 8000512:	605a      	str	r2, [r3, #4]

	ospeedr = port_ptr->OSPEEDR;				// localize
 8000514:	68fb      	ldr	r3, [r7, #12]
 8000516:	689b      	ldr	r3, [r3, #8]
 8000518:	61bb      	str	r3, [r7, #24]
	ospeedr &= ~(GPIO_OSPEEDR_mask << (pin * 2));	// clear current setting
 800051a:	68bb      	ldr	r3, [r7, #8]
 800051c:	005b      	lsls	r3, r3, #1
 800051e:	461a      	mov	r2, r3
 8000520:	2303      	movs	r3, #3
 8000522:	4093      	lsls	r3, r2
 8000524:	43db      	mvns	r3, r3
 8000526:	461a      	mov	r2, r3
 8000528:	69bb      	ldr	r3, [r7, #24]
 800052a:	4013      	ands	r3, r2
 800052c:	61bb      	str	r3, [r7, #24]
	ospeedr |= (GPIO_GET_OSPEEDR(configuration) << (pin * 2));	// apply new setting
 800052e:	687b      	ldr	r3, [r7, #4]
 8000530:	f403 6370 	and.w	r3, r3, #3840	; 0xf00
 8000534:	0a1b      	lsrs	r3, r3, #8
 8000536:	68ba      	ldr	r2, [r7, #8]
 8000538:	0052      	lsls	r2, r2, #1
 800053a:	4093      	lsls	r3, r2
 800053c:	69ba      	ldr	r2, [r7, #24]
 800053e:	4313      	orrs	r3, r2
 8000540:	61bb      	str	r3, [r7, #24]
	port_ptr->OSPEEDR = ospeedr;				// save back
 8000542:	68fb      	ldr	r3, [r7, #12]
 8000544:	69ba      	ldr	r2, [r7, #24]
 8000546:	609a      	str	r2, [r3, #8]

	pupdr = port_ptr->PUPDR;				// localize
 8000548:	68fb      	ldr	r3, [r7, #12]
 800054a:	68db      	ldr	r3, [r3, #12]
 800054c:	617b      	str	r3, [r7, #20]
	pupdr &= ~(GPIO_PUPDR_mask << (pin * 2));	// clear current setting
 800054e:	68bb      	ldr	r3, [r7, #8]
 8000550:	005b      	lsls	r3, r3, #1
 8000552:	461a      	mov	r2, r3
 8000554:	2303      	movs	r3, #3
 8000556:	4093      	lsls	r3, r2
 8000558:	43db      	mvns	r3, r3
 800055a:	461a      	mov	r2, r3
 800055c:	697b      	ldr	r3, [r7, #20]
 800055e:	4013      	ands	r3, r2
 8000560:	617b      	str	r3, [r7, #20]
	pupdr |= (GPIO_GET_PUPDR(configuration) << (pin * 2));	// apply new setting
 8000562:	687b      	ldr	r3, [r7, #4]
 8000564:	f403 4370 	and.w	r3, r3, #61440	; 0xf000
 8000568:	0b1b      	lsrs	r3, r3, #12
 800056a:	68ba      	ldr	r2, [r7, #8]
 800056c:	0052      	lsls	r2, r2, #1
 800056e:	4093      	lsls	r3, r2
 8000570:	697a      	ldr	r2, [r7, #20]
 8000572:	4313      	orrs	r3, r2
 8000574:	617b      	str	r3, [r7, #20]
	port_ptr->PUPDR = pupdr;				// save back
 8000576:	68fb      	ldr	r3, [r7, #12]
 8000578:	697a      	ldr	r2, [r7, #20]
 800057a:	60da      	str	r2, [r3, #12]

	if (pin < 8)							// determine which AFR register should be used
 800057c:	68bb      	ldr	r3, [r7, #8]
 800057e:	2b07      	cmp	r3, #7
 8000580:	d802      	bhi.n	8000588 <GPIO_ConfigPin+0xe4>
		afrx = 0;							// AFRL - pins [0; 7]
 8000582:	2300      	movs	r3, #0
 8000584:	627b      	str	r3, [r7, #36]	; 0x24
 8000586:	e004      	b.n	8000592 <GPIO_ConfigPin+0xee>
	else
	{
		afrx = 1;							// AFRH - pins [8; 15]
 8000588:	2301      	movs	r3, #1
 800058a:	627b      	str	r3, [r7, #36]	; 0x24
		pin -= 8;							// trim pin number
 800058c:	68bb      	ldr	r3, [r7, #8]
 800058e:	3b08      	subs	r3, #8
 8000590:	60bb      	str	r3, [r7, #8]
	}

	afr = port_ptr->AFR[afrx];				// localize
 8000592:	68fb      	ldr	r3, [r7, #12]
 8000594:	6a7a      	ldr	r2, [r7, #36]	; 0x24
 8000596:	3208      	adds	r2, #8
 8000598:	f853 3022 	ldr.w	r3, [r3, r2, lsl #2]
 800059c:	613b      	str	r3, [r7, #16]
	afr &= ~(GPIO_AFRx_mask << (pin * 4));	// clear current setting
 800059e:	68bb      	ldr	r3, [r7, #8]
 80005a0:	009b      	lsls	r3, r3, #2
 80005a2:	461a      	mov	r2, r3
 80005a4:	230f      	movs	r3, #15
 80005a6:	4093      	lsls	r3, r2
 80005a8:	43db      	mvns	r3, r3
 80005aa:	461a      	mov	r2, r3
 80005ac:	693b      	ldr	r3, [r7, #16]
 80005ae:	4013      	ands	r3, r2
 80005b0:	613b      	str	r3, [r7, #16]
	afr |= (GPIO_GET_AFR(configuration) << (pin * 4));	// apply new setting
 80005b2:	687b      	ldr	r3, [r7, #4]
 80005b4:	f403 2370 	and.w	r3, r3, #983040	; 0xf0000
 80005b8:	0c1b      	lsrs	r3, r3, #16
 80005ba:	68ba      	ldr	r2, [r7, #8]
 80005bc:	0092      	lsls	r2, r2, #2
 80005be:	4093      	lsls	r3, r2
 80005c0:	693a      	ldr	r2, [r7, #16]
 80005c2:	4313      	orrs	r3, r2
 80005c4:	613b      	str	r3, [r7, #16]
	port_ptr->AFR[afrx] = afr;				// save back
 80005c6:	68fb      	ldr	r3, [r7, #12]
 80005c8:	6a7a      	ldr	r2, [r7, #36]	; 0x24
 80005ca:	3208      	adds	r2, #8
 80005cc:	6939      	ldr	r1, [r7, #16]
 80005ce:	f843 1022 	str.w	r1, [r3, r2, lsl #2]

}
 80005d2:	372c      	adds	r7, #44	; 0x2c
 80005d4:	46bd      	mov	sp, r7
 80005d6:	f85d 7b04 	ldr.w	r7, [sp], #4
 80005da:	4770      	bx	lr

080005dc <HMC6883L_writeRegister>:
#include <stdbool.h>
#include "include/i2c.h"
#include "include/hmc5883l.h"

uint8_t HMC6883L_writeRegister(uint8_t reg)
{
 80005dc:	b580      	push	{r7, lr}
 80005de:	b084      	sub	sp, #16
 80005e0:	af00      	add	r7, sp, #0
 80005e2:	4603      	mov	r3, r0
 80005e4:	71fb      	strb	r3, [r7, #7]
	uint8_t value;
	I2C_Write(HMC5883L_ADDRESS, &reg, 1);
 80005e6:	1dfb      	adds	r3, r7, #7
 80005e8:	201e      	movs	r0, #30
 80005ea:	4619      	mov	r1, r3
 80005ec:	2201      	movs	r2, #1
 80005ee:	f000 f865 	bl	80006bc <I2C_Write>
	I2C_Read(HMC5883L_ADDRESS, &value, 1);
 80005f2:	f107 030f 	add.w	r3, r7, #15
 80005f6:	201e      	movs	r0, #30
 80005f8:	4619      	mov	r1, r3
 80005fa:	2201      	movs	r2, #1
 80005fc:	f000 f8bc 	bl	8000778 <I2C_Read>

	return value;
 8000600:	7bfb      	ldrb	r3, [r7, #15]
}
 8000602:	4618      	mov	r0, r3
 8000604:	3710      	adds	r7, #16
 8000606:	46bd      	mov	sp, r7
 8000608:	bd80      	pop	{r7, pc}
 800060a:	bf00      	nop

0800060c <HMC6883_init>:

bool HMC6883_init(void)
{
 800060c:	b580      	push	{r7, lr}
 800060e:	af00      	add	r7, sp, #0
	if ((HMC6883L_writeRegister(HMC5883L_REG_IDENT_A) != 0x48)
 8000610:	200a      	movs	r0, #10
 8000612:	f7ff ffe3 	bl	80005dc <HMC6883L_writeRegister>
 8000616:	4603      	mov	r3, r0
 8000618:	2b48      	cmp	r3, #72	; 0x48
 800061a:	d10b      	bne.n	8000634 <HMC6883_init+0x28>
	 || (HMC6883L_writeRegister(HMC5883L_REG_IDENT_B) != 0x34)
 800061c:	200b      	movs	r0, #11
 800061e:	f7ff ffdd 	bl	80005dc <HMC6883L_writeRegister>
 8000622:	4603      	mov	r3, r0
 8000624:	2b34      	cmp	r3, #52	; 0x34
 8000626:	d105      	bne.n	8000634 <HMC6883_init+0x28>
	 || (HMC6883L_writeRegister(HMC5883L_REG_IDENT_C) != 0x33))
 8000628:	200c      	movs	r0, #12
 800062a:	f7ff ffd7 	bl	80005dc <HMC6883L_writeRegister>
 800062e:	4603      	mov	r3, r0
 8000630:	2b33      	cmp	r3, #51	; 0x33
 8000632:	d001      	beq.n	8000638 <HMC6883_init+0x2c>
	{
		return false;
 8000634:	2300      	movs	r3, #0
 8000636:	e7ff      	b.n	8000638 <HMC6883_init+0x2c>
	/*setRange(HMC5883L_RANGE_1_3GA);
	setMeasurementMode(HMC5883L_CONTINOUS);
	setDataRate(HMC5883L_DATARATE_15HZ);
	setSamples(HMC5883L_SAMPLES_1);
	mgPerDigit = 0.92f;*/
}
 8000638:	4618      	mov	r0, r3
 800063a:	bd80      	pop	{r7, pc}

0800063c <I2C_Init>:
#include <stm32f4xx.h>
#include "include/gpio.h"

void I2C_Init(void)
{
 800063c:	b580      	push	{r7, lr}
 800063e:	af00      	add	r7, sp, #0
	GPIO_ConfigPin(GPIOB, 10, GPIO_AF4_OD_100MHz);	// scl
 8000640:	481a      	ldr	r0, [pc, #104]	; (80006ac <I2C_Init+0x70>)
 8000642:	210a      	movs	r1, #10
 8000644:	4a1a      	ldr	r2, [pc, #104]	; (80006b0 <I2C_Init+0x74>)
 8000646:	f7ff ff2d 	bl	80004a4 <GPIO_ConfigPin>
	GPIO_ConfigPin(GPIOB, 11, GPIO_AF4_OD_100MHz);	// sda
 800064a:	4818      	ldr	r0, [pc, #96]	; (80006ac <I2C_Init+0x70>)
 800064c:	210b      	movs	r1, #11
 800064e:	4a18      	ldr	r2, [pc, #96]	; (80006b0 <I2C_Init+0x74>)
 8000650:	f7ff ff28 	bl	80004a4 <GPIO_ConfigPin>

	RCC->APB1ENR |= RCC_APB1ENR_I2C2EN;
 8000654:	4a17      	ldr	r2, [pc, #92]	; (80006b4 <I2C_Init+0x78>)
 8000656:	4b17      	ldr	r3, [pc, #92]	; (80006b4 <I2C_Init+0x78>)
 8000658:	6c1b      	ldr	r3, [r3, #64]	; 0x40
 800065a:	f443 0380 	orr.w	r3, r3, #4194304	; 0x400000
 800065e:	6413      	str	r3, [r2, #64]	; 0x40
	I2C2->CR1 |= I2C_CR1_SWRST;
 8000660:	4a15      	ldr	r2, [pc, #84]	; (80006b8 <I2C_Init+0x7c>)
 8000662:	4b15      	ldr	r3, [pc, #84]	; (80006b8 <I2C_Init+0x7c>)
 8000664:	881b      	ldrh	r3, [r3, #0]
 8000666:	b29b      	uxth	r3, r3
 8000668:	ea6f 4343 	mvn.w	r3, r3, lsl #17
 800066c:	ea6f 4353 	mvn.w	r3, r3, lsr #17
 8000670:	b29b      	uxth	r3, r3
 8000672:	8013      	strh	r3, [r2, #0]
	I2C2->CR1 = 0;
 8000674:	4b10      	ldr	r3, [pc, #64]	; (80006b8 <I2C_Init+0x7c>)
 8000676:	2200      	movs	r2, #0
 8000678:	801a      	strh	r2, [r3, #0]
	I2C2->CR2 |= 42;
 800067a:	4a0f      	ldr	r2, [pc, #60]	; (80006b8 <I2C_Init+0x7c>)
 800067c:	4b0e      	ldr	r3, [pc, #56]	; (80006b8 <I2C_Init+0x7c>)
 800067e:	889b      	ldrh	r3, [r3, #4]
 8000680:	b29b      	uxth	r3, r3
 8000682:	f043 032a 	orr.w	r3, r3, #42	; 0x2a
 8000686:	b29b      	uxth	r3, r3
 8000688:	8093      	strh	r3, [r2, #4]
	I2C2->CCR = 210;
 800068a:	4b0b      	ldr	r3, [pc, #44]	; (80006b8 <I2C_Init+0x7c>)
 800068c:	22d2      	movs	r2, #210	; 0xd2
 800068e:	839a      	strh	r2, [r3, #28]
	I2C2->TRISE = 43;
 8000690:	4b09      	ldr	r3, [pc, #36]	; (80006b8 <I2C_Init+0x7c>)
 8000692:	222b      	movs	r2, #43	; 0x2b
 8000694:	841a      	strh	r2, [r3, #32]
	I2C2->CR1 |= I2C_CR1_ACK | I2C_CR1_PE;
 8000696:	4a08      	ldr	r2, [pc, #32]	; (80006b8 <I2C_Init+0x7c>)
 8000698:	4b07      	ldr	r3, [pc, #28]	; (80006b8 <I2C_Init+0x7c>)
 800069a:	881b      	ldrh	r3, [r3, #0]
 800069c:	b29b      	uxth	r3, r3
 800069e:	f443 6380 	orr.w	r3, r3, #1024	; 0x400
 80006a2:	f043 0301 	orr.w	r3, r3, #1
 80006a6:	b29b      	uxth	r3, r3
 80006a8:	8013      	strh	r3, [r2, #0]
}
 80006aa:	bd80      	pop	{r7, pc}
 80006ac:	40020400 	.word	0x40020400
 80006b0:	00040312 	.word	0x00040312
 80006b4:	40023800 	.word	0x40023800
 80006b8:	40005800 	.word	0x40005800

080006bc <I2C_Write>:

void I2C_Write(uint8_t address, uint8_t * data, uint8_t length)
{
 80006bc:	b480      	push	{r7}
 80006be:	b085      	sub	sp, #20
 80006c0:	af00      	add	r7, sp, #0
 80006c2:	4603      	mov	r3, r0
 80006c4:	6039      	str	r1, [r7, #0]
 80006c6:	71fb      	strb	r3, [r7, #7]
 80006c8:	4613      	mov	r3, r2
 80006ca:	71bb      	strb	r3, [r7, #6]
	uint32_t dummy;

	I2C2->CR1 |= I2C_CR1_START;
 80006cc:	4a29      	ldr	r2, [pc, #164]	; (8000774 <I2C_Write+0xb8>)
 80006ce:	4b29      	ldr	r3, [pc, #164]	; (8000774 <I2C_Write+0xb8>)
 80006d0:	881b      	ldrh	r3, [r3, #0]
 80006d2:	b29b      	uxth	r3, r3
 80006d4:	f443 7380 	orr.w	r3, r3, #256	; 0x100
 80006d8:	b29b      	uxth	r3, r3
 80006da:	8013      	strh	r3, [r2, #0]
	while (!(I2C2->SR1 & I2C_SR1_SB));
 80006dc:	bf00      	nop
 80006de:	4b25      	ldr	r3, [pc, #148]	; (8000774 <I2C_Write+0xb8>)
 80006e0:	8a9b      	ldrh	r3, [r3, #20]
 80006e2:	b29b      	uxth	r3, r3
 80006e4:	f003 0301 	and.w	r3, r3, #1
 80006e8:	2b00      	cmp	r3, #0
 80006ea:	d0f8      	beq.n	80006de <I2C_Write+0x22>

	I2C2->DR = address << 1;
 80006ec:	4a21      	ldr	r2, [pc, #132]	; (8000774 <I2C_Write+0xb8>)
 80006ee:	79fb      	ldrb	r3, [r7, #7]
 80006f0:	b29b      	uxth	r3, r3
 80006f2:	005b      	lsls	r3, r3, #1
 80006f4:	b29b      	uxth	r3, r3
 80006f6:	8213      	strh	r3, [r2, #16]
	while (!(I2C2->SR1 & I2C_SR1_ADDR));
 80006f8:	bf00      	nop
 80006fa:	4b1e      	ldr	r3, [pc, #120]	; (8000774 <I2C_Write+0xb8>)
 80006fc:	8a9b      	ldrh	r3, [r3, #20]
 80006fe:	b29b      	uxth	r3, r3
 8000700:	f003 0302 	and.w	r3, r3, #2
 8000704:	2b00      	cmp	r3, #0
 8000706:	d0f8      	beq.n	80006fa <I2C_Write+0x3e>

	dummy = I2C2->SR2;
 8000708:	4b1a      	ldr	r3, [pc, #104]	; (8000774 <I2C_Write+0xb8>)
 800070a:	8b1b      	ldrh	r3, [r3, #24]
 800070c:	b29b      	uxth	r3, r3
 800070e:	60fb      	str	r3, [r7, #12]

	while (length--)
 8000710:	e01e      	b.n	8000750 <I2C_Write+0x94>
	{
		while (!(I2C2->SR1 & I2C_SR1_TXE));
 8000712:	bf00      	nop
 8000714:	4b17      	ldr	r3, [pc, #92]	; (8000774 <I2C_Write+0xb8>)
 8000716:	8a9b      	ldrh	r3, [r3, #20]
 8000718:	b29b      	uxth	r3, r3
 800071a:	f003 0380 	and.w	r3, r3, #128	; 0x80
 800071e:	2b00      	cmp	r3, #0
 8000720:	d0f8      	beq.n	8000714 <I2C_Write+0x58>
		I2C2->DR = *(data++);
 8000722:	4914      	ldr	r1, [pc, #80]	; (8000774 <I2C_Write+0xb8>)
 8000724:	683b      	ldr	r3, [r7, #0]
 8000726:	1c5a      	adds	r2, r3, #1
 8000728:	603a      	str	r2, [r7, #0]
 800072a:	781b      	ldrb	r3, [r3, #0]
 800072c:	b29b      	uxth	r3, r3
 800072e:	820b      	strh	r3, [r1, #16]

		while (!(I2C2->SR1 & I2C_SR1_TXE));
 8000730:	bf00      	nop
 8000732:	4b10      	ldr	r3, [pc, #64]	; (8000774 <I2C_Write+0xb8>)
 8000734:	8a9b      	ldrh	r3, [r3, #20]
 8000736:	b29b      	uxth	r3, r3
 8000738:	f003 0380 	and.w	r3, r3, #128	; 0x80
 800073c:	2b00      	cmp	r3, #0
 800073e:	d0f8      	beq.n	8000732 <I2C_Write+0x76>
		while (I2C2->SR1 & I2C_SR1_BTF);
 8000740:	bf00      	nop
 8000742:	4b0c      	ldr	r3, [pc, #48]	; (8000774 <I2C_Write+0xb8>)
 8000744:	8a9b      	ldrh	r3, [r3, #20]
 8000746:	b29b      	uxth	r3, r3
 8000748:	f003 0304 	and.w	r3, r3, #4
 800074c:	2b00      	cmp	r3, #0
 800074e:	d1f8      	bne.n	8000742 <I2C_Write+0x86>
	I2C2->DR = address << 1;
	while (!(I2C2->SR1 & I2C_SR1_ADDR));

	dummy = I2C2->SR2;

	while (length--)
 8000750:	79bb      	ldrb	r3, [r7, #6]
 8000752:	1e5a      	subs	r2, r3, #1
 8000754:	71ba      	strb	r2, [r7, #6]
 8000756:	2b00      	cmp	r3, #0
 8000758:	d1db      	bne.n	8000712 <I2C_Write+0x56>

		while (!(I2C2->SR1 & I2C_SR1_TXE));
		while (I2C2->SR1 & I2C_SR1_BTF);
	}

	I2C2->CR1 |= I2C_CR1_STOP;
 800075a:	4a06      	ldr	r2, [pc, #24]	; (8000774 <I2C_Write+0xb8>)
 800075c:	4b05      	ldr	r3, [pc, #20]	; (8000774 <I2C_Write+0xb8>)
 800075e:	881b      	ldrh	r3, [r3, #0]
 8000760:	b29b      	uxth	r3, r3
 8000762:	f443 7300 	orr.w	r3, r3, #512	; 0x200
 8000766:	b29b      	uxth	r3, r3
 8000768:	8013      	strh	r3, [r2, #0]
}
 800076a:	3714      	adds	r7, #20
 800076c:	46bd      	mov	sp, r7
 800076e:	f85d 7b04 	ldr.w	r7, [sp], #4
 8000772:	4770      	bx	lr
 8000774:	40005800 	.word	0x40005800

08000778 <I2C_Read>:

void I2C_Read(uint8_t address, uint8_t * data, uint8_t length)
{
 8000778:	b480      	push	{r7}
 800077a:	b085      	sub	sp, #20
 800077c:	af00      	add	r7, sp, #0
 800077e:	4603      	mov	r3, r0
 8000780:	6039      	str	r1, [r7, #0]
 8000782:	71fb      	strb	r3, [r7, #7]
 8000784:	4613      	mov	r3, r2
 8000786:	71bb      	strb	r3, [r7, #6]
	uint32_t dummy;

	I2C2->CR1 |= I2C_CR1_START;
 8000788:	4a29      	ldr	r2, [pc, #164]	; (8000830 <I2C_Read+0xb8>)
 800078a:	4b29      	ldr	r3, [pc, #164]	; (8000830 <I2C_Read+0xb8>)
 800078c:	881b      	ldrh	r3, [r3, #0]
 800078e:	b29b      	uxth	r3, r3
 8000790:	f443 7380 	orr.w	r3, r3, #256	; 0x100
 8000794:	b29b      	uxth	r3, r3
 8000796:	8013      	strh	r3, [r2, #0]
	while (!(I2C2->SR1 & I2C_SR1_SB));
 8000798:	bf00      	nop
 800079a:	4b25      	ldr	r3, [pc, #148]	; (8000830 <I2C_Read+0xb8>)
 800079c:	8a9b      	ldrh	r3, [r3, #20]
 800079e:	b29b      	uxth	r3, r3
 80007a0:	f003 0301 	and.w	r3, r3, #1
 80007a4:	2b00      	cmp	r3, #0
 80007a6:	d0f8      	beq.n	800079a <I2C_Read+0x22>

	I2C2->DR = (address << 1) | 0x01;
 80007a8:	4a21      	ldr	r2, [pc, #132]	; (8000830 <I2C_Read+0xb8>)
 80007aa:	79fb      	ldrb	r3, [r7, #7]
 80007ac:	005b      	lsls	r3, r3, #1
 80007ae:	b29b      	uxth	r3, r3
 80007b0:	f043 0301 	orr.w	r3, r3, #1
 80007b4:	b29b      	uxth	r3, r3
 80007b6:	b29b      	uxth	r3, r3
 80007b8:	8213      	strh	r3, [r2, #16]
	while (!(I2C2->SR1 & I2C_SR1_ADDR));
 80007ba:	bf00      	nop
 80007bc:	4b1c      	ldr	r3, [pc, #112]	; (8000830 <I2C_Read+0xb8>)
 80007be:	8a9b      	ldrh	r3, [r3, #20]
 80007c0:	b29b      	uxth	r3, r3
 80007c2:	f003 0302 	and.w	r3, r3, #2
 80007c6:	2b00      	cmp	r3, #0
 80007c8:	d0f8      	beq.n	80007bc <I2C_Read+0x44>

	dummy = I2C2->SR2;
 80007ca:	4b19      	ldr	r3, [pc, #100]	; (8000830 <I2C_Read+0xb8>)
 80007cc:	8b1b      	ldrh	r3, [r3, #24]
 80007ce:	b29b      	uxth	r3, r3
 80007d0:	60fb      	str	r3, [r7, #12]

	while (length--)
 80007d2:	e01a      	b.n	800080a <I2C_Read+0x92>
	{
		if (length == 0)
 80007d4:	79bb      	ldrb	r3, [r7, #6]
 80007d6:	2b00      	cmp	r3, #0
 80007d8:	d107      	bne.n	80007ea <I2C_Read+0x72>
			I2C2->CR1 &= ~I2C_CR1_ACK;
 80007da:	4a15      	ldr	r2, [pc, #84]	; (8000830 <I2C_Read+0xb8>)
 80007dc:	4b14      	ldr	r3, [pc, #80]	; (8000830 <I2C_Read+0xb8>)
 80007de:	881b      	ldrh	r3, [r3, #0]
 80007e0:	b29b      	uxth	r3, r3
 80007e2:	f423 6380 	bic.w	r3, r3, #1024	; 0x400
 80007e6:	b29b      	uxth	r3, r3
 80007e8:	8013      	strh	r3, [r2, #0]

	   while(!(I2C2->SR1 & I2C_SR1_RXNE));
 80007ea:	bf00      	nop
 80007ec:	4b10      	ldr	r3, [pc, #64]	; (8000830 <I2C_Read+0xb8>)
 80007ee:	8a9b      	ldrh	r3, [r3, #20]
 80007f0:	b29b      	uxth	r3, r3
 80007f2:	f003 0340 	and.w	r3, r3, #64	; 0x40
 80007f6:	2b00      	cmp	r3, #0
 80007f8:	d0f8      	beq.n	80007ec <I2C_Read+0x74>
	   *(data++) = I2C2->DR;
 80007fa:	683b      	ldr	r3, [r7, #0]
 80007fc:	1c5a      	adds	r2, r3, #1
 80007fe:	603a      	str	r2, [r7, #0]
 8000800:	4a0b      	ldr	r2, [pc, #44]	; (8000830 <I2C_Read+0xb8>)
 8000802:	8a12      	ldrh	r2, [r2, #16]
 8000804:	b292      	uxth	r2, r2
 8000806:	b2d2      	uxtb	r2, r2
 8000808:	701a      	strb	r2, [r3, #0]
	I2C2->DR = (address << 1) | 0x01;
	while (!(I2C2->SR1 & I2C_SR1_ADDR));

	dummy = I2C2->SR2;

	while (length--)
 800080a:	79bb      	ldrb	r3, [r7, #6]
 800080c:	1e5a      	subs	r2, r3, #1
 800080e:	71ba      	strb	r2, [r7, #6]
 8000810:	2b00      	cmp	r3, #0
 8000812:	d1df      	bne.n	80007d4 <I2C_Read+0x5c>

	   while(!(I2C2->SR1 & I2C_SR1_RXNE));
	   *(data++) = I2C2->DR;
	}

	I2C2->CR1 |= I2C_CR1_ACK | I2C_CR1_STOP;
 8000814:	4a06      	ldr	r2, [pc, #24]	; (8000830 <I2C_Read+0xb8>)
 8000816:	4b06      	ldr	r3, [pc, #24]	; (8000830 <I2C_Read+0xb8>)
 8000818:	881b      	ldrh	r3, [r3, #0]
 800081a:	b29b      	uxth	r3, r3
 800081c:	f443 63c0 	orr.w	r3, r3, #1536	; 0x600
 8000820:	b29b      	uxth	r3, r3
 8000822:	8013      	strh	r3, [r2, #0]
}
 8000824:	3714      	adds	r7, #20
 8000826:	46bd      	mov	sp, r7
 8000828:	f85d 7b04 	ldr.w	r7, [sp], #4
 800082c:	4770      	bx	lr
 800082e:	bf00      	nop
 8000830:	40005800 	.word	0x40005800

08000834 <main>:

    return len;
}

int main(void)
{
 8000834:	b580      	push	{r7, lr}
 8000836:	af00      	add	r7, sp, #0
	FPU_Enable();
 8000838:	f7ff fd7e 	bl	8000338 <FPU_Enable>
	PLL_Start(CRYSTAL, FREQUENCY);
 800083c:	4809      	ldr	r0, [pc, #36]	; (8000864 <main+0x30>)
 800083e:	490a      	ldr	r1, [pc, #40]	; (8000868 <main+0x34>)
 8000840:	f7ff fcd6 	bl	80001f0 <PLL_Start>
	GPIO_InitAll();
 8000844:	f7ff fe1e 	bl	8000484 <GPIO_InitAll>
	Delay_Config(168000000UL);
 8000848:	4807      	ldr	r0, [pc, #28]	; (8000868 <main+0x34>)
 800084a:	f7ff fdf7 	bl	800043c <Delay_Config>
	Serial_Init();
 800084e:	f000 f8a5 	bl	800099c <Serial_Init>
	Serial_Puts("[ok] USART3\r\n");
 8000852:	4806      	ldr	r0, [pc, #24]	; (800086c <main+0x38>)
 8000854:	f000 f908 	bl	8000a68 <Serial_Puts>

	I2C_Init();
 8000858:	f7ff fef0 	bl	800063c <I2C_Init>
	HMC6883_init();
 800085c:	f7ff fed6 	bl	800060c <HMC6883_init>
		Serial_Puts("*C p=");
		Serial_Puts(buf2);
		Serial_Puts("Pa");

		delay_ms(100);*/
	}
 8000860:	e7fe      	b.n	8000860 <main+0x2c>
 8000862:	bf00      	nop
 8000864:	007a1200 	.word	0x007a1200
 8000868:	0a037a00 	.word	0x0a037a00
 800086c:	08000aa0 	.word	0x08000aa0

08000870 <NVIC_EnableIRQ>:
    The interrupt number cannot be a negative value.

    \param [in]      IRQn  Number of the external interrupt to enable
 */
static __INLINE void NVIC_EnableIRQ(IRQn_Type IRQn)
{
 8000870:	b480      	push	{r7}
 8000872:	b083      	sub	sp, #12
 8000874:	af00      	add	r7, sp, #0
 8000876:	4603      	mov	r3, r0
 8000878:	71fb      	strb	r3, [r7, #7]
/*  NVIC->ISER[((uint32_t)(IRQn) >> 5)] = (1 << ((uint32_t)(IRQn) & 0x1F));  enable interrupt */
  NVIC->ISER[(uint32_t)((int32_t)IRQn) >> 5] = (uint32_t)(1 << ((uint32_t)((int32_t)IRQn) & (uint32_t)0x1F)); /* enable interrupt */
 800087a:	4908      	ldr	r1, [pc, #32]	; (800089c <NVIC_EnableIRQ+0x2c>)
 800087c:	f997 3007 	ldrsb.w	r3, [r7, #7]
 8000880:	095b      	lsrs	r3, r3, #5
 8000882:	79fa      	ldrb	r2, [r7, #7]
 8000884:	f002 021f 	and.w	r2, r2, #31
 8000888:	2001      	movs	r0, #1
 800088a:	fa00 f202 	lsl.w	r2, r0, r2
 800088e:	f841 2023 	str.w	r2, [r1, r3, lsl #2]
}
 8000892:	370c      	adds	r7, #12
 8000894:	46bd      	mov	sp, r7
 8000896:	f85d 7b04 	ldr.w	r7, [sp], #4
 800089a:	4770      	bx	lr
 800089c:	e000e100 	.word	0xe000e100

080008a0 <USART3_IRQHandler>:
static char txQueueData[TX_BUFFER_SIZE];
volatile uint32_t txQueueHead = 0;
volatile uint32_t txQueueTail = 0;

void USART3_IRQHandler(void)
{
 80008a0:	b480      	push	{r7}
 80008a2:	af00      	add	r7, sp, #0
	if ((USART3->SR & USART_SR_RXNE) && (USART3->CR1 & USART_CR1_RXNEIE))
 80008a4:	4b35      	ldr	r3, [pc, #212]	; (800097c <USART3_IRQHandler+0xdc>)
 80008a6:	881b      	ldrh	r3, [r3, #0]
 80008a8:	b29b      	uxth	r3, r3
 80008aa:	f003 0320 	and.w	r3, r3, #32
 80008ae:	2b00      	cmp	r3, #0
 80008b0:	d031      	beq.n	8000916 <USART3_IRQHandler+0x76>
 80008b2:	4b32      	ldr	r3, [pc, #200]	; (800097c <USART3_IRQHandler+0xdc>)
 80008b4:	899b      	ldrh	r3, [r3, #12]
 80008b6:	b29b      	uxth	r3, r3
 80008b8:	f003 0320 	and.w	r3, r3, #32
 80008bc:	2b00      	cmp	r3, #0
 80008be:	d02a      	beq.n	8000916 <USART3_IRQHandler+0x76>
	{
		if (rxQueueHead - rxQueueTail == RX_BUFFER_SIZE - 1)
 80008c0:	4b2f      	ldr	r3, [pc, #188]	; (8000980 <USART3_IRQHandler+0xe0>)
 80008c2:	681a      	ldr	r2, [r3, #0]
 80008c4:	4b2f      	ldr	r3, [pc, #188]	; (8000984 <USART3_IRQHandler+0xe4>)
 80008c6:	681b      	ldr	r3, [r3, #0]
 80008c8:	1ad3      	subs	r3, r2, r3
 80008ca:	f240 12ff 	movw	r2, #511	; 0x1ff
 80008ce:	4293      	cmp	r3, r2
 80008d0:	d10e      	bne.n	80008f0 <USART3_IRQHandler+0x50>
		{
			USART3->CR1 &= ~USART_CR1_RXNEIE;
 80008d2:	4a2a      	ldr	r2, [pc, #168]	; (800097c <USART3_IRQHandler+0xdc>)
 80008d4:	4b29      	ldr	r3, [pc, #164]	; (800097c <USART3_IRQHandler+0xdc>)
 80008d6:	899b      	ldrh	r3, [r3, #12]
 80008d8:	b29b      	uxth	r3, r3
 80008da:	f023 0320 	bic.w	r3, r3, #32
 80008de:	b29b      	uxth	r3, r3
 80008e0:	8193      	strh	r3, [r2, #12]
			GPIOD->ODR ^= (1 << 15);
 80008e2:	4a29      	ldr	r2, [pc, #164]	; (8000988 <USART3_IRQHandler+0xe8>)
 80008e4:	4b28      	ldr	r3, [pc, #160]	; (8000988 <USART3_IRQHandler+0xe8>)
 80008e6:	695b      	ldr	r3, [r3, #20]
 80008e8:	f483 4300 	eor.w	r3, r3, #32768	; 0x8000
 80008ec:	6153      	str	r3, [r2, #20]
 80008ee:	e012      	b.n	8000916 <USART3_IRQHandler+0x76>
		}
		else
		{
			rxQueueData[++rxQueueHead % RX_BUFFER_SIZE] = USART3->DR;
 80008f0:	4b23      	ldr	r3, [pc, #140]	; (8000980 <USART3_IRQHandler+0xe0>)
 80008f2:	681b      	ldr	r3, [r3, #0]
 80008f4:	3301      	adds	r3, #1
 80008f6:	4a22      	ldr	r2, [pc, #136]	; (8000980 <USART3_IRQHandler+0xe0>)
 80008f8:	6013      	str	r3, [r2, #0]
 80008fa:	f3c3 0308 	ubfx	r3, r3, #0, #9
 80008fe:	4a1f      	ldr	r2, [pc, #124]	; (800097c <USART3_IRQHandler+0xdc>)
 8000900:	8892      	ldrh	r2, [r2, #4]
 8000902:	b292      	uxth	r2, r2
 8000904:	b2d1      	uxtb	r1, r2
 8000906:	4a21      	ldr	r2, [pc, #132]	; (800098c <USART3_IRQHandler+0xec>)
 8000908:	54d1      	strb	r1, [r2, r3]
			GPIOD->ODR ^= (1 << 12);
 800090a:	4a1f      	ldr	r2, [pc, #124]	; (8000988 <USART3_IRQHandler+0xe8>)
 800090c:	4b1e      	ldr	r3, [pc, #120]	; (8000988 <USART3_IRQHandler+0xe8>)
 800090e:	695b      	ldr	r3, [r3, #20]
 8000910:	f483 5380 	eor.w	r3, r3, #4096	; 0x1000
 8000914:	6153      	str	r3, [r2, #20]
		}

	}

	if ((USART3->SR & USART_SR_TXE) && (USART3->CR1 & USART_CR1_TXEIE))
 8000916:	4b19      	ldr	r3, [pc, #100]	; (800097c <USART3_IRQHandler+0xdc>)
 8000918:	881b      	ldrh	r3, [r3, #0]
 800091a:	b29b      	uxth	r3, r3
 800091c:	f003 0380 	and.w	r3, r3, #128	; 0x80
 8000920:	2b00      	cmp	r3, #0
 8000922:	d027      	beq.n	8000974 <USART3_IRQHandler+0xd4>
 8000924:	4b15      	ldr	r3, [pc, #84]	; (800097c <USART3_IRQHandler+0xdc>)
 8000926:	899b      	ldrh	r3, [r3, #12]
 8000928:	b29b      	uxth	r3, r3
 800092a:	f003 0380 	and.w	r3, r3, #128	; 0x80
 800092e:	2b00      	cmp	r3, #0
 8000930:	d020      	beq.n	8000974 <USART3_IRQHandler+0xd4>
	{
		if (txQueueHead == txQueueTail)
 8000932:	4b17      	ldr	r3, [pc, #92]	; (8000990 <USART3_IRQHandler+0xf0>)
 8000934:	681a      	ldr	r2, [r3, #0]
 8000936:	4b17      	ldr	r3, [pc, #92]	; (8000994 <USART3_IRQHandler+0xf4>)
 8000938:	681b      	ldr	r3, [r3, #0]
 800093a:	429a      	cmp	r2, r3
 800093c:	d108      	bne.n	8000950 <USART3_IRQHandler+0xb0>
		{
			USART3->CR1 &= ~USART_CR1_TXEIE;
 800093e:	4a0f      	ldr	r2, [pc, #60]	; (800097c <USART3_IRQHandler+0xdc>)
 8000940:	4b0e      	ldr	r3, [pc, #56]	; (800097c <USART3_IRQHandler+0xdc>)
 8000942:	899b      	ldrh	r3, [r3, #12]
 8000944:	b29b      	uxth	r3, r3
 8000946:	f023 0380 	bic.w	r3, r3, #128	; 0x80
 800094a:	b29b      	uxth	r3, r3
 800094c:	8193      	strh	r3, [r2, #12]
 800094e:	e011      	b.n	8000974 <USART3_IRQHandler+0xd4>
		}
		else
		{
			USART3->DR = txQueueData[++txQueueTail % TX_BUFFER_SIZE];
 8000950:	4a0a      	ldr	r2, [pc, #40]	; (800097c <USART3_IRQHandler+0xdc>)
 8000952:	4b10      	ldr	r3, [pc, #64]	; (8000994 <USART3_IRQHandler+0xf4>)
 8000954:	681b      	ldr	r3, [r3, #0]
 8000956:	3301      	adds	r3, #1
 8000958:	490e      	ldr	r1, [pc, #56]	; (8000994 <USART3_IRQHandler+0xf4>)
 800095a:	600b      	str	r3, [r1, #0]
 800095c:	f003 037f 	and.w	r3, r3, #127	; 0x7f
 8000960:	490d      	ldr	r1, [pc, #52]	; (8000998 <USART3_IRQHandler+0xf8>)
 8000962:	5ccb      	ldrb	r3, [r1, r3]
 8000964:	b29b      	uxth	r3, r3
 8000966:	8093      	strh	r3, [r2, #4]
			GPIOD->ODR ^= (1 << 13);
 8000968:	4a07      	ldr	r2, [pc, #28]	; (8000988 <USART3_IRQHandler+0xe8>)
 800096a:	4b07      	ldr	r3, [pc, #28]	; (8000988 <USART3_IRQHandler+0xe8>)
 800096c:	695b      	ldr	r3, [r3, #20]
 800096e:	f483 5300 	eor.w	r3, r3, #8192	; 0x2000
 8000972:	6153      	str	r3, [r2, #20]
		}
	}
}
 8000974:	46bd      	mov	sp, r7
 8000976:	f85d 7b04 	ldr.w	r7, [sp], #4
 800097a:	4770      	bx	lr
 800097c:	40004800 	.word	0x40004800
 8000980:	20000204 	.word	0x20000204
 8000984:	20000208 	.word	0x20000208
 8000988:	40020c00 	.word	0x40020c00
 800098c:	20000004 	.word	0x20000004
 8000990:	2000028c 	.word	0x2000028c
 8000994:	20000290 	.word	0x20000290
 8000998:	2000020c 	.word	0x2000020c

0800099c <Serial_Init>:

void Serial_Init(void)
{
 800099c:	b580      	push	{r7, lr}
 800099e:	af00      	add	r7, sp, #0
	RCC->APB1ENR |= RCC_APB1ENR_USART3EN;
 80009a0:	4a17      	ldr	r2, [pc, #92]	; (8000a00 <Serial_Init+0x64>)
 80009a2:	4b17      	ldr	r3, [pc, #92]	; (8000a00 <Serial_Init+0x64>)
 80009a4:	6c1b      	ldr	r3, [r3, #64]	; 0x40
 80009a6:	f443 2380 	orr.w	r3, r3, #262144	; 0x40000
 80009aa:	6413      	str	r3, [r2, #64]	; 0x40

	GPIO_ConfigPin(GPIOD, 8, GPIO_AF7_PP_50MHz_PULL_UP ); // TX
 80009ac:	4815      	ldr	r0, [pc, #84]	; (8000a04 <Serial_Init+0x68>)
 80009ae:	2108      	movs	r1, #8
 80009b0:	4a15      	ldr	r2, [pc, #84]	; (8000a08 <Serial_Init+0x6c>)
 80009b2:	f7ff fd77 	bl	80004a4 <GPIO_ConfigPin>
	GPIO_ConfigPin(GPIOD, 9, GPIO_AF7_PP_50MHz_PULL_UP ); // RX
 80009b6:	4813      	ldr	r0, [pc, #76]	; (8000a04 <Serial_Init+0x68>)
 80009b8:	2109      	movs	r1, #9
 80009ba:	4a13      	ldr	r2, [pc, #76]	; (8000a08 <Serial_Init+0x6c>)
 80009bc:	f7ff fd72 	bl	80004a4 <GPIO_ConfigPin>

	USART3->BRR = 42000000 / 115200; // APB1 speed / baudrate
 80009c0:	4b12      	ldr	r3, [pc, #72]	; (8000a0c <Serial_Init+0x70>)
 80009c2:	f44f 72b6 	mov.w	r2, #364	; 0x16c
 80009c6:	811a      	strh	r2, [r3, #8]
	USART3->CR1 |= USART_CR1_TE | USART_CR1_RE | USART_CR1_TXEIE | USART_CR1_RXNEIE;
 80009c8:	4a10      	ldr	r2, [pc, #64]	; (8000a0c <Serial_Init+0x70>)
 80009ca:	4b10      	ldr	r3, [pc, #64]	; (8000a0c <Serial_Init+0x70>)
 80009cc:	899b      	ldrh	r3, [r3, #12]
 80009ce:	b29b      	uxth	r3, r3
 80009d0:	f043 03ac 	orr.w	r3, r3, #172	; 0xac
 80009d4:	b29b      	uxth	r3, r3
 80009d6:	8193      	strh	r3, [r2, #12]
	USART3->CR1 |= USART_CR1_UE;
 80009d8:	4a0c      	ldr	r2, [pc, #48]	; (8000a0c <Serial_Init+0x70>)
 80009da:	4b0c      	ldr	r3, [pc, #48]	; (8000a0c <Serial_Init+0x70>)
 80009dc:	899b      	ldrh	r3, [r3, #12]
 80009de:	b29b      	uxth	r3, r3
 80009e0:	f443 5300 	orr.w	r3, r3, #8192	; 0x2000
 80009e4:	b29b      	uxth	r3, r3
 80009e6:	8193      	strh	r3, [r2, #12]
	USART3->CR3 |= USART_CR3_DMAT;
 80009e8:	4a08      	ldr	r2, [pc, #32]	; (8000a0c <Serial_Init+0x70>)
 80009ea:	4b08      	ldr	r3, [pc, #32]	; (8000a0c <Serial_Init+0x70>)
 80009ec:	8a9b      	ldrh	r3, [r3, #20]
 80009ee:	b29b      	uxth	r3, r3
 80009f0:	f043 0380 	orr.w	r3, r3, #128	; 0x80
 80009f4:	b29b      	uxth	r3, r3
 80009f6:	8293      	strh	r3, [r2, #20]

	NVIC_EnableIRQ(USART3_IRQn);
 80009f8:	2027      	movs	r0, #39	; 0x27
 80009fa:	f7ff ff39 	bl	8000870 <NVIC_EnableIRQ>
}
 80009fe:	bd80      	pop	{r7, pc}
 8000a00:	40023800 	.word	0x40023800
 8000a04:	40020c00 	.word	0x40020c00
 8000a08:	00071202 	.word	0x00071202
 8000a0c:	40004800 	.word	0x40004800

08000a10 <Serial_Putc>:

	return ch;
}

void Serial_Putc(char c)
{
 8000a10:	b480      	push	{r7}
 8000a12:	b083      	sub	sp, #12
 8000a14:	af00      	add	r7, sp, #0
 8000a16:	4603      	mov	r3, r0
 8000a18:	71fb      	strb	r3, [r7, #7]
	while(txQueueTail - txQueueHead == TX_BUFFER_SIZE - 1);
 8000a1a:	bf00      	nop
 8000a1c:	4b0e      	ldr	r3, [pc, #56]	; (8000a58 <Serial_Putc+0x48>)
 8000a1e:	681a      	ldr	r2, [r3, #0]
 8000a20:	4b0e      	ldr	r3, [pc, #56]	; (8000a5c <Serial_Putc+0x4c>)
 8000a22:	681b      	ldr	r3, [r3, #0]
 8000a24:	1ad3      	subs	r3, r2, r3
 8000a26:	2b7f      	cmp	r3, #127	; 0x7f
 8000a28:	d0f8      	beq.n	8000a1c <Serial_Putc+0xc>

	txQueueData[++txQueueHead % TX_BUFFER_SIZE] = c;
 8000a2a:	4b0c      	ldr	r3, [pc, #48]	; (8000a5c <Serial_Putc+0x4c>)
 8000a2c:	681b      	ldr	r3, [r3, #0]
 8000a2e:	3301      	adds	r3, #1
 8000a30:	4a0a      	ldr	r2, [pc, #40]	; (8000a5c <Serial_Putc+0x4c>)
 8000a32:	6013      	str	r3, [r2, #0]
 8000a34:	f003 037f 	and.w	r3, r3, #127	; 0x7f
 8000a38:	4909      	ldr	r1, [pc, #36]	; (8000a60 <Serial_Putc+0x50>)
 8000a3a:	79fa      	ldrb	r2, [r7, #7]
 8000a3c:	54ca      	strb	r2, [r1, r3]
	USART3->CR1 |= USART_CR1_TXEIE;
 8000a3e:	4a09      	ldr	r2, [pc, #36]	; (8000a64 <Serial_Putc+0x54>)
 8000a40:	4b08      	ldr	r3, [pc, #32]	; (8000a64 <Serial_Putc+0x54>)
 8000a42:	899b      	ldrh	r3, [r3, #12]
 8000a44:	b29b      	uxth	r3, r3
 8000a46:	f043 0380 	orr.w	r3, r3, #128	; 0x80
 8000a4a:	b29b      	uxth	r3, r3
 8000a4c:	8193      	strh	r3, [r2, #12]
}
 8000a4e:	370c      	adds	r7, #12
 8000a50:	46bd      	mov	sp, r7
 8000a52:	f85d 7b04 	ldr.w	r7, [sp], #4
 8000a56:	4770      	bx	lr
 8000a58:	20000290 	.word	0x20000290
 8000a5c:	2000028c 	.word	0x2000028c
 8000a60:	2000020c 	.word	0x2000020c
 8000a64:	40004800 	.word	0x40004800

08000a68 <Serial_Puts>:

void Serial_Puts(char *s)
{
 8000a68:	b580      	push	{r7, lr}
 8000a6a:	b082      	sub	sp, #8
 8000a6c:	af00      	add	r7, sp, #0
 8000a6e:	6078      	str	r0, [r7, #4]
	while (*s)
 8000a70:	e006      	b.n	8000a80 <Serial_Puts+0x18>
		Serial_Putc(*s++);
 8000a72:	687b      	ldr	r3, [r7, #4]
 8000a74:	1c5a      	adds	r2, r3, #1
 8000a76:	607a      	str	r2, [r7, #4]
 8000a78:	781b      	ldrb	r3, [r3, #0]
 8000a7a:	4618      	mov	r0, r3
 8000a7c:	f7ff ffc8 	bl	8000a10 <Serial_Putc>
	USART3->CR1 |= USART_CR1_TXEIE;
}

void Serial_Puts(char *s)
{
	while (*s)
 8000a80:	687b      	ldr	r3, [r7, #4]
 8000a82:	781b      	ldrb	r3, [r3, #0]
 8000a84:	2b00      	cmp	r3, #0
 8000a86:	d1f4      	bne.n	8000a72 <Serial_Puts+0xa>
		Serial_Putc(*s++);
}
 8000a88:	3708      	adds	r7, #8
 8000a8a:	46bd      	mov	sp, r7
 8000a8c:	bd80      	pop	{r7, pc}
 8000a8e:	bf00      	nop

08000a90 <ADC_IRQHandler>:
* own handler defined.
*//*-------------------------------------------------------------------------*/

static void __Default_Handler(void) __attribute__ ((interrupt));
static void __Default_Handler(void)
{
 8000a90:	4668      	mov	r0, sp
 8000a92:	f020 0107 	bic.w	r1, r0, #7
 8000a96:	468d      	mov	sp, r1
 8000a98:	b481      	push	{r0, r7}
 8000a9a:	af00      	add	r7, sp, #0
	while (1);
 8000a9c:	e7fe      	b.n	8000a9c <ADC_IRQHandler+0xc>
 8000a9e:	bf00      	nop
 8000aa0:	5d6b6f5b 	.word	0x5d6b6f5b
 8000aa4:	41535520 	.word	0x41535520
 8000aa8:	0d335452 	.word	0x0d335452
 8000aac:	0000000a 	.word	0x0000000a
