ARM GAS  C:\Users\Daro\AppData\Local\Temp\ccRE8GLX.s 			page 1


   1              		.syntax unified
   2              		.cpu cortex-m4
   3              		.eabi_attribute 27, 3	@ Tag_ABI_HardFP_use
   4              		.eabi_attribute 28, 1	@ Tag_ABI_VFP_args
   5              		.fpu fpv4-sp-d16
   6              		.eabi_attribute 23, 1	@ Tag_ABI_FP_number_model
   7              		.eabi_attribute 24, 1	@ Tag_ABI_align8_needed
   8              		.eabi_attribute 25, 1	@ Tag_ABI_align8_preserved
   9              		.eabi_attribute 26, 1	@ Tag_ABI_enum_size
  10              		.eabi_attribute 30, 6	@ Tag_ABI_optimization_goals
  11              		.eabi_attribute 34, 1	@ Tag_CPU_unaligned_access
  12              		.eabi_attribute 18, 4	@ Tag_ABI_PCS_wchar_t
  13              		.file	"gpio.c"
  14              	@ GNU C (GNU Tools for ARM Embedded Processors / bleeding-edge-toolchain-131228) version 4.8.3 2013
  15              	@	compiled by GNU C version 4.8.2, GMP version 5.1.3, MPFR version 3.1.2, MPC version 1.0.1
  16              	@ GGC heuristics: --param ggc-min-expand=100 --param ggc-min-heapsize=131072
  17              	@ options passed:  -I . -I I:\arm\lib\cmsis -I I:\arm\lib\stm32f4xx
  18              	@ -I include -imultilib armv7e-m/fpu
  19              	@ -iprefix i:\arm\toolchains\gcc-arm-none-eabi-4_8-131228\bin\../lib/gcc/arm-none-eabi/4.8.3/
  20              	@ -isysroot i:\arm\toolchains\gcc-arm-none-eabi-4_8-131228\bin\../arm-none-eabi
  21              	@ -MD bin/gpio.d -MF bin/gpio.d -MP -MQ bin/gpio.o -D__USES_INITFINI__
  22              	@ -D STM32F4XX src/gpio.c -mcpu=cortex-m4 -mthumb -mfloat-abi=hard
  23              	@ -mfpu=fpv4-sp-d16 -auxbase-strip bin/gpio.o -g -ggdb3 -O0 -Wall
  24              	@ -Wstrict-prototypes -Wextra -std=c99 -ffast-math -fno-builtin
  25              	@ -ffunction-sections -fdata-sections -fverbose-asm
  26              	@ options enabled:  -faggressive-loop-optimizations -fassociative-math
  27              	@ -fauto-inc-dec -fbranch-count-reg -fcommon -fcx-limited-range
  28              	@ -fdata-sections -fdelete-null-pointer-checks -fdwarf2-cfi-asm
  29              	@ -fearly-inlining -feliminate-unused-debug-types -ffinite-math-only
  30              	@ -ffunction-cse -ffunction-sections -fgcse-lm -fgnu-runtime -fident
  31              	@ -finline-atomics -fira-hoist-pressure -fira-share-save-slots
  32              	@ -fira-share-spill-slots -fivopts -fkeep-static-consts
  33              	@ -fleading-underscore -fmerge-debug-strings -fmove-loop-invariants
  34              	@ -fpeephole -fprefetch-loop-arrays -freciprocal-math -freg-struct-return
  35              	@ -fsched-critical-path-heuristic -fsched-dep-count-heuristic
  36              	@ -fsched-group-heuristic -fsched-interblock -fsched-last-insn-heuristic
  37              	@ -fsched-rank-heuristic -fsched-spec -fsched-spec-insn-heuristic
  38              	@ -fsched-stalled-insns-dep -fshow-column -fsplit-ivs-in-unroller
  39              	@ -fstrict-volatile-bitfields -fsync-libcalls -ftree-coalesce-vars
  40              	@ -ftree-cselim -ftree-forwprop -ftree-loop-if-convert -ftree-loop-im
  41              	@ -ftree-loop-ivcanon -ftree-loop-optimize -ftree-parallelize-loops=
  42              	@ -ftree-phiprop -ftree-pta -ftree-reassoc -ftree-scev-cprop
  43              	@ -ftree-slp-vectorize -ftree-vect-loop-version -funit-at-a-time
  44              	@ -funsafe-math-optimizations -fverbose-asm -fzero-initialized-in-bss
  45              	@ -mlittle-endian -mpic-data-is-text-relative -msched-prolog -mthumb
  46              	@ -munaligned-access -mvectorize-with-neon-quad
  47              	
  48              		.text
  49              	.Ltext0:
  50              		.cfi_sections	.debug_frame
  51              		.section	.text.GPIO_InitAll,"ax",%progbits
  52              		.align	2
  53              		.global	GPIO_InitAll
  54              		.thumb
  55              		.thumb_func
  56              		.type	GPIO_InitAll, %function
  57              	GPIO_InitAll:
ARM GAS  C:\Users\Daro\AppData\Local\Temp\ccRE8GLX.s 			page 2


  58              	.LFB110:
  59              		.file 1 "src/gpio.c"
   1:src/gpio.c    **** /** \file gpio.c
   2:src/gpio.c    ****  * \brief GPIO driver.
   3:src/gpio.c    ****  * \details GPIO default configuration and function for configuring a pin
   4:src/gpio.c    ****  * \author Freddie Chopin, http://www.freddiechopin.info/
   5:src/gpio.c    ****  * \date 2012-03-17
   6:src/gpio.c    ****  */
   7:src/gpio.c    **** 
   8:src/gpio.c    **** /*
   9:src/gpio.c    **** +=============================================================================+
  10:src/gpio.c    **** | includes
  11:src/gpio.c    **** +=============================================================================+
  12:src/gpio.c    **** */
  13:src/gpio.c    **** 
  14:src/gpio.c    **** #include <stdint.h>
  15:src/gpio.c    **** #include <stm32f4xx.h>
  16:src/gpio.c    **** 
  17:src/gpio.c    **** #include "include/gpio.h"
  18:src/gpio.c    **** 
  19:src/gpio.c    **** /*
  20:src/gpio.c    **** +=============================================================================+
  21:src/gpio.c    **** | local definitions
  22:src/gpio.c    **** +=============================================================================+
  23:src/gpio.c    **** */
  24:src/gpio.c    **** 
  25:src/gpio.c    **** #define GPIO_GET_MODER(combination)			(((combination) & 0xF) >> 0)
  26:src/gpio.c    **** #define GPIO_GET_OTYPER(combination)		(((combination) & 0xF0) >> 4)
  27:src/gpio.c    **** #define GPIO_GET_OSPEEDR(combination)		(((combination) & 0xF00) >> 8)
  28:src/gpio.c    **** #define GPIO_GET_PUPDR(combination)			(((combination) & 0xF000) >> 12)
  29:src/gpio.c    **** #define GPIO_GET_AFR(combination)			(((combination) & 0xF0000) >> 16)
  30:src/gpio.c    **** 
  31:src/gpio.c    **** /*------------------------------------------------------------------------*//**
  32:src/gpio.c    **** * \brief GPIO initialization.
  33:src/gpio.c    **** * \details Enables all GPIO ports.
  34:src/gpio.c    **** *//*-------------------------------------------------------------------------*/
  35:src/gpio.c    **** 
  36:src/gpio.c    **** void GPIO_InitAll(void)
  37:src/gpio.c    **** {
  60              		.loc 1 37 0
  61              		.cfi_startproc
  62              		@ args = 0, pretend = 0, frame = 0
  63              		@ frame_needed = 1, uses_anonymous_args = 0
  64              		@ link register save eliminated.
  65 0000 80B4     		push	{r7}	@
  66              		.cfi_def_cfa_offset 4
  67              		.cfi_offset 7, -4
  68 0002 00AF     		add	r7, sp, #0	@,,
  69              		.cfi_def_cfa_register 7
  38:src/gpio.c    **** 	RCC->AHB1ENR |=
  70              		.loc 1 38 0
  71 0004 054A     		ldr	r2, .L2	@ D.4987,
  72 0006 054B     		ldr	r3, .L2	@ D.4987,
  73 0008 1B6B     		ldr	r3, [r3, #48]	@ D.4988, _2->AHB1ENR
  74 000a 6FEA5323 		mvn	r3, r3, lsr #9	@ D.4988, D.4988,
  75 000e 6FEA4323 		mvn	r3, r3, lsl #9	@ D.4988, D.4988,
  76 0012 1363     		str	r3, [r2, #48]	@ D.4988, _1->AHB1ENR
ARM GAS  C:\Users\Daro\AppData\Local\Temp\ccRE8GLX.s 			page 3


  39:src/gpio.c    **** 		RCC_AHB1ENR_GPIOAEN |
  40:src/gpio.c    **** 		RCC_AHB1ENR_GPIOBEN |
  41:src/gpio.c    **** 		RCC_AHB1ENR_GPIOCEN |
  42:src/gpio.c    **** 		RCC_AHB1ENR_GPIODEN |
  43:src/gpio.c    **** 		RCC_AHB1ENR_GPIOEEN |
  44:src/gpio.c    **** 		RCC_AHB1ENR_GPIOFEN |
  45:src/gpio.c    **** 		RCC_AHB1ENR_GPIOGEN |
  46:src/gpio.c    **** 		RCC_AHB1ENR_GPIOHEN |
  47:src/gpio.c    **** 		RCC_AHB1ENR_GPIOIEN; // enable all possible GPIO ports
  48:src/gpio.c    **** }
  77              		.loc 1 48 0
  78 0014 BD46     		mov	sp, r7	@,
  79              		@ sp needed	@
  80 0016 5DF8047B 		ldr	r7, [sp], #4	@,
  81 001a 7047     		bx	lr	@
  82              	.L3:
  83              		.align	2
  84              	.L2:
  85 001c 00380240 		.word	1073887232
  86              		.cfi_endproc
  87              	.LFE110:
  88              		.size	GPIO_InitAll, .-GPIO_InitAll
  89              		.section	.text.GPIO_ConfigPin,"ax",%progbits
  90              		.align	2
  91              		.global	GPIO_ConfigPin
  92              		.thumb
  93              		.thumb_func
  94              		.type	GPIO_ConfigPin, %function
  95              	GPIO_ConfigPin:
  96              	.LFB111:
  49:src/gpio.c    **** 
  50:src/gpio.c    **** /*------------------------------------------------------------------------*//**
  51:src/gpio.c    **** * \brief Configures pin.
  52:src/gpio.c    **** * \details Configures one pin in one port.
  53:src/gpio.c    **** *
  54:src/gpio.c    **** * \param [in] port_ptr points to the configuration structure of desired port
  55:src/gpio.c    **** * \param [in] pin selects one pin, [0; 15]
  56:src/gpio.c    **** * \param [in] configuration is a combined value of MODER, OTYPER, OSPEEDR,
  57:src/gpio.c    **** * PUPDR and AFRx register bitfields, allowed values
  58:src/gpio.c    **** * {GPIO_IN_FLOATING, GPIO_IN_PULL_UP, GPIO_IN_PULL_DOWN,
  59:src/gpio.c    **** * GPIO_OUT_{PP, OD}_{2MHz, 25MHz, 50MHz, 100MHz},
  60:src/gpio.c    **** * GPIO_OUT_{PP, OD}_{2MHz, 25MHz, 50MHz, 100MHz}_{PULL_UP, PULL_DOWN},
  61:src/gpio.c    **** * GPIO_[AF0; AF15]_{PP, OD}_{2MHz, 25MHz, 50MHz, 100MHz},
  62:src/gpio.c    **** * GPIO_[AF0; AF15]_{PP, OD}_{2MHz, 25MHz, 50MHz, 100MHz}_{PULL_UP, PULL_DOWN},
  63:src/gpio.c    **** * GPIO_ANALOG}
  64:src/gpio.c    **** *//*-------------------------------------------------------------------------*/
  65:src/gpio.c    **** 
  66:src/gpio.c    **** void GPIO_ConfigPin(GPIO_TypeDef *port_ptr, uint32_t pin, uint32_t configuration)
  67:src/gpio.c    **** {
  97              		.loc 1 67 0
  98              		.cfi_startproc
  99              		@ args = 0, pretend = 0, frame = 40
 100              		@ frame_needed = 1, uses_anonymous_args = 0
 101              		@ link register save eliminated.
 102 0000 80B4     		push	{r7}	@
 103              		.cfi_def_cfa_offset 4
 104              		.cfi_offset 7, -4
ARM GAS  C:\Users\Daro\AppData\Local\Temp\ccRE8GLX.s 			page 4


 105 0002 8BB0     		sub	sp, sp, #44	@,,
 106              		.cfi_def_cfa_offset 48
 107 0004 00AF     		add	r7, sp, #0	@,,
 108              		.cfi_def_cfa_register 7
 109 0006 F860     		str	r0, [r7, #12]	@ port_ptr, port_ptr
 110 0008 B960     		str	r1, [r7, #8]	@ pin, pin
 111 000a 7A60     		str	r2, [r7, #4]	@ configuration, configuration
  68:src/gpio.c    **** 	uint32_t moder, otyper, ospeedr, pupdr, afr, afrx;
  69:src/gpio.c    **** 
  70:src/gpio.c    **** 	moder = port_ptr->MODER;				// localize
 112              		.loc 1 70 0
 113 000c FB68     		ldr	r3, [r7, #12]	@ tmp157, port_ptr
 114 000e 1B68     		ldr	r3, [r3]	@ tmp158, port_ptr_3(D)->MODER
 115 0010 3B62     		str	r3, [r7, #32]	@ tmp158, moder
  71:src/gpio.c    **** 	moder &= ~(GPIO_MODER_mask << (pin * 2));	// clear current setting
 116              		.loc 1 71 0
 117 0012 BB68     		ldr	r3, [r7, #8]	@ tmp159, pin
 118 0014 5B00     		lsls	r3, r3, #1	@ D.4989, tmp159,
 119 0016 0322     		movs	r2, #3	@ tmp160,
 120 0018 02FA03F3 		lsl	r3, r2, r3	@ D.4990, tmp160, D.4990
 121 001c DB43     		mvns	r3, r3	@ D.4990, D.4990
 122 001e 3A6A     		ldr	r2, [r7, #32]	@ tmp162, moder
 123 0020 1340     		ands	r3, r3, r2	@, tmp161, D.4989, tmp162
 124 0022 3B62     		str	r3, [r7, #32]	@ tmp161, moder
  72:src/gpio.c    **** 	moder |= (GPIO_GET_MODER(configuration) << (pin * 2));	// apply new setting
 125              		.loc 1 72 0
 126 0024 7B68     		ldr	r3, [r7, #4]	@ tmp163, configuration
 127 0026 03F00F02 		and	r2, r3, #15	@ D.4989, tmp163,
 128 002a BB68     		ldr	r3, [r7, #8]	@ tmp164, pin
 129 002c 5B00     		lsls	r3, r3, #1	@ D.4989, tmp164,
 130 002e 02FA03F3 		lsl	r3, r2, r3	@ D.4989, D.4989, D.4990
 131 0032 3A6A     		ldr	r2, [r7, #32]	@ tmp166, moder
 132 0034 1343     		orrs	r3, r3, r2	@, tmp165, D.4989, tmp166
 133 0036 3B62     		str	r3, [r7, #32]	@ tmp165, moder
  73:src/gpio.c    **** 	port_ptr->MODER = moder;				// save back
 134              		.loc 1 73 0
 135 0038 FB68     		ldr	r3, [r7, #12]	@ tmp167, port_ptr
 136 003a 3A6A     		ldr	r2, [r7, #32]	@ tmp168, moder
 137 003c 1A60     		str	r2, [r3]	@ tmp168, port_ptr_3(D)->MODER
  74:src/gpio.c    **** 
  75:src/gpio.c    **** 	otyper = port_ptr->OTYPER;				// localize
 138              		.loc 1 75 0
 139 003e FB68     		ldr	r3, [r7, #12]	@ tmp169, port_ptr
 140 0040 5B68     		ldr	r3, [r3, #4]	@ tmp170, port_ptr_3(D)->OTYPER
 141 0042 FB61     		str	r3, [r7, #28]	@ tmp170, otyper
  76:src/gpio.c    **** 	otyper &= ~(GPIO_OTYPER_mask << pin);	// clear current setting
 142              		.loc 1 76 0
 143 0044 BB68     		ldr	r3, [r7, #8]	@ pin.0, pin
 144 0046 0122     		movs	r2, #1	@ tmp171,
 145 0048 02FA03F3 		lsl	r3, r2, r3	@ D.4990, tmp171, pin.0
 146 004c DB43     		mvns	r3, r3	@ D.4990, D.4990
 147 004e FA69     		ldr	r2, [r7, #28]	@ tmp173, otyper
 148 0050 1340     		ands	r3, r3, r2	@, tmp172, D.4989, tmp173
 149 0052 FB61     		str	r3, [r7, #28]	@ tmp172, otyper
  77:src/gpio.c    **** 	otyper |= (GPIO_GET_OTYPER(configuration) << pin);	// apply new setting
 150              		.loc 1 77 0
 151 0054 7B68     		ldr	r3, [r7, #4]	@ tmp174, configuration
ARM GAS  C:\Users\Daro\AppData\Local\Temp\ccRE8GLX.s 			page 5


 152 0056 03F0F003 		and	r3, r3, #240	@ D.4989, tmp174,
 153 005a 1A09     		lsrs	r2, r3, #4	@ D.4989, D.4989,
 154 005c BB68     		ldr	r3, [r7, #8]	@ pin.1, pin
 155 005e 02FA03F3 		lsl	r3, r2, r3	@ D.4989, D.4989, pin.1
 156 0062 FA69     		ldr	r2, [r7, #28]	@ tmp176, otyper
 157 0064 1343     		orrs	r3, r3, r2	@, tmp175, D.4989, tmp176
 158 0066 FB61     		str	r3, [r7, #28]	@ tmp175, otyper
  78:src/gpio.c    **** 	port_ptr->OTYPER = otyper;				// save back
 159              		.loc 1 78 0
 160 0068 FB68     		ldr	r3, [r7, #12]	@ tmp177, port_ptr
 161 006a FA69     		ldr	r2, [r7, #28]	@ tmp178, otyper
 162 006c 5A60     		str	r2, [r3, #4]	@ tmp178, port_ptr_3(D)->OTYPER
  79:src/gpio.c    **** 
  80:src/gpio.c    **** 	ospeedr = port_ptr->OSPEEDR;				// localize
 163              		.loc 1 80 0
 164 006e FB68     		ldr	r3, [r7, #12]	@ tmp179, port_ptr
 165 0070 9B68     		ldr	r3, [r3, #8]	@ tmp180, port_ptr_3(D)->OSPEEDR
 166 0072 BB61     		str	r3, [r7, #24]	@ tmp180, ospeedr
  81:src/gpio.c    **** 	ospeedr &= ~(GPIO_OSPEEDR_mask << (pin * 2));	// clear current setting
 167              		.loc 1 81 0
 168 0074 BB68     		ldr	r3, [r7, #8]	@ tmp181, pin
 169 0076 5B00     		lsls	r3, r3, #1	@ D.4989, tmp181,
 170 0078 0322     		movs	r2, #3	@ tmp182,
 171 007a 02FA03F3 		lsl	r3, r2, r3	@ D.4990, tmp182, D.4990
 172 007e DB43     		mvns	r3, r3	@ D.4990, D.4990
 173 0080 BA69     		ldr	r2, [r7, #24]	@ tmp184, ospeedr
 174 0082 1340     		ands	r3, r3, r2	@, tmp183, D.4989, tmp184
 175 0084 BB61     		str	r3, [r7, #24]	@ tmp183, ospeedr
  82:src/gpio.c    **** 	ospeedr |= (GPIO_GET_OSPEEDR(configuration) << (pin * 2));	// apply new setting
 176              		.loc 1 82 0
 177 0086 7B68     		ldr	r3, [r7, #4]	@ tmp185, configuration
 178 0088 03F47063 		and	r3, r3, #3840	@ D.4989, tmp185,
 179 008c 1A0A     		lsrs	r2, r3, #8	@ D.4989, D.4989,
 180 008e BB68     		ldr	r3, [r7, #8]	@ tmp186, pin
 181 0090 5B00     		lsls	r3, r3, #1	@ D.4989, tmp186,
 182 0092 02FA03F3 		lsl	r3, r2, r3	@ D.4989, D.4989, D.4990
 183 0096 BA69     		ldr	r2, [r7, #24]	@ tmp188, ospeedr
 184 0098 1343     		orrs	r3, r3, r2	@, tmp187, D.4989, tmp188
 185 009a BB61     		str	r3, [r7, #24]	@ tmp187, ospeedr
  83:src/gpio.c    **** 	port_ptr->OSPEEDR = ospeedr;				// save back
 186              		.loc 1 83 0
 187 009c FB68     		ldr	r3, [r7, #12]	@ tmp189, port_ptr
 188 009e BA69     		ldr	r2, [r7, #24]	@ tmp190, ospeedr
 189 00a0 9A60     		str	r2, [r3, #8]	@ tmp190, port_ptr_3(D)->OSPEEDR
  84:src/gpio.c    **** 
  85:src/gpio.c    **** 	pupdr = port_ptr->PUPDR;				// localize
 190              		.loc 1 85 0
 191 00a2 FB68     		ldr	r3, [r7, #12]	@ tmp191, port_ptr
 192 00a4 DB68     		ldr	r3, [r3, #12]	@ tmp192, port_ptr_3(D)->PUPDR
 193 00a6 7B61     		str	r3, [r7, #20]	@ tmp192, pupdr
  86:src/gpio.c    **** 	pupdr &= ~(GPIO_PUPDR_mask << (pin * 2));	// clear current setting
 194              		.loc 1 86 0
 195 00a8 BB68     		ldr	r3, [r7, #8]	@ tmp193, pin
 196 00aa 5B00     		lsls	r3, r3, #1	@ D.4989, tmp193,
 197 00ac 0322     		movs	r2, #3	@ tmp194,
 198 00ae 02FA03F3 		lsl	r3, r2, r3	@ D.4990, tmp194, D.4990
 199 00b2 DB43     		mvns	r3, r3	@ D.4990, D.4990
ARM GAS  C:\Users\Daro\AppData\Local\Temp\ccRE8GLX.s 			page 6


 200 00b4 7A69     		ldr	r2, [r7, #20]	@ tmp196, pupdr
 201 00b6 1340     		ands	r3, r3, r2	@, tmp195, D.4989, tmp196
 202 00b8 7B61     		str	r3, [r7, #20]	@ tmp195, pupdr
  87:src/gpio.c    **** 	pupdr |= (GPIO_GET_PUPDR(configuration) << (pin * 2));	// apply new setting
 203              		.loc 1 87 0
 204 00ba 7B68     		ldr	r3, [r7, #4]	@ tmp197, configuration
 205 00bc 03F47043 		and	r3, r3, #61440	@ D.4989, tmp197,
 206 00c0 1A0B     		lsrs	r2, r3, #12	@ D.4989, D.4989,
 207 00c2 BB68     		ldr	r3, [r7, #8]	@ tmp198, pin
 208 00c4 5B00     		lsls	r3, r3, #1	@ D.4989, tmp198,
 209 00c6 02FA03F3 		lsl	r3, r2, r3	@ D.4989, D.4989, D.4990
 210 00ca 7A69     		ldr	r2, [r7, #20]	@ tmp200, pupdr
 211 00cc 1343     		orrs	r3, r3, r2	@, tmp199, D.4989, tmp200
 212 00ce 7B61     		str	r3, [r7, #20]	@ tmp199, pupdr
  88:src/gpio.c    **** 	port_ptr->PUPDR = pupdr;				// save back
 213              		.loc 1 88 0
 214 00d0 FB68     		ldr	r3, [r7, #12]	@ tmp201, port_ptr
 215 00d2 7A69     		ldr	r2, [r7, #20]	@ tmp202, pupdr
 216 00d4 DA60     		str	r2, [r3, #12]	@ tmp202, port_ptr_3(D)->PUPDR
  89:src/gpio.c    **** 
  90:src/gpio.c    **** 	if (pin < 8)							// determine which AFR register should be used
 217              		.loc 1 90 0
 218 00d6 BB68     		ldr	r3, [r7, #8]	@ tmp203, pin
 219 00d8 072B     		cmp	r3, #7	@ tmp203,
 220 00da 02D8     		bhi	.L5	@,
  91:src/gpio.c    **** 		afrx = 0;							// AFRL - pins [0; 7]
 221              		.loc 1 91 0
 222 00dc 0023     		movs	r3, #0	@ tmp204,
 223 00de 7B62     		str	r3, [r7, #36]	@ tmp204, afrx
 224 00e0 04E0     		b	.L6	@
 225              	.L5:
  92:src/gpio.c    **** 	else
  93:src/gpio.c    **** 	{
  94:src/gpio.c    **** 		afrx = 1;							// AFRH - pins [8; 15]
 226              		.loc 1 94 0
 227 00e2 0123     		movs	r3, #1	@ tmp205,
 228 00e4 7B62     		str	r3, [r7, #36]	@ tmp205, afrx
  95:src/gpio.c    **** 		pin -= 8;							// trim pin number
 229              		.loc 1 95 0
 230 00e6 BB68     		ldr	r3, [r7, #8]	@ tmp207, pin
 231 00e8 083B     		subs	r3, r3, #8	@ tmp206, tmp207,
 232 00ea BB60     		str	r3, [r7, #8]	@ tmp206, pin
 233              	.L6:
  96:src/gpio.c    **** 	}
  97:src/gpio.c    **** 
  98:src/gpio.c    **** 	afr = port_ptr->AFR[afrx];				// localize
 234              		.loc 1 98 0
 235 00ec FB68     		ldr	r3, [r7, #12]	@ tmp208, port_ptr
 236 00ee 7A6A     		ldr	r2, [r7, #36]	@ tmp210, afrx
 237 00f0 0832     		adds	r2, r2, #8	@ tmp209, tmp210,
 238 00f2 53F82230 		ldr	r3, [r3, r2, lsl #2]	@ tmp211, port_ptr_3(D)->AFR
 239 00f6 3B61     		str	r3, [r7, #16]	@ tmp211, afr
  99:src/gpio.c    **** 	afr &= ~(GPIO_AFRx_mask << (pin * 4));	// clear current setting
 240              		.loc 1 99 0
 241 00f8 BB68     		ldr	r3, [r7, #8]	@ tmp212, pin
 242 00fa 9B00     		lsls	r3, r3, #2	@ D.4989, tmp212,
 243 00fc 0F22     		movs	r2, #15	@ tmp213,
ARM GAS  C:\Users\Daro\AppData\Local\Temp\ccRE8GLX.s 			page 7


 244 00fe 02FA03F3 		lsl	r3, r2, r3	@ D.4990, tmp213, D.4990
 245 0102 DB43     		mvns	r3, r3	@ D.4990, D.4990
 246 0104 3A69     		ldr	r2, [r7, #16]	@ tmp215, afr
 247 0106 1340     		ands	r3, r3, r2	@, tmp214, D.4989, tmp215
 248 0108 3B61     		str	r3, [r7, #16]	@ tmp214, afr
 100:src/gpio.c    **** 	afr |= (GPIO_GET_AFR(configuration) << (pin * 4));	// apply new setting
 249              		.loc 1 100 0
 250 010a 7B68     		ldr	r3, [r7, #4]	@ tmp216, configuration
 251 010c 03F47023 		and	r3, r3, #983040	@ D.4989, tmp216,
 252 0110 1A0C     		lsrs	r2, r3, #16	@ D.4989, D.4989,
 253 0112 BB68     		ldr	r3, [r7, #8]	@ tmp217, pin
 254 0114 9B00     		lsls	r3, r3, #2	@ D.4989, tmp217,
 255 0116 02FA03F3 		lsl	r3, r2, r3	@ D.4989, D.4989, D.4990
 256 011a 3A69     		ldr	r2, [r7, #16]	@ tmp219, afr
 257 011c 1343     		orrs	r3, r3, r2	@, tmp218, D.4989, tmp219
 258 011e 3B61     		str	r3, [r7, #16]	@ tmp218, afr
 101:src/gpio.c    **** 	port_ptr->AFR[afrx] = afr;				// save back
 259              		.loc 1 101 0
 260 0120 FB68     		ldr	r3, [r7, #12]	@ tmp220, port_ptr
 261 0122 7A6A     		ldr	r2, [r7, #36]	@ tmp222, afrx
 262 0124 0832     		adds	r2, r2, #8	@ tmp221, tmp222,
 263 0126 3969     		ldr	r1, [r7, #16]	@ tmp223, afr
 264 0128 43F82210 		str	r1, [r3, r2, lsl #2]	@ tmp223, port_ptr_3(D)->AFR
 102:src/gpio.c    **** 
 103:src/gpio.c    **** }
 265              		.loc 1 103 0
 266 012c 2C37     		adds	r7, r7, #44	@,,
 267 012e BD46     		mov	sp, r7	@,
 268              		@ sp needed	@
 269 0130 5DF8047B 		ldr	r7, [sp], #4	@,
 270 0134 7047     		bx	lr	@
 271              		.cfi_endproc
 272              	.LFE111:
 273              		.size	GPIO_ConfigPin, .-GPIO_ConfigPin
 274 0136 00BF     		.text
 275              	.Letext0:
 276              		.file 2 "i:\\arm\\toolchains\\gcc-arm-none-eabi-4_8-131228\\arm-none-eabi\\include\\machine\\_defa
 277              		.file 3 "i:\\arm\\toolchains\\gcc-arm-none-eabi-4_8-131228\\arm-none-eabi\\include\\stdint.h"
 278              		.file 4 "I:\\arm\\lib\\stm32f4xx/stm32f4xx.h"
 279              		.file 5 "I:\\arm\\lib\\cmsis/core_cm4.h"