ARM GAS  C:\Users\Daro\AppData\Local\Temp\cc83WZOx.s 			page 1


   1              		.syntax unified
   2              		.cpu cortex-m4
   3              		.eabi_attribute 27, 3	@ Tag_ABI_HardFP_use
   4              		.eabi_attribute 28, 1	@ Tag_ABI_VFP_args
   5              		.fpu fpv4-sp-d16
   6              		.eabi_attribute 23, 1	@ Tag_ABI_FP_number_model
   7              		.eabi_attribute 24, 1	@ Tag_ABI_align8_needed
   8              		.eabi_attribute 25, 1	@ Tag_ABI_align8_preserved
   9              		.eabi_attribute 26, 1	@ Tag_ABI_enum_size
  10              		.eabi_attribute 30, 6	@ Tag_ABI_optimization_goals
  11              		.eabi_attribute 34, 1	@ Tag_CPU_unaligned_access
  12              		.eabi_attribute 18, 4	@ Tag_ABI_PCS_wchar_t
  13              		.file	"main.c"
  14              	@ GNU C (GNU Tools for ARM Embedded Processors / bleeding-edge-toolchain-131228) version 4.8.3 2013
  15              	@	compiled by GNU C version 4.8.2, GMP version 5.1.3, MPFR version 3.1.2, MPC version 1.0.1
  16              	@ GGC heuristics: --param ggc-min-expand=100 --param ggc-min-heapsize=131072
  17              	@ options passed:  -I . -I I:\arm\lib\cmsis -I I:\arm\lib\stm32f4xx
  18              	@ -I include -imultilib armv7e-m/fpu
  19              	@ -iprefix i:\arm\toolchains\gcc-arm-none-eabi-4_8-131228\bin\../lib/gcc/arm-none-eabi/4.8.3/
  20              	@ -isysroot i:\arm\toolchains\gcc-arm-none-eabi-4_8-131228\bin\../arm-none-eabi
  21              	@ -MD bin/main.d -MF bin/main.d -MP -MQ bin/main.o -D__USES_INITFINI__
  22              	@ -D STM32F4XX src/main.c -mcpu=cortex-m4 -mthumb -mfloat-abi=hard
  23              	@ -mfpu=fpv4-sp-d16 -auxbase-strip bin/main.o -g -ggdb3 -O0 -Wall
  24              	@ -Wstrict-prototypes -Wextra -std=c99 -ffast-math -fno-builtin
  25              	@ -ffunction-sections -fdata-sections -fverbose-asm
  26              	@ options enabled:  -faggressive-loop-optimizations -fassociative-math
  27              	@ -fauto-inc-dec -fbranch-count-reg -fcommon -fcx-limited-range
  28              	@ -fdata-sections -fdelete-null-pointer-checks -fdwarf2-cfi-asm
  29              	@ -fearly-inlining -feliminate-unused-debug-types -ffinite-math-only
  30              	@ -ffunction-cse -ffunction-sections -fgcse-lm -fgnu-runtime -fident
  31              	@ -finline-atomics -fira-hoist-pressure -fira-share-save-slots
  32              	@ -fira-share-spill-slots -fivopts -fkeep-static-consts
  33              	@ -fleading-underscore -fmerge-debug-strings -fmove-loop-invariants
  34              	@ -fpeephole -fprefetch-loop-arrays -freciprocal-math -freg-struct-return
  35              	@ -fsched-critical-path-heuristic -fsched-dep-count-heuristic
  36              	@ -fsched-group-heuristic -fsched-interblock -fsched-last-insn-heuristic
  37              	@ -fsched-rank-heuristic -fsched-spec -fsched-spec-insn-heuristic
  38              	@ -fsched-stalled-insns-dep -fshow-column -fsplit-ivs-in-unroller
  39              	@ -fstrict-volatile-bitfields -fsync-libcalls -ftree-coalesce-vars
  40              	@ -ftree-cselim -ftree-forwprop -ftree-loop-if-convert -ftree-loop-im
  41              	@ -ftree-loop-ivcanon -ftree-loop-optimize -ftree-parallelize-loops=
  42              	@ -ftree-phiprop -ftree-pta -ftree-reassoc -ftree-scev-cprop
  43              	@ -ftree-slp-vectorize -ftree-vect-loop-version -funit-at-a-time
  44              	@ -funsafe-math-optimizations -fverbose-asm -fzero-initialized-in-bss
  45              	@ -mlittle-endian -mpic-data-is-text-relative -msched-prolog -mthumb
  46              	@ -munaligned-access -mvectorize-with-neon-quad
  47              	
  48              		.text
  49              	.Ltext0:
  50              		.cfi_sections	.debug_frame
  51              		.section	.bss.delay_counter,"aw",%nobits
  52              		.align	2
  53              		.type	delay_counter, %object
  54              		.size	delay_counter, 4
  55              	delay_counter:
  56 0000 00000000 		.space	4
  57              		.section	.text.spi_init,"ax",%progbits
ARM GAS  C:\Users\Daro\AppData\Local\Temp\cc83WZOx.s 			page 2


  58              		.align	2
  59              		.global	spi_init
  60              		.thumb
  61              		.thumb_func
  62              		.type	spi_init, %function
  63              	spi_init:
  64              	.LFB110:
  65              		.file 1 "src/main.c"
   1:src/main.c    **** #include <stdint.h>
   2:src/main.c    **** #include <stm32f4xx.h>
   3:src/main.c    **** #include "include/config.h"
   4:src/main.c    **** #include "include/gpio.h"
   5:src/main.c    **** #include "include/serial.h"
   6:src/main.c    **** #include "include/delay.h"
   7:src/main.c    **** 
   8:src/main.c    **** #define CS_1 GPIOE->ODR |= (1 << 3)
   9:src/main.c    **** #define CS_0 GPIOE->ODR &= ~(1 << 3)
  10:src/main.c    **** 
  11:src/main.c    **** #define LCD_CS_0 GPIOC->ODR |= (1 << 5)
  12:src/main.c    **** #define LCD_CS_1 GPIOC->ODR &= ~(1 << 5)
  13:src/main.c    **** 
  14:src/main.c    **** #define LCD_DC_0 GPIOC->ODR |= (1 << 4)
  15:src/main.c    **** #define LCD_DC_1 GPIOC->ODR &= ~(1 << 4)
  16:src/main.c    **** 
  17:src/main.c    **** typedef struct {
  18:src/main.c    **** 	uint8_t x;
  19:src/main.c    **** 	uint8_t y;
  20:src/main.c    **** 	uint8_t z;
  21:src/main.c    **** } acc_t;
  22:src/main.c    **** 
  23:src/main.c    **** void spi_init(void)
  24:src/main.c    **** {
  66              		.loc 1 24 0
  67              		.cfi_startproc
  68              		@ args = 0, pretend = 0, frame = 0
  69              		@ frame_needed = 1, uses_anonymous_args = 0
  70 0000 80B5     		push	{r7, lr}	@
  71              		.cfi_def_cfa_offset 8
  72              		.cfi_offset 7, -8
  73              		.cfi_offset 14, -4
  74 0002 00AF     		add	r7, sp, #0	@,,
  75              		.cfi_def_cfa_register 7
  25:src/main.c    **** 	RCC->APB2ENR |= RCC_APB2ENR_SPI1EN;
  76              		.loc 1 25 0
  77 0004 194B     		ldr	r3, .L2	@ D.5285,
  78 0006 194A     		ldr	r2, .L2	@ D.5285,
  79 0008 526C     		ldr	r2, [r2, #68]	@ D.5286, _2->APB2ENR
  80 000a 42F48052 		orr	r2, r2, #4096	@ D.5286, D.5286,
  81 000e 5A64     		str	r2, [r3, #68]	@ D.5286, _1->APB2ENR
  26:src/main.c    **** 
  27:src/main.c    **** 	GPIO_ConfigPin(GPIOA, 5, GPIO_AF5_PP_50MHz); // sck
  82              		.loc 1 27 0
  83 0010 1748     		ldr	r0, .L2+4	@,
  84 0012 0521     		movs	r1, #5	@,
  85 0014 174A     		ldr	r2, .L2+8	@,
  86 0016 FFF7FEFF 		bl	GPIO_ConfigPin	@
  28:src/main.c    **** 	GPIO_ConfigPin(GPIOA, 6, GPIO_AF5_PP_50MHz); // miso
ARM GAS  C:\Users\Daro\AppData\Local\Temp\cc83WZOx.s 			page 3


  87              		.loc 1 28 0
  88 001a 1548     		ldr	r0, .L2+4	@,
  89 001c 0621     		movs	r1, #6	@,
  90 001e 154A     		ldr	r2, .L2+8	@,
  91 0020 FFF7FEFF 		bl	GPIO_ConfigPin	@
  29:src/main.c    **** 	GPIO_ConfigPin(GPIOA, 7, GPIO_AF5_PP_50MHz); // mosi
  92              		.loc 1 29 0
  93 0024 1248     		ldr	r0, .L2+4	@,
  94 0026 0721     		movs	r1, #7	@,
  95 0028 124A     		ldr	r2, .L2+8	@,
  96 002a FFF7FEFF 		bl	GPIO_ConfigPin	@
  30:src/main.c    **** 	GPIO_ConfigPin(GPIOE, 3, GPIO_OUT_PP_50MHz); // cs
  97              		.loc 1 30 0
  98 002e 1248     		ldr	r0, .L2+12	@,
  99 0030 0321     		movs	r1, #3	@,
 100 0032 40F20122 		movw	r2, #513	@,
 101 0036 FFF7FEFF 		bl	GPIO_ConfigPin	@
  31:src/main.c    **** 	CS_1;
 102              		.loc 1 31 0
 103 003a 0F4B     		ldr	r3, .L2+12	@ D.5287,
 104 003c 0E4A     		ldr	r2, .L2+12	@ D.5287,
 105 003e 5269     		ldr	r2, [r2, #20]	@ D.5286, _6->ODR
 106 0040 42F00802 		orr	r2, r2, #8	@ D.5286, D.5286,
 107 0044 5A61     		str	r2, [r3, #20]	@ D.5286, _5->ODR
  32:src/main.c    **** 
  33:src/main.c    **** 	SPI1->CR1 |= SPI_CR1_MSTR | SPI_CR1_SSM | SPI_CR1_SSI | SPI_CR1_BR_1 | SPI_CR1_BR_0 | SPI_CR1_CPHA
 108              		.loc 1 33 0
 109 0046 0D4A     		ldr	r2, .L2+16	@ D.5288,
 110 0048 0C4B     		ldr	r3, .L2+16	@ D.5288,
 111 004a 1B88     		ldrh	r3, [r3]	@ movhi	@ tmp126, _10->CR1
 112 004c 9BB2     		uxth	r3, r3	@ D.5289, tmp126
 113 004e 43F44773 		orr	r3, r3, #796	@ tmp127, D.5289,
 114 0052 43F00303 		orr	r3, r3, #3	@ tmp127, tmp127,
 115 0056 9BB2     		uxth	r3, r3	@ D.5289, tmp127
 116 0058 1380     		strh	r3, [r2]	@ movhi	@ tmp128, _9->CR1
  34:src/main.c    **** 	SPI1->CR1 |= SPI_CR1_SPE;
 117              		.loc 1 34 0
 118 005a 084B     		ldr	r3, .L2+16	@ D.5288,
 119 005c 074A     		ldr	r2, .L2+16	@ D.5288,
 120 005e 1288     		ldrh	r2, [r2]	@ movhi	@ tmp129, _14->CR1
 121 0060 92B2     		uxth	r2, r2	@ D.5289, tmp129
 122 0062 42F04002 		orr	r2, r2, #64	@ tmp130, D.5289,
 123 0066 92B2     		uxth	r2, r2	@ D.5289, tmp130
 124 0068 1A80     		strh	r2, [r3]	@ movhi	@ tmp131, _13->CR1
  35:src/main.c    **** }
 125              		.loc 1 35 0
 126 006a 80BD     		pop	{r7, pc}	@
 127              	.L3:
 128              		.align	2
 129              	.L2:
 130 006c 00380240 		.word	1073887232
 131 0070 00000240 		.word	1073872896
 132 0074 02020500 		.word	328194
 133 0078 00100240 		.word	1073876992
 134 007c 00300140 		.word	1073819648
 135              		.cfi_endproc
 136              	.LFE110:
ARM GAS  C:\Users\Daro\AppData\Local\Temp\cc83WZOx.s 			page 4


 137              		.size	spi_init, .-spi_init
 138              		.section	.text.spi_transfer,"ax",%progbits
 139              		.align	2
 140              		.global	spi_transfer
 141              		.thumb
 142              		.thumb_func
 143              		.type	spi_transfer, %function
 144              	spi_transfer:
 145              	.LFB111:
  36:src/main.c    **** 
  37:src/main.c    **** uint8_t spi_transfer(uint8_t dane)
  38:src/main.c    **** {
 146              		.loc 1 38 0
 147              		.cfi_startproc
 148              		@ args = 0, pretend = 0, frame = 8
 149              		@ frame_needed = 1, uses_anonymous_args = 0
 150              		@ link register save eliminated.
 151 0000 80B4     		push	{r7}	@
 152              		.cfi_def_cfa_offset 4
 153              		.cfi_offset 7, -4
 154 0002 83B0     		sub	sp, sp, #12	@,,
 155              		.cfi_def_cfa_offset 16
 156 0004 00AF     		add	r7, sp, #0	@,,
 157              		.cfi_def_cfa_register 7
 158 0006 0346     		mov	r3, r0	@ tmp124, dane
 159 0008 FB71     		strb	r3, [r7, #7]	@ tmp125, dane
  39:src/main.c    **** 	while(!(SPI1->SR & SPI_SR_TXE));
 160              		.loc 1 39 0
 161 000a 00BF     		nop
 162              	.L5:
 163              		.loc 1 39 0 is_stmt 0 discriminator 1
 164 000c 0E4B     		ldr	r3, .L8	@ D.5290,
 165 000e 1B89     		ldrh	r3, [r3, #8]	@ movhi	@ tmp127, _1->SR
 166 0010 9BB2     		uxth	r3, r3	@ D.5291, tmp127
 167 0012 03F00203 		and	r3, r3, #2	@ D.5292, D.5292,
 168 0016 002B     		cmp	r3, #0	@ D.5292,
 169 0018 F8D0     		beq	.L5	@,
  40:src/main.c    **** 	SPI1->DR = dane;
 170              		.loc 1 40 0 is_stmt 1
 171 001a 0B4B     		ldr	r3, .L8	@ D.5290,
 172 001c FA79     		ldrb	r2, [r7, #7]	@ zero_extendqisi2	@ tmp129, dane
 173 001e 92B2     		uxth	r2, r2	@ D.5291, tmp128
 174 0020 9A81     		strh	r2, [r3, #12]	@ movhi	@ tmp130, _5->DR
  41:src/main.c    **** 
  42:src/main.c    **** 	while(!(SPI1->SR & SPI_SR_RXNE));
 175              		.loc 1 42 0
 176 0022 00BF     		nop
 177              	.L6:
 178              		.loc 1 42 0 is_stmt 0 discriminator 1
 179 0024 084B     		ldr	r3, .L8	@ D.5290,
 180 0026 1B89     		ldrh	r3, [r3, #8]	@ movhi	@ tmp132, _8->SR
 181 0028 9BB2     		uxth	r3, r3	@ D.5291, tmp132
 182 002a 03F00103 		and	r3, r3, #1	@ D.5292, D.5292,
 183 002e 002B     		cmp	r3, #0	@ D.5292,
 184 0030 F8D0     		beq	.L6	@,
  43:src/main.c    **** 	return SPI1->DR;
 185              		.loc 1 43 0 is_stmt 1
ARM GAS  C:\Users\Daro\AppData\Local\Temp\cc83WZOx.s 			page 5


 186 0032 054B     		ldr	r3, .L8	@ D.5290,
 187 0034 9B89     		ldrh	r3, [r3, #12]	@ movhi	@ tmp134, _12->DR
 188 0036 9BB2     		uxth	r3, r3	@ D.5291, tmp134
 189 0038 DBB2     		uxtb	r3, r3	@ D.5293, D.5291
  44:src/main.c    **** }
 190              		.loc 1 44 0
 191 003a 1846     		mov	r0, r3	@, <retval>
 192 003c 0C37     		adds	r7, r7, #12	@,,
 193 003e BD46     		mov	sp, r7	@,
 194              		@ sp needed	@
 195 0040 5DF8047B 		ldr	r7, [sp], #4	@,
 196 0044 7047     		bx	lr	@
 197              	.L9:
 198 0046 00BF     		.align	2
 199              	.L8:
 200 0048 00300140 		.word	1073819648
 201              		.cfi_endproc
 202              	.LFE111:
 203              		.size	spi_transfer, .-spi_transfer
 204              		.section	.text.mems_write,"ax",%progbits
 205              		.align	2
 206              		.global	mems_write
 207              		.thumb
 208              		.thumb_func
 209              		.type	mems_write, %function
 210              	mems_write:
 211              	.LFB112:
  45:src/main.c    **** 
  46:src/main.c    **** 
  47:src/main.c    **** 
  48:src/main.c    **** 
  49:src/main.c    **** void mems_write(uint8_t rejestr, uint8_t wartosc)
  50:src/main.c    **** {
 212              		.loc 1 50 0
 213              		.cfi_startproc
 214              		@ args = 0, pretend = 0, frame = 8
 215              		@ frame_needed = 1, uses_anonymous_args = 0
 216 0000 80B5     		push	{r7, lr}	@
 217              		.cfi_def_cfa_offset 8
 218              		.cfi_offset 7, -8
 219              		.cfi_offset 14, -4
 220 0002 82B0     		sub	sp, sp, #8	@,,
 221              		.cfi_def_cfa_offset 16
 222 0004 00AF     		add	r7, sp, #0	@,,
 223              		.cfi_def_cfa_register 7
 224 0006 0246     		mov	r2, r0	@ tmp118, rejestr
 225 0008 0B46     		mov	r3, r1	@ tmp120, wartosc
 226 000a FA71     		strb	r2, [r7, #7]	@ tmp119, rejestr
 227 000c BB71     		strb	r3, [r7, #6]	@ tmp121, wartosc
  51:src/main.c    **** 	CS_0;
 228              		.loc 1 51 0
 229 000e 0B4B     		ldr	r3, .L11	@ D.5294,
 230 0010 0A4A     		ldr	r2, .L11	@ D.5294,
 231 0012 5269     		ldr	r2, [r2, #20]	@ D.5295, _2->ODR
 232 0014 22F00802 		bic	r2, r2, #8	@ D.5295, D.5295,
 233 0018 5A61     		str	r2, [r3, #20]	@ D.5295, _1->ODR
  52:src/main.c    **** 	spi_transfer(rejestr);
ARM GAS  C:\Users\Daro\AppData\Local\Temp\cc83WZOx.s 			page 6


 234              		.loc 1 52 0
 235 001a FB79     		ldrb	r3, [r7, #7]	@ zero_extendqisi2	@ tmp122, rejestr
 236 001c 1846     		mov	r0, r3	@, tmp122
 237 001e FFF7FEFF 		bl	spi_transfer	@
  53:src/main.c    **** 	spi_transfer(wartosc);
 238              		.loc 1 53 0
 239 0022 BB79     		ldrb	r3, [r7, #6]	@ zero_extendqisi2	@ tmp123, wartosc
 240 0024 1846     		mov	r0, r3	@, tmp123
 241 0026 FFF7FEFF 		bl	spi_transfer	@
  54:src/main.c    **** 	CS_1;
 242              		.loc 1 54 0
 243 002a 044B     		ldr	r3, .L11	@ D.5294,
 244 002c 034A     		ldr	r2, .L11	@ D.5294,
 245 002e 5269     		ldr	r2, [r2, #20]	@ D.5295, _8->ODR
 246 0030 42F00802 		orr	r2, r2, #8	@ D.5295, D.5295,
 247 0034 5A61     		str	r2, [r3, #20]	@ D.5295, _7->ODR
  55:src/main.c    **** }
 248              		.loc 1 55 0
 249 0036 0837     		adds	r7, r7, #8	@,,
 250 0038 BD46     		mov	sp, r7	@,
 251              		@ sp needed	@
 252 003a 80BD     		pop	{r7, pc}	@
 253              	.L12:
 254              		.align	2
 255              	.L11:
 256 003c 00100240 		.word	1073876992
 257              		.cfi_endproc
 258              	.LFE112:
 259              		.size	mems_write, .-mems_write
 260              		.section	.text.mems_read,"ax",%progbits
 261              		.align	2
 262              		.global	mems_read
 263              		.thumb
 264              		.thumb_func
 265              		.type	mems_read, %function
 266              	mems_read:
 267              	.LFB113:
  56:src/main.c    **** 
  57:src/main.c    **** uint8_t mems_read(uint8_t rejestr)
  58:src/main.c    **** {
 268              		.loc 1 58 0
 269              		.cfi_startproc
 270              		@ args = 0, pretend = 0, frame = 16
 271              		@ frame_needed = 1, uses_anonymous_args = 0
 272 0000 80B5     		push	{r7, lr}	@
 273              		.cfi_def_cfa_offset 8
 274              		.cfi_offset 7, -8
 275              		.cfi_offset 14, -4
 276 0002 84B0     		sub	sp, sp, #16	@,,
 277              		.cfi_def_cfa_offset 24
 278 0004 00AF     		add	r7, sp, #0	@,,
 279              		.cfi_def_cfa_register 7
 280 0006 0346     		mov	r3, r0	@ tmp121, rejestr
 281 0008 FB71     		strb	r3, [r7, #7]	@ tmp122, rejestr
  59:src/main.c    **** 	uint8_t temp;
  60:src/main.c    **** 	CS_0;
 282              		.loc 1 60 0
ARM GAS  C:\Users\Daro\AppData\Local\Temp\cc83WZOx.s 			page 7


 283 000a 0E4B     		ldr	r3, .L15	@ D.5296,
 284 000c 0D4A     		ldr	r2, .L15	@ D.5296,
 285 000e 5269     		ldr	r2, [r2, #20]	@ D.5297, _2->ODR
 286 0010 22F00802 		bic	r2, r2, #8	@ D.5297, D.5297,
 287 0014 5A61     		str	r2, [r3, #20]	@ D.5297, _1->ODR
  61:src/main.c    **** 	spi_transfer(rejestr | 0x80);
 288              		.loc 1 61 0
 289 0016 FB79     		ldrb	r3, [r7, #7]	@ tmp123, rejestr
 290 0018 63F07F03 		orn	r3, r3, #127	@ tmp124, tmp123,
 291 001c DBB2     		uxtb	r3, r3	@ D.5298, tmp124
 292 001e 1846     		mov	r0, r3	@, D.5298
 293 0020 FFF7FEFF 		bl	spi_transfer	@
  62:src/main.c    **** 	temp = spi_transfer(0xFF);
 294              		.loc 1 62 0
 295 0024 FF20     		movs	r0, #255	@,
 296 0026 FFF7FEFF 		bl	spi_transfer	@
 297 002a 0346     		mov	r3, r0	@ tmp125,
 298 002c FB73     		strb	r3, [r7, #15]	@ tmp126, temp
  63:src/main.c    **** 	CS_1;
 299              		.loc 1 63 0
 300 002e 054B     		ldr	r3, .L15	@ D.5296,
 301 0030 044A     		ldr	r2, .L15	@ D.5296,
 302 0032 5269     		ldr	r2, [r2, #20]	@ D.5297, _9->ODR
 303 0034 42F00802 		orr	r2, r2, #8	@ D.5297, D.5297,
 304 0038 5A61     		str	r2, [r3, #20]	@ D.5297, _8->ODR
  64:src/main.c    **** 	return temp;
 305              		.loc 1 64 0
 306 003a FB7B     		ldrb	r3, [r7, #15]	@ zero_extendqisi2	@ D.5299, temp
  65:src/main.c    **** }
 307              		.loc 1 65 0
 308 003c 1846     		mov	r0, r3	@, <retval>
 309 003e 1037     		adds	r7, r7, #16	@,,
 310 0040 BD46     		mov	sp, r7	@,
 311              		@ sp needed	@
 312 0042 80BD     		pop	{r7, pc}	@
 313              	.L16:
 314              		.align	2
 315              	.L15:
 316 0044 00100240 		.word	1073876992
 317              		.cfi_endproc
 318              	.LFE113:
 319              		.size	mems_read, .-mems_read
 320              		.section	.text.mems_init,"ax",%progbits
 321              		.align	2
 322              		.global	mems_init
 323              		.thumb
 324              		.thumb_func
 325              		.type	mems_init, %function
 326              	mems_init:
 327              	.LFB114:
  66:src/main.c    **** 
  67:src/main.c    **** void mems_init(void)
  68:src/main.c    **** {
 328              		.loc 1 68 0
 329              		.cfi_startproc
 330              		@ args = 0, pretend = 0, frame = 0
 331              		@ frame_needed = 1, uses_anonymous_args = 0
ARM GAS  C:\Users\Daro\AppData\Local\Temp\cc83WZOx.s 			page 8


 332 0000 80B5     		push	{r7, lr}	@
 333              		.cfi_def_cfa_offset 8
 334              		.cfi_offset 7, -8
 335              		.cfi_offset 14, -4
 336 0002 00AF     		add	r7, sp, #0	@,,
 337              		.cfi_def_cfa_register 7
  69:src/main.c    ****     spi_init();
 338              		.loc 1 69 0
 339 0004 FFF7FEFF 		bl	spi_init	@
  70:src/main.c    ****     mems_write(0x20, 0x47);
 340              		.loc 1 70 0
 341 0008 2020     		movs	r0, #32	@,
 342 000a 4721     		movs	r1, #71	@,
 343 000c FFF7FEFF 		bl	mems_write	@
  71:src/main.c    **** }
 344              		.loc 1 71 0
 345 0010 80BD     		pop	{r7, pc}	@
 346              		.cfi_endproc
 347              	.LFE114:
 348              		.size	mems_init, .-mems_init
 349 0012 00BF     		.section	.text.mems_read_axis,"ax",%progbits
 350              		.align	2
 351              		.global	mems_read_axis
 352              		.thumb
 353              		.thumb_func
 354              		.type	mems_read_axis, %function
 355              	mems_read_axis:
 356              	.LFB115:
  72:src/main.c    **** 
  73:src/main.c    **** void mems_read_axis(acc_t *acc)
  74:src/main.c    **** {
 357              		.loc 1 74 0
 358              		.cfi_startproc
 359              		@ args = 0, pretend = 0, frame = 8
 360              		@ frame_needed = 1, uses_anonymous_args = 0
 361 0000 80B5     		push	{r7, lr}	@
 362              		.cfi_def_cfa_offset 8
 363              		.cfi_offset 7, -8
 364              		.cfi_offset 14, -4
 365 0002 82B0     		sub	sp, sp, #8	@,,
 366              		.cfi_def_cfa_offset 16
 367 0004 00AF     		add	r7, sp, #0	@,,
 368              		.cfi_def_cfa_register 7
 369 0006 7860     		str	r0, [r7, #4]	@ acc, acc
  75:src/main.c    **** 	acc->x = mems_read(0x29);
 370              		.loc 1 75 0
 371 0008 2920     		movs	r0, #41	@,
 372 000a FFF7FEFF 		bl	mems_read	@
 373 000e 0346     		mov	r3, r0	@ tmp113,
 374 0010 1A46     		mov	r2, r3	@ D.5300, tmp113
 375 0012 7B68     		ldr	r3, [r7, #4]	@ tmp114, acc
 376 0014 1A70     		strb	r2, [r3]	@ tmp115, acc_2(D)->x
  76:src/main.c    **** 	acc->y = mems_read(0x2B);
 377              		.loc 1 76 0
 378 0016 2B20     		movs	r0, #43	@,
 379 0018 FFF7FEFF 		bl	mems_read	@
 380 001c 0346     		mov	r3, r0	@ tmp116,
ARM GAS  C:\Users\Daro\AppData\Local\Temp\cc83WZOx.s 			page 9


 381 001e 1A46     		mov	r2, r3	@ D.5300, tmp116
 382 0020 7B68     		ldr	r3, [r7, #4]	@ tmp117, acc
 383 0022 5A70     		strb	r2, [r3, #1]	@ tmp118, acc_2(D)->y
  77:src/main.c    ****     acc->z = mems_read(0x2D);
 384              		.loc 1 77 0
 385 0024 2D20     		movs	r0, #45	@,
 386 0026 FFF7FEFF 		bl	mems_read	@
 387 002a 0346     		mov	r3, r0	@ tmp119,
 388 002c 1A46     		mov	r2, r3	@ D.5300, tmp119
 389 002e 7B68     		ldr	r3, [r7, #4]	@ tmp120, acc
 390 0030 9A70     		strb	r2, [r3, #2]	@ tmp121, acc_2(D)->z
  78:src/main.c    **** }
 391              		.loc 1 78 0
 392 0032 0837     		adds	r7, r7, #8	@,,
 393 0034 BD46     		mov	sp, r7	@,
 394              		@ sp needed	@
 395 0036 80BD     		pop	{r7, pc}	@
 396              		.cfi_endproc
 397              	.LFE115:
 398              		.size	mems_read_axis, .-mems_read_axis
 399              		.section	.text.itoa,"ax",%progbits
 400              		.align	2
 401              		.global	itoa
 402              		.thumb
 403              		.thumb_func
 404              		.type	itoa, %function
 405              	itoa:
 406              	.LFB116:
  79:src/main.c    **** 
  80:src/main.c    **** int itoa(int value, char *sp, int radix)
  81:src/main.c    **** {
 407              		.loc 1 81 0
 408              		.cfi_startproc
 409              		@ args = 0, pretend = 0, frame = 56
 410              		@ frame_needed = 1, uses_anonymous_args = 0
 411              		@ link register save eliminated.
 412 0000 80B4     		push	{r7}	@
 413              		.cfi_def_cfa_offset 4
 414              		.cfi_offset 7, -4
 415 0002 8FB0     		sub	sp, sp, #60	@,,
 416              		.cfi_def_cfa_offset 64
 417 0004 00AF     		add	r7, sp, #0	@,,
 418              		.cfi_def_cfa_register 7
 419 0006 F860     		str	r0, [r7, #12]	@ value, value
 420 0008 B960     		str	r1, [r7, #8]	@ sp, sp
 421 000a 7A60     		str	r2, [r7, #4]	@ radix, radix
  82:src/main.c    ****     char tmp[16];// be careful with the length of the buffer
  83:src/main.c    ****     char *tp = tmp;
 422              		.loc 1 83 0
 423 000c 07F11403 		add	r3, r7, #20	@ tmp128,,
 424 0010 7B63     		str	r3, [r7, #52]	@ tmp128, tp
  84:src/main.c    ****     int i;
  85:src/main.c    ****     unsigned v;
  86:src/main.c    **** 
  87:src/main.c    ****     int sign = (radix == 10 && value < 0);
 425              		.loc 1 87 0
 426 0012 7B68     		ldr	r3, [r7, #4]	@ tmp129, radix
ARM GAS  C:\Users\Daro\AppData\Local\Temp\cc83WZOx.s 			page 10


 427 0014 0A2B     		cmp	r3, #10	@ tmp129,
 428 0016 04D1     		bne	.L20	@,
 429              		.loc 1 87 0 is_stmt 0 discriminator 1
 430 0018 FB68     		ldr	r3, [r7, #12]	@ tmp130, value
 431 001a 002B     		cmp	r3, #0	@ tmp130,
 432 001c 01DA     		bge	.L20	@,
 433              		.loc 1 87 0 discriminator 3
 434 001e 0123     		movs	r3, #1	@ iftmp.0,
 435 0020 00E0     		b	.L21	@
 436              	.L20:
 437              		.loc 1 87 0 discriminator 2
 438 0022 0023     		movs	r3, #0	@ iftmp.0,
 439              	.L21:
 440              		.loc 1 87 0 discriminator 4
 441 0024 BB62     		str	r3, [r7, #40]	@ iftmp.0, sign
  88:src/main.c    ****     if (sign)
 442              		.loc 1 88 0 is_stmt 1 discriminator 4
 443 0026 BB6A     		ldr	r3, [r7, #40]	@ tmp131, sign
 444 0028 002B     		cmp	r3, #0	@ tmp131,
 445 002a 03D0     		beq	.L22	@,
  89:src/main.c    ****         v = -value;
 446              		.loc 1 89 0
 447 002c FB68     		ldr	r3, [r7, #12]	@ tmp132, value
 448 002e 5B42     		negs	r3, r3	@ D.5301, tmp132
 449 0030 3B63     		str	r3, [r7, #48]	@ D.5301, v
  90:src/main.c    ****     else
  91:src/main.c    ****         v = (unsigned)value;
  92:src/main.c    **** 
  93:src/main.c    ****     while (v || tp == tmp)
 450              		.loc 1 93 0
 451 0032 23E0     		b	.L24	@
 452              	.L22:
  91:src/main.c    **** 
 453              		.loc 1 91 0
 454 0034 FB68     		ldr	r3, [r7, #12]	@ tmp133, value
 455 0036 3B63     		str	r3, [r7, #48]	@ tmp133, v
 456              		.loc 1 93 0
 457 0038 20E0     		b	.L24	@
 458              	.L26:
  94:src/main.c    ****     {
  95:src/main.c    ****         i = v % radix;
 459              		.loc 1 95 0
 460 003a 7A68     		ldr	r2, [r7, #4]	@ radix.1, radix
 461 003c 3B6B     		ldr	r3, [r7, #48]	@ tmp134, v
 462 003e B3FBF2F1 		udiv	r1, r3, r2	@ tmp137, tmp134, radix.1
 463 0042 02FB01F2 		mul	r2, r2, r1	@ tmp138, radix.1, tmp137
 464 0046 9B1A     		subs	r3, r3, r2	@ D.5303, tmp134, tmp138
 465 0048 7B62     		str	r3, [r7, #36]	@ D.5303, i
  96:src/main.c    ****         v /= radix; // v/=radix uses less CPU clocks than v=v/radix does
 466              		.loc 1 96 0
 467 004a 7B68     		ldr	r3, [r7, #4]	@ radix.2, radix
 468 004c 3A6B     		ldr	r2, [r7, #48]	@ tmp140, v
 469 004e B2FBF3F3 		udiv	r3, r2, r3	@ tmp139, tmp140, radix.2
 470 0052 3B63     		str	r3, [r7, #48]	@ tmp139, v
  97:src/main.c    ****         if (i < 10)
 471              		.loc 1 97 0
 472 0054 7B6A     		ldr	r3, [r7, #36]	@ tmp141, i
ARM GAS  C:\Users\Daro\AppData\Local\Temp\cc83WZOx.s 			page 11


 473 0056 092B     		cmp	r3, #9	@ tmp141,
 474 0058 08DC     		bgt	.L25	@,
  98:src/main.c    ****           *tp++ = i+'0';
 475              		.loc 1 98 0
 476 005a 7B6B     		ldr	r3, [r7, #52]	@ tp.3, tp
 477 005c 5A1C     		adds	r2, r3, #1	@ tmp142, tp.3,
 478 005e 7A63     		str	r2, [r7, #52]	@ tmp142, tp
 479 0060 7A6A     		ldr	r2, [r7, #36]	@ tmp143, i
 480 0062 D2B2     		uxtb	r2, r2	@ D.5302, tmp143
 481 0064 3032     		adds	r2, r2, #48	@ tmp144, D.5302,
 482 0066 D2B2     		uxtb	r2, r2	@ D.5302, tmp144
 483 0068 1A70     		strb	r2, [r3]	@ tmp145, *tp.3_35
 484 006a 07E0     		b	.L24	@
 485              	.L25:
  99:src/main.c    ****         else
 100:src/main.c    ****           *tp++ = i + 'a' - 10;
 486              		.loc 1 100 0
 487 006c 7B6B     		ldr	r3, [r7, #52]	@ tp.4, tp
 488 006e 5A1C     		adds	r2, r3, #1	@ tmp146, tp.4,
 489 0070 7A63     		str	r2, [r7, #52]	@ tmp146, tp
 490 0072 7A6A     		ldr	r2, [r7, #36]	@ tmp147, i
 491 0074 D2B2     		uxtb	r2, r2	@ D.5302, tmp147
 492 0076 5732     		adds	r2, r2, #87	@ tmp148, D.5302,
 493 0078 D2B2     		uxtb	r2, r2	@ D.5302, tmp148
 494 007a 1A70     		strb	r2, [r3]	@ tmp149, *tp.4_39
 495              	.L24:
  93:src/main.c    ****     {
 496              		.loc 1 93 0 discriminator 1
 497 007c 3B6B     		ldr	r3, [r7, #48]	@ tmp150, v
 498 007e 002B     		cmp	r3, #0	@ tmp150,
 499 0080 DBD1     		bne	.L26	@,
  93:src/main.c    ****     {
 500              		.loc 1 93 0 is_stmt 0 discriminator 2
 501 0082 07F11403 		add	r3, r7, #20	@ tmp151,,
 502 0086 7A6B     		ldr	r2, [r7, #52]	@ tmp152, tp
 503 0088 9A42     		cmp	r2, r3	@ tmp152, tmp151
 504 008a D6D0     		beq	.L26	@,
 101:src/main.c    ****     }
 102:src/main.c    **** 
 103:src/main.c    ****     int len = tp - tmp;
 505              		.loc 1 103 0 is_stmt 1
 506 008c 7A6B     		ldr	r2, [r7, #52]	@ tp.5, tp
 507 008e 07F11403 		add	r3, r7, #20	@ tmp.6,,
 508 0092 D31A     		subs	r3, r2, r3	@ tmp153, tp.5, tmp.6
 509 0094 FB62     		str	r3, [r7, #44]	@ tmp153, len
 104:src/main.c    **** 
 105:src/main.c    ****     if (sign)
 510              		.loc 1 105 0
 511 0096 BB6A     		ldr	r3, [r7, #40]	@ tmp154, sign
 512 0098 002B     		cmp	r3, #0	@ tmp154,
 513 009a 08D0     		beq	.L27	@,
 106:src/main.c    ****     {
 107:src/main.c    ****         *sp++ = '-';
 514              		.loc 1 107 0
 515 009c BB68     		ldr	r3, [r7, #8]	@ sp.7, sp
 516 009e 5A1C     		adds	r2, r3, #1	@ tmp155, sp.7,
 517 00a0 BA60     		str	r2, [r7, #8]	@ tmp155, sp
ARM GAS  C:\Users\Daro\AppData\Local\Temp\cc83WZOx.s 			page 12


 518 00a2 2D22     		movs	r2, #45	@ tmp156,
 519 00a4 1A70     		strb	r2, [r3]	@ tmp157, *sp.7_22
 108:src/main.c    ****         len++;
 520              		.loc 1 108 0
 521 00a6 FB6A     		ldr	r3, [r7, #44]	@ tmp159, len
 522 00a8 0133     		adds	r3, r3, #1	@ tmp158, tmp159,
 523 00aa FB62     		str	r3, [r7, #44]	@ tmp158, len
 109:src/main.c    ****     }
 110:src/main.c    **** 
 111:src/main.c    ****     while (tp > tmp)
 524              		.loc 1 111 0
 525 00ac 09E0     		b	.L28	@
 526              	.L27:
 527 00ae 08E0     		b	.L28	@
 528              	.L29:
 112:src/main.c    ****         *sp++ = *--tp;
 529              		.loc 1 112 0
 530 00b0 BB68     		ldr	r3, [r7, #8]	@ sp.8, sp
 531 00b2 5A1C     		adds	r2, r3, #1	@ tmp160, sp.8,
 532 00b4 BA60     		str	r2, [r7, #8]	@ tmp160, sp
 533 00b6 7A6B     		ldr	r2, [r7, #52]	@ tmp162, tp
 534 00b8 013A     		subs	r2, r2, #1	@ tmp161, tmp162,
 535 00ba 7A63     		str	r2, [r7, #52]	@ tmp161, tp
 536 00bc 7A6B     		ldr	r2, [r7, #52]	@ tmp163, tp
 537 00be 1278     		ldrb	r2, [r2]	@ zero_extendqisi2	@ D.5302, *tp_27
 538 00c0 1A70     		strb	r2, [r3]	@ tmp164, *sp.8_25
 539              	.L28:
 111:src/main.c    ****         *sp++ = *--tp;
 540              		.loc 1 111 0 discriminator 1
 541 00c2 07F11403 		add	r3, r7, #20	@ tmp165,,
 542 00c6 7A6B     		ldr	r2, [r7, #52]	@ tmp166, tp
 543 00c8 9A42     		cmp	r2, r3	@ tmp166, tmp165
 544 00ca F1D8     		bhi	.L29	@,
 113:src/main.c    **** 
 114:src/main.c    ****     return len;
 545              		.loc 1 114 0
 546 00cc FB6A     		ldr	r3, [r7, #44]	@ D.5301, len
 115:src/main.c    **** }
 547              		.loc 1 115 0
 548 00ce 1846     		mov	r0, r3	@, <retval>
 549 00d0 3C37     		adds	r7, r7, #60	@,,
 550 00d2 BD46     		mov	sp, r7	@,
 551              		@ sp needed	@
 552 00d4 5DF8047B 		ldr	r7, [sp], #4	@,
 553 00d8 7047     		bx	lr	@
 554              		.cfi_endproc
 555              	.LFE116:
 556              		.size	itoa, .-itoa
 557 00da 00BF     		.section	.text.i2c_init,"ax",%progbits
 558              		.align	2
 559              		.global	i2c_init
 560              		.thumb
 561              		.thumb_func
 562              		.type	i2c_init, %function
 563              	i2c_init:
 564              	.LFB117:
 116:src/main.c    **** /*
ARM GAS  C:\Users\Daro\AppData\Local\Temp\cc83WZOx.s 			page 13


 117:src/main.c    **** void LCD_SPI_Config(void)
 118:src/main.c    **** {
 119:src/main.c    **** 	RCC->APB2ENR |= RCC_APB2ENR_SPI1EN;
 120:src/main.c    **** 	__DSB();
 121:src/main.c    **** 	SPI1->CR1 |= SPI_CR1_MSTR | SPI_CR1_SSM | SPI_CR1_SSI | SPI_CR1_SPE;
 122:src/main.c    **** 
 123:src/main.c    **** 	GPIO_ConfigPin(GPIOA, 5, GPIO_AF5_PP_50MHz); // sck
 124:src/main.c    **** 	GPIO_ConfigPin(GPIOA, 6, GPIO_AF5_PP_50MHz); // miso
 125:src/main.c    **** 	GPIO_ConfigPin(GPIOA, 7, GPIO_AF5_PP_50MHz); // mosi
 126:src/main.c    **** 
 127:src/main.c    **** 	GPIO_ConfigPin(GPIOC, 4, GPIO_OUT_PP_50MHz); // dc
 128:src/main.c    **** 	GPIO_ConfigPin(GPIOC, 5, GPIO_OUT_PP_50MHz); // cs
 129:src/main.c    **** 
 130:src/main.c    **** 
 131:src/main.c    **** }
 132:src/main.c    **** 
 133:src/main.c    **** uint8_t LCD_WriteByte(uint8_t byte)
 134:src/main.c    **** {
 135:src/main.c    **** 	SPI1->DR = byte;
 136:src/main.c    **** 	while(!(SPI1->SR & SPI_SR_TXE));
 137:src/main.c    **** 	return SPI1->DR;
 138:src/main.c    **** }
 139:src/main.c    **** 
 140:src/main.c    **** void LCD_Write_COM(uint8_t com)
 141:src/main.c    **** {
 142:src/main.c    **** 	LCD_CS_0;
 143:src/main.c    **** 	LCD_DC_0;
 144:src/main.c    **** 	spi_transfer(com);
 145:src/main.c    **** }
 146:src/main.c    **** 
 147:src/main.c    **** uint8_t LCD_Write_DATA(uint8_t data)
 148:src/main.c    **** {
 149:src/main.c    **** 	uint8_t temp;
 150:src/main.c    **** 	LCD_CS_0;
 151:src/main.c    **** 	LCD_DC_1;
 152:src/main.c    **** 	temp=LCD_WriteByte(data);
 153:src/main.c    **** 	return temp;
 154:src/main.c    **** }
 155:src/main.c    **** 
 156:src/main.c    **** void LCD_WriteCommand(uint8_t command)
 157:src/main.c    **** {
 158:src/main.c    **** 	LCD_CS_0;
 159:src/main.c    **** 	LCD_DC_0;
 160:src/main.c    **** 	spi_transfer(command);
 161:src/main.c    **** 	LCD_CS_1;
 162:src/main.c    **** }
 163:src/main.c    **** 
 164:src/main.c    **** uint8_t LCD_WriteData(uint8_t data)
 165:src/main.c    **** {
 166:src/main.c    **** 	uint8_t tmp;
 167:src/main.c    **** 	LCD_CS_0;
 168:src/main.c    **** 	LCD_DC_1;
 169:src/main.c    **** 	tmp = spi_transfer(data);
 170:src/main.c    **** 	LCD_CS_1;
 171:src/main.c    **** 	return tmp;
 172:src/main.c    **** }
 173:src/main.c    **** 
ARM GAS  C:\Users\Daro\AppData\Local\Temp\cc83WZOx.s 			page 14


 174:src/main.c    **** uint16_t LCD_WriteData16(uint16_t data)
 175:src/main.c    **** {
 176:src/main.c    **** 	uint8_t tmp;
 177:src/main.c    **** 	LCD_CS_0;
 178:src/main.c    **** 	LCD_DC_1;
 179:src/main.c    **** 	tmp = spi_transfer(data >> 8) << 8;
 180:src/main.c    **** 	tmp |= spi_transfer(data & 0xFF);
 181:src/main.c    **** 	return tmp;
 182:src/main.c    **** }
 183:src/main.c    **** 
 184:src/main.c    **** void LCD_SetCursor( uint16_t Xpos, uint16_t Ypos )
 185:src/main.c    **** {
 186:src/main.c    **** 	LCD_WriteCommand(0x2A);
 187:src/main.c    **** 	LCD_WriteData16(Xpos);
 188:src/main.c    **** 	LCD_WriteData16(Xpos);
 189:src/main.c    **** 	LCD_WriteCommand(0x2B);
 190:src/main.c    **** 	LCD_WriteData16(Ypos);
 191:src/main.c    **** 	LCD_WriteData16(Ypos);
 192:src/main.c    **** }
 193:src/main.c    **** 
 194:src/main.c    **** void LCD_SetPixel(uint16_t Xpos, uint16_t Ypos, uint16_t colour)
 195:src/main.c    **** {
 196:src/main.c    **** 	LCD_WriteCommand(0x2A);
 197:src/main.c    **** 	LCD_WriteData16(Xpos);
 198:src/main.c    **** 	LCD_WriteData16(Xpos);
 199:src/main.c    **** 	LCD_WriteCommand(0x2B);
 200:src/main.c    **** 	LCD_WriteData16(Ypos);
 201:src/main.c    **** 	LCD_WriteData16(Ypos);
 202:src/main.c    **** 	LCD_WriteCommand(0x2c);
 203:src/main.c    **** 	LCD_WriteData16(colour);
 204:src/main.c    **** }
 205:src/main.c    **** 
 206:src/main.c    **** void LCD_Init(void)
 207:src/main.c    **** {
 208:src/main.c    **** 	LCD_WriteCommand(0xCB);
 209:src/main.c    **** 	LCD_WriteData(0x39);
 210:src/main.c    **** 	LCD_WriteData(0x2C);
 211:src/main.c    **** 	LCD_WriteData(0x00);
 212:src/main.c    **** 	LCD_WriteData(0x34);
 213:src/main.c    **** 	LCD_WriteData(0x02);
 214:src/main.c    **** 
 215:src/main.c    **** 	LCD_WriteCommand(0xCF);
 216:src/main.c    **** 	LCD_WriteData(0x00);
 217:src/main.c    **** 	LCD_WriteData(0XC1);
 218:src/main.c    **** 	LCD_WriteData(0X30);
 219:src/main.c    **** 
 220:src/main.c    **** 	LCD_WriteCommand(0xE8);
 221:src/main.c    **** 	LCD_WriteData(0x85);
 222:src/main.c    **** 	LCD_WriteData(0x00);
 223:src/main.c    **** 	LCD_WriteData(0x78);
 224:src/main.c    **** 
 225:src/main.c    **** 	LCD_WriteCommand(0xEA);
 226:src/main.c    **** 	LCD_WriteData(0x00);
 227:src/main.c    **** 	LCD_WriteData(0x00);
 228:src/main.c    **** 
 229:src/main.c    **** 	LCD_WriteCommand(0xED);
 230:src/main.c    **** 	LCD_WriteData(0x64);
ARM GAS  C:\Users\Daro\AppData\Local\Temp\cc83WZOx.s 			page 15


 231:src/main.c    **** 	LCD_WriteData(0x03);
 232:src/main.c    **** 	LCD_WriteData(0X12);
 233:src/main.c    **** 	LCD_WriteData(0X81);
 234:src/main.c    **** 
 235:src/main.c    **** 	LCD_WriteCommand(0xF7);
 236:src/main.c    **** 	LCD_WriteData(0x20);
 237:src/main.c    **** 
 238:src/main.c    **** 	LCD_WriteCommand(0xC0);    	//Power control
 239:src/main.c    **** 	LCD_WriteData(0x23);   	//VRH[5:0]
 240:src/main.c    **** 
 241:src/main.c    **** 	LCD_WriteCommand(0xC1);    	//Power control
 242:src/main.c    **** 	LCD_WriteData(0x10);   	//SAP[2:0];BT[3:0]
 243:src/main.c    **** 
 244:src/main.c    **** 	LCD_WriteCommand(0xC5);    	//VCM control
 245:src/main.c    **** 	LCD_WriteData(0x3e);   	//Contrast
 246:src/main.c    **** 	LCD_WriteData(0x28);
 247:src/main.c    **** 
 248:src/main.c    **** 	LCD_WriteCommand(0xC7);    	//VCM control2
 249:src/main.c    **** 	LCD_WriteData(0x86);  	 //--
 250:src/main.c    **** 
 251:src/main.c    **** 	LCD_WriteCommand(0x36);    	// Memory Access Control
 252:src/main.c    **** 	LCD_WriteData(0x48);  	//C8	   //48
 253:src/main.c    **** 
 254:src/main.c    **** 	LCD_WriteCommand(0x3A);
 255:src/main.c    **** 	LCD_WriteData(0x55);
 256:src/main.c    **** 
 257:src/main.c    **** 	LCD_WriteCommand(0xB1);
 258:src/main.c    **** 	LCD_WriteData(0x00);
 259:src/main.c    **** 	LCD_WriteData(0x18);
 260:src/main.c    **** 
 261:src/main.c    **** 	LCD_WriteCommand(0xB6);    	// Display Function Control
 262:src/main.c    **** 	LCD_WriteData(0x08);
 263:src/main.c    **** 	LCD_WriteData(0x82);
 264:src/main.c    **** 	LCD_WriteData(0x27);
 265:src/main.c    **** 
 266:src/main.c    **** 	LCD_WriteCommand(0xF2);    	// 3Gamma Function Disable
 267:src/main.c    **** 	LCD_WriteData(0x00);
 268:src/main.c    **** 
 269:src/main.c    **** 	LCD_WriteCommand(0x26);    	//Gamma curve selected
 270:src/main.c    **** 	LCD_WriteData(0x01);
 271:src/main.c    **** 
 272:src/main.c    **** 	LCD_WriteCommand(0xE0);    	//Set Gamma
 273:src/main.c    **** 	LCD_WriteData(0x0F);
 274:src/main.c    **** 	LCD_WriteData(0x31);
 275:src/main.c    **** 	LCD_WriteData(0x2B);
 276:src/main.c    **** 	LCD_WriteData(0x0C);
 277:src/main.c    **** 	LCD_WriteData(0x0E);
 278:src/main.c    **** 	LCD_WriteData(0x08);
 279:src/main.c    **** 	LCD_WriteData(0x4E);
 280:src/main.c    **** 	LCD_WriteData(0xF1);
 281:src/main.c    **** 	LCD_WriteData(0x37);
 282:src/main.c    **** 	LCD_WriteData(0x07);
 283:src/main.c    **** 	LCD_WriteData(0x10);
 284:src/main.c    **** 	LCD_WriteData(0x03);
 285:src/main.c    **** 	LCD_WriteData(0x0E);
 286:src/main.c    **** 	LCD_WriteData(0x09);
 287:src/main.c    **** 	LCD_WriteData(0x00);
ARM GAS  C:\Users\Daro\AppData\Local\Temp\cc83WZOx.s 			page 16


 288:src/main.c    **** 
 289:src/main.c    **** 	LCD_WriteCommand(0XE1);    	//Set Gamma
 290:src/main.c    **** 	LCD_WriteData(0x00);
 291:src/main.c    **** 	LCD_WriteData(0x0E);
 292:src/main.c    **** 	LCD_WriteData(0x14);
 293:src/main.c    **** 	LCD_WriteData(0x03);
 294:src/main.c    **** 	LCD_WriteData(0x11);
 295:src/main.c    **** 	LCD_WriteData(0x07);
 296:src/main.c    **** 	LCD_WriteData(0x31);
 297:src/main.c    **** 	LCD_WriteData(0xC1);
 298:src/main.c    **** 	LCD_WriteData(0x48);
 299:src/main.c    **** 	LCD_WriteData(0x08);
 300:src/main.c    **** 	LCD_WriteData(0x0F);
 301:src/main.c    **** 	LCD_WriteData(0x0C);
 302:src/main.c    **** 	LCD_WriteData(0x31);
 303:src/main.c    **** 	LCD_WriteData(0x36);
 304:src/main.c    **** 	LCD_WriteData(0x0F);
 305:src/main.c    **** 
 306:src/main.c    **** 	LCD_WriteCommand(0x11);    	//Exit Sleep
 307:src/main.c    **** 	delay_ms(120);
 308:src/main.c    **** 
 309:src/main.c    **** 	LCD_WriteCommand(0x29);    //Display on
 310:src/main.c    **** 	LCD_WriteCommand(0x2c);
 311:src/main.c    **** }
 312:src/main.c    **** 
 313:src/main.c    **** */
 314:src/main.c    **** 
 315:src/main.c    **** void i2c_init(void)
 316:src/main.c    **** {
 565              		.loc 1 316 0
 566              		.cfi_startproc
 567              		@ args = 0, pretend = 0, frame = 0
 568              		@ frame_needed = 1, uses_anonymous_args = 0
 569 0000 80B5     		push	{r7, lr}	@
 570              		.cfi_def_cfa_offset 8
 571              		.cfi_offset 7, -8
 572              		.cfi_offset 14, -4
 573 0002 00AF     		add	r7, sp, #0	@,,
 574              		.cfi_def_cfa_register 7
 317:src/main.c    **** 	GPIO_ConfigPin(GPIOB, 8, GPIO_AF4_OD_25MHz_PULL_UP);	//sda
 575              		.loc 1 317 0
 576 0004 1948     		ldr	r0, .L32	@,
 577 0006 0821     		movs	r1, #8	@,
 578 0008 194A     		ldr	r2, .L32+4	@,
 579 000a FFF7FEFF 		bl	GPIO_ConfigPin	@
 318:src/main.c    **** 	GPIO_ConfigPin(GPIOB, 9, GPIO_AF4_OD_25MHz_PULL_UP);	//scl
 580              		.loc 1 318 0
 581 000e 1748     		ldr	r0, .L32	@,
 582 0010 0921     		movs	r1, #9	@,
 583 0012 174A     		ldr	r2, .L32+4	@,
 584 0014 FFF7FEFF 		bl	GPIO_ConfigPin	@
 319:src/main.c    **** 
 320:src/main.c    **** 	RCC->APB1ENR |= RCC_APB1ENR_I2C1EN;
 585              		.loc 1 320 0
 586 0018 164B     		ldr	r3, .L32+8	@ D.5304,
 587 001a 164A     		ldr	r2, .L32+8	@ D.5304,
 588 001c 126C     		ldr	r2, [r2, #64]	@ D.5305, _2->APB1ENR
ARM GAS  C:\Users\Daro\AppData\Local\Temp\cc83WZOx.s 			page 17


 589 001e 42F40012 		orr	r2, r2, #2097152	@ D.5305, D.5305,
 590 0022 1A64     		str	r2, [r3, #64]	@ D.5305, _1->APB1ENR
 321:src/main.c    **** 
 322:src/main.c    **** 	I2C1->CR1 |= I2C_CR1_SWRST;            //reset I2C
 591              		.loc 1 322 0
 592 0024 144A     		ldr	r2, .L32+12	@ D.5306,
 593 0026 144B     		ldr	r3, .L32+12	@ D.5306,
 594 0028 1B88     		ldrh	r3, [r3]	@ movhi	@ tmp129, _6->CR1
 595 002a 9BB2     		uxth	r3, r3	@ D.5307, tmp129
 596 002c 6FEA4343 		mvn	r3, r3, lsl #17	@ tmp130, D.5307,
 597 0030 6FEA5343 		mvn	r3, r3, lsr #17	@ tmp130, tmp130,
 598 0034 9BB2     		uxth	r3, r3	@ D.5307, tmp130
 599 0036 1380     		strh	r3, [r2]	@ movhi	@ tmp131, _5->CR1
 323:src/main.c    **** 	I2C1->CR1 &= ~I2C_CR1_SWRST;
 600              		.loc 1 323 0
 601 0038 0F4B     		ldr	r3, .L32+12	@ D.5306,
 602 003a 0F4A     		ldr	r2, .L32+12	@ D.5306,
 603 003c 1288     		ldrh	r2, [r2]	@ movhi	@ tmp132, _10->CR1
 604 003e 92B2     		uxth	r2, r2	@ D.5307, tmp132
 605 0040 C2F30E02 		ubfx	r2, r2, #0, #15	@ tmp133, D.5307,,
 606 0044 92B2     		uxth	r2, r2	@ D.5307, tmp133
 607 0046 1A80     		strh	r2, [r3]	@ movhi	@ tmp134, _9->CR1
 324:src/main.c    **** 
 325:src/main.c    **** 	I2C1->CR2 = 18;                  // 18Mhz Periph clock
 608              		.loc 1 325 0
 609 0048 0B4B     		ldr	r3, .L32+12	@ D.5306,
 610 004a 1222     		movs	r2, #18	@ tmp136,
 611 004c 9A80     		strh	r2, [r3, #4]	@ movhi	@ tmp135, _13->CR2
 326:src/main.c    **** 	I2C1->TRISE = 19;                // limit slope 1000ns
 612              		.loc 1 326 0
 613 004e 0A4B     		ldr	r3, .L32+12	@ D.5306,
 614 0050 1322     		movs	r2, #19	@ tmp138,
 615 0052 1A84     		strh	r2, [r3, #32]	@ movhi	@ tmp137, _14->TRISE
 327:src/main.c    **** 	I2C1->CCR = 90;                  // setup speed (100kHz)
 616              		.loc 1 327 0
 617 0054 084B     		ldr	r3, .L32+12	@ D.5306,
 618 0056 5A22     		movs	r2, #90	@ tmp140,
 619 0058 9A83     		strh	r2, [r3, #28]	@ movhi	@ tmp139, _15->CCR
 328:src/main.c    **** 	I2C1->CR1 |= I2C_CR1_PE;         // enable peripheral
 620              		.loc 1 328 0
 621 005a 074B     		ldr	r3, .L32+12	@ D.5306,
 622 005c 064A     		ldr	r2, .L32+12	@ D.5306,
 623 005e 1288     		ldrh	r2, [r2]	@ movhi	@ tmp141, _17->CR1
 624 0060 92B2     		uxth	r2, r2	@ D.5307, tmp141
 625 0062 42F00102 		orr	r2, r2, #1	@ tmp142, D.5307,
 626 0066 92B2     		uxth	r2, r2	@ D.5307, tmp142
 627 0068 1A80     		strh	r2, [r3]	@ movhi	@ tmp143, _16->CR1
 329:src/main.c    **** 
 330:src/main.c    **** 
 331:src/main.c    **** }
 628              		.loc 1 331 0
 629 006a 80BD     		pop	{r7, pc}	@
 630              	.L33:
 631              		.align	2
 632              	.L32:
 633 006c 00040240 		.word	1073873920
 634 0070 12110400 		.word	266514
ARM GAS  C:\Users\Daro\AppData\Local\Temp\cc83WZOx.s 			page 18


 635 0074 00380240 		.word	1073887232
 636 0078 00540040 		.word	1073763328
 637              		.cfi_endproc
 638              	.LFE117:
 639              		.size	i2c_init, .-i2c_init
 640              		.section	.text.I2C_WRITE_REG,"ax",%progbits
 641              		.align	2
 642              		.global	I2C_WRITE_REG
 643              		.thumb
 644              		.thumb_func
 645              		.type	I2C_WRITE_REG, %function
 646              	I2C_WRITE_REG:
 647              	.LFB118:
 332:src/main.c    **** 
 333:src/main.c    **** void I2C_WRITE_REG(uint8_t address, uint8_t reg)
 334:src/main.c    **** {
 648              		.loc 1 334 0
 649              		.cfi_startproc
 650              		@ args = 0, pretend = 0, frame = 16
 651              		@ frame_needed = 1, uses_anonymous_args = 0
 652              		@ link register save eliminated.
 653 0000 80B4     		push	{r7}	@
 654              		.cfi_def_cfa_offset 4
 655              		.cfi_offset 7, -4
 656 0002 85B0     		sub	sp, sp, #20	@,,
 657              		.cfi_def_cfa_offset 24
 658 0004 00AF     		add	r7, sp, #0	@,,
 659              		.cfi_def_cfa_register 7
 660 0006 0246     		mov	r2, r0	@ tmp146, address
 661 0008 0B46     		mov	r3, r1	@ tmp148, reg
 662 000a FA71     		strb	r2, [r7, #7]	@ tmp147, address
 663 000c BB71     		strb	r3, [r7, #6]	@ tmp149, reg
 335:src/main.c    **** 	uint32_t dummy;
 336:src/main.c    **** 
 337:src/main.c    **** 	I2C1->CR1 |= I2C_CR1_START;				// request a start
 664              		.loc 1 337 0
 665 000e 254B     		ldr	r3, .L39	@ D.5308,
 666 0010 244A     		ldr	r2, .L39	@ D.5308,
 667 0012 1288     		ldrh	r2, [r2]	@ movhi	@ tmp150, _2->CR1
 668 0014 92B2     		uxth	r2, r2	@ D.5309, tmp150
 669 0016 42F48072 		orr	r2, r2, #256	@ tmp151, D.5309,
 670 001a 92B2     		uxth	r2, r2	@ D.5309, tmp151
 671 001c 1A80     		strh	r2, [r3]	@ movhi	@ tmp152, _1->CR1
 338:src/main.c    **** 	while(!(I2C1->SR1 & I2C_SR1_SB));		// wait for start to finish
 672              		.loc 1 338 0
 673 001e 00BF     		nop
 674              	.L35:
 675              		.loc 1 338 0 is_stmt 0 discriminator 1
 676 0020 204B     		ldr	r3, .L39	@ D.5308,
 677 0022 9B8A     		ldrh	r3, [r3, #20]	@ movhi	@ tmp154, _5->SR1
 678 0024 9BB2     		uxth	r3, r3	@ D.5309, tmp154
 679 0026 03F00103 		and	r3, r3, #1	@ D.5310, D.5310,
 680 002a 002B     		cmp	r3, #0	@ D.5310,
 681 002c F8D0     		beq	.L35	@,
 339:src/main.c    **** 	dummy = I2C1->SR1;						// read of SR1 clears the flag
 682              		.loc 1 339 0 is_stmt 1
 683 002e 1D4B     		ldr	r3, .L39	@ D.5308,
ARM GAS  C:\Users\Daro\AppData\Local\Temp\cc83WZOx.s 			page 19


 684 0030 9B8A     		ldrh	r3, [r3, #20]	@ movhi	@ tmp156, _9->SR1
 685 0032 9BB2     		uxth	r3, r3	@ D.5309, tmp156
 686 0034 FB60     		str	r3, [r7, #12]	@ D.5309, dummy
 340:src/main.c    **** 	I2C1->DR = address;						// transfer address
 687              		.loc 1 340 0
 688 0036 1B4B     		ldr	r3, .L39	@ D.5308,
 689 0038 FA79     		ldrb	r2, [r7, #7]	@ zero_extendqisi2	@ tmp158, address
 690 003a 92B2     		uxth	r2, r2	@ D.5309, tmp157
 691 003c 1A82     		strh	r2, [r3, #16]	@ movhi	@ tmp159, _12->DR
 341:src/main.c    **** 	while (!(I2C1->SR1 & I2C_SR1_ADDR));	// wait for address transfer
 692              		.loc 1 341 0
 693 003e 00BF     		nop
 694              	.L36:
 695              		.loc 1 341 0 is_stmt 0 discriminator 1
 696 0040 184B     		ldr	r3, .L39	@ D.5308,
 697 0042 9B8A     		ldrh	r3, [r3, #20]	@ movhi	@ tmp161, _15->SR1
 698 0044 9BB2     		uxth	r3, r3	@ D.5309, tmp161
 699 0046 03F00203 		and	r3, r3, #2	@ D.5310, D.5310,
 700 004a 002B     		cmp	r3, #0	@ D.5310,
 701 004c F8D0     		beq	.L36	@,
 342:src/main.c    **** 	dummy = I2C1->SR1;						// clear the flag
 702              		.loc 1 342 0 is_stmt 1
 703 004e 154B     		ldr	r3, .L39	@ D.5308,
 704 0050 9B8A     		ldrh	r3, [r3, #20]	@ movhi	@ tmp163, _19->SR1
 705 0052 9BB2     		uxth	r3, r3	@ D.5309, tmp163
 706 0054 FB60     		str	r3, [r7, #12]	@ D.5309, dummy
 343:src/main.c    **** 	dummy = I2C1->SR2;
 707              		.loc 1 343 0
 708 0056 134B     		ldr	r3, .L39	@ D.5308,
 709 0058 1B8B     		ldrh	r3, [r3, #24]	@ movhi	@ tmp165, _22->SR2
 710 005a 9BB2     		uxth	r3, r3	@ D.5309, tmp165
 711 005c FB60     		str	r3, [r7, #12]	@ D.5309, dummy
 344:src/main.c    **** 
 345:src/main.c    **** 	while (!(I2C1->SR1 & I2C_SR1_TXE));	// wait for DR empty
 712              		.loc 1 345 0
 713 005e 00BF     		nop
 714              	.L37:
 715              		.loc 1 345 0 is_stmt 0 discriminator 1
 716 0060 104B     		ldr	r3, .L39	@ D.5308,
 717 0062 9B8A     		ldrh	r3, [r3, #20]	@ movhi	@ tmp167, _25->SR1
 718 0064 9BB2     		uxth	r3, r3	@ D.5309, tmp167
 719 0066 03F08003 		and	r3, r3, #128	@ D.5310, D.5310,
 720 006a 002B     		cmp	r3, #0	@ D.5310,
 721 006c F8D0     		beq	.L37	@,
 346:src/main.c    **** 	I2C1->DR = reg;					// transfer one byte, increment pointer
 722              		.loc 1 346 0 is_stmt 1
 723 006e 0D4B     		ldr	r3, .L39	@ D.5308,
 724 0070 BA79     		ldrb	r2, [r7, #6]	@ zero_extendqisi2	@ tmp169, reg
 725 0072 92B2     		uxth	r2, r2	@ D.5309, tmp168
 726 0074 1A82     		strh	r2, [r3, #16]	@ movhi	@ tmp170, _29->DR
 347:src/main.c    **** 
 348:src/main.c    **** 	while ((I2C1->SR1 & I2C_SR1_TXE) == RESET || (I2C1->SR1 & I2C_SR1_BTF) == SET);
 727              		.loc 1 348 0
 728 0076 00BF     		nop
 729              	.L38:
 730              		.loc 1 348 0 is_stmt 0 discriminator 1
 731 0078 0A4B     		ldr	r3, .L39	@ D.5308,
ARM GAS  C:\Users\Daro\AppData\Local\Temp\cc83WZOx.s 			page 20


 732 007a 9B8A     		ldrh	r3, [r3, #20]	@ movhi	@ tmp172, _32->SR1
 733 007c 9BB2     		uxth	r3, r3	@ D.5309, tmp172
 734 007e 03F08003 		and	r3, r3, #128	@ D.5310, D.5310,
 735 0082 002B     		cmp	r3, #0	@ D.5310,
 736 0084 F8D0     		beq	.L38	@,
 737              		.loc 1 348 0 discriminator 2
 738 0086 074B     		ldr	r3, .L39	@ D.5308,
 739 0088 9B8A     		ldrh	r3, [r3, #20]	@ movhi	@ tmp174, _36->SR1
 349:src/main.c    **** 										// wait for bus not-busy
 350:src/main.c    **** 	I2C1->CR1 |= I2C_CR1_STOP;
 740              		.loc 1 350 0 is_stmt 1 discriminator 2
 741 008a 064B     		ldr	r3, .L39	@ D.5308,
 742 008c 054A     		ldr	r2, .L39	@ D.5308,
 743 008e 1288     		ldrh	r2, [r2]	@ movhi	@ tmp175, _39->CR1
 744 0090 92B2     		uxth	r2, r2	@ D.5309, tmp175
 745 0092 42F40072 		orr	r2, r2, #512	@ tmp176, D.5309,
 746 0096 92B2     		uxth	r2, r2	@ D.5309, tmp176
 747 0098 1A80     		strh	r2, [r3]	@ movhi	@ tmp177, _38->CR1
 351:src/main.c    **** }
 748              		.loc 1 351 0 discriminator 2
 749 009a 1437     		adds	r7, r7, #20	@,,
 750 009c BD46     		mov	sp, r7	@,
 751              		@ sp needed	@
 752 009e 5DF8047B 		ldr	r7, [sp], #4	@,
 753 00a2 7047     		bx	lr	@
 754              	.L40:
 755              		.align	2
 756              	.L39:
 757 00a4 00540040 		.word	1073763328
 758              		.cfi_endproc
 759              	.LFE118:
 760              		.size	I2C_WRITE_REG, .-I2C_WRITE_REG
 761              		.section	.text.I2C_READ_REG,"ax",%progbits
 762              		.align	2
 763              		.global	I2C_READ_REG
 764              		.thumb
 765              		.thumb_func
 766              		.type	I2C_READ_REG, %function
 767              	I2C_READ_REG:
 768              	.LFB119:
 352:src/main.c    **** 
 353:src/main.c    **** void I2C_READ_REG( uint8_t adres, uint8_t reg_adres, uint8_t * dane, uint8_t len )
 354:src/main.c    **** {
 769              		.loc 1 354 0
 770              		.cfi_startproc
 771              		@ args = 0, pretend = 0, frame = 16
 772              		@ frame_needed = 1, uses_anonymous_args = 0
 773              		@ link register save eliminated.
 774 0000 80B4     		push	{r7}	@
 775              		.cfi_def_cfa_offset 4
 776              		.cfi_offset 7, -4
 777 0002 85B0     		sub	sp, sp, #20	@,,
 778              		.cfi_def_cfa_offset 24
 779 0004 00AF     		add	r7, sp, #0	@,,
 780              		.cfi_def_cfa_register 7
 781 0006 3A60     		str	r2, [r7]	@ dane, dane
 782 0008 0246     		mov	r2, r0	@ tmp171, tmp170
ARM GAS  C:\Users\Daro\AppData\Local\Temp\cc83WZOx.s 			page 21


 783 000a FA71     		strb	r2, [r7, #7]	@ tmp171, adres
 784 000c 0A46     		mov	r2, r1	@ tmp173, tmp172
 785 000e BA71     		strb	r2, [r7, #6]	@ tmp173, reg_adres
 786 0010 7B71     		strb	r3, [r7, #5]	@ tmp175, len
 355:src/main.c    **** 	uint32_t dummy;
 356:src/main.c    **** 
 357:src/main.c    **** 	I2C1->CR1 |= I2C_CR1_START;
 787              		.loc 1 357 0
 788 0012 434B     		ldr	r3, .L53	@ D.5311,
 789 0014 424A     		ldr	r2, .L53	@ D.5311,
 790 0016 1288     		ldrh	r2, [r2]	@ movhi	@ tmp176, _4->CR1
 791 0018 92B2     		uxth	r2, r2	@ D.5312, tmp176
 792 001a 42F48072 		orr	r2, r2, #256	@ tmp177, D.5312,
 793 001e 92B2     		uxth	r2, r2	@ D.5312, tmp177
 794 0020 1A80     		strh	r2, [r3]	@ movhi	@ tmp178, _3->CR1
 358:src/main.c    **** 	while( !( I2C1->SR1 & I2C_SR1_SB ));
 795              		.loc 1 358 0
 796 0022 00BF     		nop
 797              	.L42:
 798              		.loc 1 358 0 is_stmt 0 discriminator 1
 799 0024 3E4B     		ldr	r3, .L53	@ D.5311,
 800 0026 9B8A     		ldrh	r3, [r3, #20]	@ movhi	@ tmp180, _7->SR1
 801 0028 9BB2     		uxth	r3, r3	@ D.5312, tmp180
 802 002a 03F00103 		and	r3, r3, #1	@ D.5313, D.5313,
 803 002e 002B     		cmp	r3, #0	@ D.5313,
 804 0030 F8D0     		beq	.L42	@,
 359:src/main.c    **** 	I2C1->DR = adres;
 805              		.loc 1 359 0 is_stmt 1
 806 0032 3B4B     		ldr	r3, .L53	@ D.5311,
 807 0034 FA79     		ldrb	r2, [r7, #7]	@ zero_extendqisi2	@ tmp182, adres
 808 0036 92B2     		uxth	r2, r2	@ D.5312, tmp181
 809 0038 1A82     		strh	r2, [r3, #16]	@ movhi	@ tmp183, _11->DR
 360:src/main.c    **** 	while( !( I2C1->SR1 & I2C_SR1_ADDR ));
 810              		.loc 1 360 0
 811 003a 00BF     		nop
 812              	.L43:
 813              		.loc 1 360 0 is_stmt 0 discriminator 1
 814 003c 384B     		ldr	r3, .L53	@ D.5311,
 815 003e 9B8A     		ldrh	r3, [r3, #20]	@ movhi	@ tmp185, _14->SR1
 816 0040 9BB2     		uxth	r3, r3	@ D.5312, tmp185
 817 0042 03F00203 		and	r3, r3, #2	@ D.5313, D.5313,
 818 0046 002B     		cmp	r3, #0	@ D.5313,
 819 0048 F8D0     		beq	.L43	@,
 361:src/main.c    **** 	dummy = I2C1->SR2;
 820              		.loc 1 361 0 is_stmt 1
 821 004a 354B     		ldr	r3, .L53	@ D.5311,
 822 004c 1B8B     		ldrh	r3, [r3, #24]	@ movhi	@ tmp187, _18->SR2
 823 004e 9BB2     		uxth	r3, r3	@ D.5312, tmp187
 824 0050 FB60     		str	r3, [r7, #12]	@ D.5312, dummy
 362:src/main.c    **** 	while( !( I2C1->SR1 & I2C_SR1_TXE ));
 825              		.loc 1 362 0
 826 0052 00BF     		nop
 827              	.L44:
 828              		.loc 1 362 0 is_stmt 0 discriminator 1
 829 0054 324B     		ldr	r3, .L53	@ D.5311,
 830 0056 9B8A     		ldrh	r3, [r3, #20]	@ movhi	@ tmp189, _21->SR1
 831 0058 9BB2     		uxth	r3, r3	@ D.5312, tmp189
ARM GAS  C:\Users\Daro\AppData\Local\Temp\cc83WZOx.s 			page 22


 832 005a 03F08003 		and	r3, r3, #128	@ D.5313, D.5313,
 833 005e 002B     		cmp	r3, #0	@ D.5313,
 834 0060 F8D0     		beq	.L44	@,
 363:src/main.c    **** 	I2C1->DR = reg_adres;
 835              		.loc 1 363 0 is_stmt 1
 836 0062 2F4B     		ldr	r3, .L53	@ D.5311,
 837 0064 BA79     		ldrb	r2, [r7, #6]	@ zero_extendqisi2	@ tmp191, reg_adres
 838 0066 92B2     		uxth	r2, r2	@ D.5312, tmp190
 839 0068 1A82     		strh	r2, [r3, #16]	@ movhi	@ tmp192, _25->DR
 364:src/main.c    **** 	while( !( I2C1->SR1 & I2C_SR1_BTF ));
 840              		.loc 1 364 0
 841 006a 00BF     		nop
 842              	.L45:
 843              		.loc 1 364 0 is_stmt 0 discriminator 1
 844 006c 2C4B     		ldr	r3, .L53	@ D.5311,
 845 006e 9B8A     		ldrh	r3, [r3, #20]	@ movhi	@ tmp194, _28->SR1
 846 0070 9BB2     		uxth	r3, r3	@ D.5312, tmp194
 847 0072 03F00403 		and	r3, r3, #4	@ D.5313, D.5313,
 848 0076 002B     		cmp	r3, #0	@ D.5313,
 849 0078 F8D0     		beq	.L45	@,
 365:src/main.c    **** 	I2C1->CR1 |= I2C_CR1_START;
 850              		.loc 1 365 0 is_stmt 1
 851 007a 294B     		ldr	r3, .L53	@ D.5311,
 852 007c 284A     		ldr	r2, .L53	@ D.5311,
 853 007e 1288     		ldrh	r2, [r2]	@ movhi	@ tmp195, _33->CR1
 854 0080 92B2     		uxth	r2, r2	@ D.5312, tmp195
 855 0082 42F48072 		orr	r2, r2, #256	@ tmp196, D.5312,
 856 0086 92B2     		uxth	r2, r2	@ D.5312, tmp196
 857 0088 1A80     		strh	r2, [r3]	@ movhi	@ tmp197, _32->CR1
 366:src/main.c    **** 	while( !( I2C1->SR1 & I2C_SR1_SB ));
 858              		.loc 1 366 0
 859 008a 00BF     		nop
 860              	.L46:
 861              		.loc 1 366 0 is_stmt 0 discriminator 1
 862 008c 244B     		ldr	r3, .L53	@ D.5311,
 863 008e 9B8A     		ldrh	r3, [r3, #20]	@ movhi	@ tmp199, _36->SR1
 864 0090 9BB2     		uxth	r3, r3	@ D.5312, tmp199
 865 0092 03F00103 		and	r3, r3, #1	@ D.5313, D.5313,
 866 0096 002B     		cmp	r3, #0	@ D.5313,
 867 0098 F8D0     		beq	.L46	@,
 367:src/main.c    **** 	I2C1->DR = adres | 0x01;
 868              		.loc 1 367 0 is_stmt 1
 869 009a 214B     		ldr	r3, .L53	@ D.5311,
 870 009c FA79     		ldrb	r2, [r7, #7]	@ tmp200, adres
 871 009e 42F00102 		orr	r2, r2, #1	@ tmp201, tmp200,
 872 00a2 D2B2     		uxtb	r2, r2	@ D.5314, tmp201
 873 00a4 1A82     		strh	r2, [r3, #16]	@ movhi	@ tmp202, _40->DR
 368:src/main.c    **** 	while( !( I2C1->SR1 & I2C_SR1_ADDR ));
 874              		.loc 1 368 0
 875 00a6 00BF     		nop
 876              	.L47:
 877              		.loc 1 368 0 is_stmt 0 discriminator 1
 878 00a8 1D4B     		ldr	r3, .L53	@ D.5311,
 879 00aa 9B8A     		ldrh	r3, [r3, #20]	@ movhi	@ tmp204, _43->SR1
 880 00ac 9BB2     		uxth	r3, r3	@ D.5312, tmp204
 881 00ae 03F00203 		and	r3, r3, #2	@ D.5313, D.5313,
 882 00b2 002B     		cmp	r3, #0	@ D.5313,
ARM GAS  C:\Users\Daro\AppData\Local\Temp\cc83WZOx.s 			page 23


 883 00b4 F8D0     		beq	.L47	@,
 369:src/main.c    **** 	dummy = I2C1->SR2;
 884              		.loc 1 369 0 is_stmt 1
 885 00b6 1A4B     		ldr	r3, .L53	@ D.5311,
 886 00b8 1B8B     		ldrh	r3, [r3, #24]	@ movhi	@ tmp206, _47->SR2
 887 00ba 9BB2     		uxth	r3, r3	@ D.5312, tmp206
 888 00bc FB60     		str	r3, [r7, #12]	@ D.5312, dummy
 370:src/main.c    **** 
 371:src/main.c    **** 	while( len )
 889              		.loc 1 371 0
 890 00be 1EE0     		b	.L48	@
 891              	.L51:
 372:src/main.c    **** 	{
 373:src/main.c    **** 	   if( len == 1 )
 892              		.loc 1 373 0
 893 00c0 7B79     		ldrb	r3, [r7, #5]	@ zero_extendqisi2	@ tmp207, len
 894 00c2 012B     		cmp	r3, #1	@ tmp207,
 895 00c4 08D1     		bne	.L49	@,
 374:src/main.c    **** 	       I2C1->CR1 &= ~I2C_CR1_ACK;
 896              		.loc 1 374 0
 897 00c6 164B     		ldr	r3, .L53	@ D.5311,
 898 00c8 154A     		ldr	r2, .L53	@ D.5311,
 899 00ca 1288     		ldrh	r2, [r2]	@ movhi	@ tmp208, _53->CR1
 900 00cc 92B2     		uxth	r2, r2	@ D.5312, tmp208
 901 00ce 22F48062 		bic	r2, r2, #1024	@ tmp209, D.5312,
 902 00d2 92B2     		uxth	r2, r2	@ D.5312, tmp209
 903 00d4 1A80     		strh	r2, [r3]	@ movhi	@ tmp210, _52->CR1
 375:src/main.c    **** 
 376:src/main.c    **** 	   while( !( I2C1->SR1 & I2C_SR1_RXNE ));
 904              		.loc 1 376 0
 905 00d6 FFE7     		b	.L52	@
 906              	.L49:
 907              	.L52:
 908 00d8 00BF     		nop
 909              	.L50:
 910              		.loc 1 376 0 is_stmt 0 discriminator 1
 911 00da 114B     		ldr	r3, .L53	@ D.5311,
 912 00dc 9B8A     		ldrh	r3, [r3, #20]	@ movhi	@ tmp212, _56->SR1
 913 00de 9BB2     		uxth	r3, r3	@ D.5312, tmp212
 914 00e0 03F04003 		and	r3, r3, #64	@ D.5313, D.5313,
 915 00e4 002B     		cmp	r3, #0	@ D.5313,
 916 00e6 F8D0     		beq	.L50	@,
 377:src/main.c    **** 	   *( dane++ ) = I2C1->DR;
 917              		.loc 1 377 0 is_stmt 1
 918 00e8 3B68     		ldr	r3, [r7]	@ dane.10, dane
 919 00ea 5A1C     		adds	r2, r3, #1	@ tmp213, dane.10,
 920 00ec 3A60     		str	r2, [r7]	@ tmp213, dane
 921 00ee 0C4A     		ldr	r2, .L53	@ D.5311,
 922 00f0 128A     		ldrh	r2, [r2, #16]	@ movhi	@ tmp215, _62->DR
 923 00f2 92B2     		uxth	r2, r2	@ D.5312, tmp215
 924 00f4 D2B2     		uxtb	r2, r2	@ D.5314, D.5312
 925 00f6 1A70     		strb	r2, [r3]	@ tmp216, *dane.10_60
 378:src/main.c    **** 
 379:src/main.c    **** 	   len--;
 926              		.loc 1 379 0
 927 00f8 7B79     		ldrb	r3, [r7, #5]	@ zero_extendqisi2	@ len.11, len
 928 00fa 013B     		subs	r3, r3, #1	@ tmp217, len.11,
ARM GAS  C:\Users\Daro\AppData\Local\Temp\cc83WZOx.s 			page 24


 929 00fc 7B71     		strb	r3, [r7, #5]	@ tmp218, len
 930              	.L48:
 371:src/main.c    **** 	{
 931              		.loc 1 371 0 discriminator 1
 932 00fe 7B79     		ldrb	r3, [r7, #5]	@ zero_extendqisi2	@ tmp219, len
 933 0100 002B     		cmp	r3, #0	@ tmp219,
 934 0102 DDD1     		bne	.L51	@,
 380:src/main.c    **** 	}
 381:src/main.c    **** 
 382:src/main.c    **** 	I2C1->CR1 |= I2C_CR1_STOP;
 935              		.loc 1 382 0
 936 0104 064B     		ldr	r3, .L53	@ D.5311,
 937 0106 064A     		ldr	r2, .L53	@ D.5311,
 938 0108 1288     		ldrh	r2, [r2]	@ movhi	@ tmp220, _68->CR1
 939 010a 92B2     		uxth	r2, r2	@ D.5312, tmp220
 940 010c 42F40072 		orr	r2, r2, #512	@ tmp221, D.5312,
 941 0110 92B2     		uxth	r2, r2	@ D.5312, tmp221
 942 0112 1A80     		strh	r2, [r3]	@ movhi	@ tmp222, _67->CR1
 383:src/main.c    **** }
 943              		.loc 1 383 0
 944 0114 1437     		adds	r7, r7, #20	@,,
 945 0116 BD46     		mov	sp, r7	@,
 946              		@ sp needed	@
 947 0118 5DF8047B 		ldr	r7, [sp], #4	@,
 948 011c 7047     		bx	lr	@
 949              	.L54:
 950 011e 00BF     		.align	2
 951              	.L53:
 952 0120 00540040 		.word	1073763328
 953              		.cfi_endproc
 954              	.LFE119:
 955              		.size	I2C_READ_REG, .-I2C_READ_REG
 956              		.section	.text.readtemp,"ax",%progbits
 957              		.align	2
 958              		.global	readtemp
 959              		.thumb
 960              		.thumb_func
 961              		.type	readtemp, %function
 962              	readtemp:
 963              	.LFB120:
 384:src/main.c    **** 
 385:src/main.c    **** uint32_t readtemp(void)
 386:src/main.c    **** {
 964              		.loc 1 386 0
 965              		.cfi_startproc
 966              		@ args = 0, pretend = 0, frame = 8
 967              		@ frame_needed = 1, uses_anonymous_args = 0
 968 0000 80B5     		push	{r7, lr}	@
 969              		.cfi_def_cfa_offset 8
 970              		.cfi_offset 7, -8
 971              		.cfi_offset 14, -4
 972 0002 82B0     		sub	sp, sp, #8	@,,
 973              		.cfi_def_cfa_offset 16
 974 0004 00AF     		add	r7, sp, #0	@,,
 975              		.cfi_def_cfa_register 7
 387:src/main.c    **** 	I2C_WRITE_REG(0x77, 0x50 + 1);
 976              		.loc 1 387 0
ARM GAS  C:\Users\Daro\AppData\Local\Temp\cc83WZOx.s 			page 25


 977 0006 7720     		movs	r0, #119	@,
 978 0008 5121     		movs	r1, #81	@,
 979 000a FFF7FEFF 		bl	I2C_WRITE_REG	@
 388:src/main.c    **** 	delay_ms(10);
 980              		.loc 1 388 0
 981 000e 0A20     		movs	r0, #10	@,
 982 0010 FFF7FEFF 		bl	delay_ms	@
 389:src/main.c    **** 
 390:src/main.c    **** 	uint32_t b = 0;
 983              		.loc 1 390 0
 984 0014 0023     		movs	r3, #0	@ tmp113,
 985 0016 7B60     		str	r3, [r7, #4]	@ tmp113, b
 391:src/main.c    **** 	I2C_READ_REG(0x77, 0, (uint8_t*) b, 3);
 986              		.loc 1 391 0
 987 0018 7B68     		ldr	r3, [r7, #4]	@ b.12, b
 988 001a 7720     		movs	r0, #119	@,
 989 001c 0021     		movs	r1, #0	@,
 990 001e 1A46     		mov	r2, r3	@, b.12
 991 0020 0323     		movs	r3, #3	@,
 992 0022 FFF7FEFF 		bl	I2C_READ_REG	@
 392:src/main.c    **** 	return b;
 993              		.loc 1 392 0
 994 0026 7B68     		ldr	r3, [r7, #4]	@ D.5315, b
 393:src/main.c    **** }
 995              		.loc 1 393 0
 996 0028 1846     		mov	r0, r3	@, <retval>
 997 002a 0837     		adds	r7, r7, #8	@,,
 998 002c BD46     		mov	sp, r7	@,
 999              		@ sp needed	@
 1000 002e 80BD     		pop	{r7, pc}	@
 1001              		.cfi_endproc
 1002              	.LFE120:
 1003              		.size	readtemp, .-readtemp
 1004              		.section	.rodata
 1005              		.align	2
 1006              	.LC0:
 1007 0000 74657374 		.ascii	"test usart3...\015\012\000"
 1007      20757361 
 1007      7274332E 
 1007      2E2E0D0A 
 1007      00
 1008 0011 000000   		.section	.text.main,"ax",%progbits
 1009              		.align	2
 1010              		.global	main
 1011              		.thumb
 1012              		.thumb_func
 1013              		.type	main, %function
 1014              	main:
 1015              	.LFB121:
 394:src/main.c    **** 
 395:src/main.c    **** int main(void)
 396:src/main.c    **** {
 1016              		.loc 1 396 0
 1017              		.cfi_startproc
 1018              		@ args = 0, pretend = 0, frame = 16
 1019              		@ frame_needed = 1, uses_anonymous_args = 0
 1020 0000 80B5     		push	{r7, lr}	@
ARM GAS  C:\Users\Daro\AppData\Local\Temp\cc83WZOx.s 			page 26


 1021              		.cfi_def_cfa_offset 8
 1022              		.cfi_offset 7, -8
 1023              		.cfi_offset 14, -4
 1024 0002 84B0     		sub	sp, sp, #16	@,,
 1025              		.cfi_def_cfa_offset 24
 1026 0004 00AF     		add	r7, sp, #0	@,,
 1027              		.cfi_def_cfa_register 7
 397:src/main.c    **** 	FPU_Enable();
 1028              		.loc 1 397 0
 1029 0006 FFF7FEFF 		bl	FPU_Enable	@
 398:src/main.c    **** 	PLL_Start(CRYSTAL, FREQUENCY);
 1030              		.loc 1 398 0
 1031 000a 1148     		ldr	r0, .L59	@,
 1032 000c 1149     		ldr	r1, .L59+4	@,
 1033 000e FFF7FEFF 		bl	PLL_Start	@
 399:src/main.c    **** 	GPIO_InitAll();
 1034              		.loc 1 399 0
 1035 0012 FFF7FEFF 		bl	GPIO_InitAll	@
 400:src/main.c    **** 	Delay_Config(168000000UL);
 1036              		.loc 1 400 0
 1037 0016 0F48     		ldr	r0, .L59+4	@,
 1038 0018 FFF7FEFF 		bl	Delay_Config	@
 401:src/main.c    **** 	Serial_Init();
 1039              		.loc 1 401 0
 1040 001c FFF7FEFF 		bl	Serial_Init	@
 402:src/main.c    **** 	Serial_Puts("test usart3...\r\n");
 1041              		.loc 1 402 0
 1042 0020 0D48     		ldr	r0, .L59+8	@,
 1043 0022 FFF7FEFF 		bl	Serial_Puts	@
 403:src/main.c    **** 
 404:src/main.c    **** 	i2c_init();
 1044              		.loc 1 404 0
 1045 0026 FFF7FEFF 		bl	i2c_init	@
 1046              	.L58:
 1047              	.LBB2:
 405:src/main.c    **** 
 406:src/main.c    **** 
 407:src/main.c    **** 
 408:src/main.c    **** 	//mems_init();
 409:src/main.c    **** 	//LCD_SPI_Config();
 410:src/main.c    **** 	//LCD_Init();
 411:src/main.c    **** 	//LCD_SetPixel(1, 1, 0xDEAD);
 412:src/main.c    **** 
 413:src/main.c    **** 	//GPIO_ConfigPin(GPIOD, 12, GPIO_OUT_PP_100MHz);
 414:src/main.c    **** 	/*RCC->APB2ENR |= RCC_APB2ENR_TIM1EN;
 415:src/main.c    **** 	TIM1->PSC   = 8399; // 84MHz/8400=10000
 416:src/main.c    **** 	TIM1->ARR   = 9999; // 10000/10000=1
 417:src/main.c    **** 	TIM1->DIER |= TIM_DIER_UIE; // waczenie przerwania update
 418:src/main.c    **** 	TIM1->RCR = 9; // co ile przepelnien ma nastapic przerwanie
 419:src/main.c    **** 	TIM1->CR1  |= TIM_CR1_CEN; // waczenie zegara
 420:src/main.c    **** 	NVIC_EnableIRQ(TIM1_UP_TIM10_IRQn);
 421:src/main.c    **** 
 422:src/main.c    **** 	GPIO_ConfigPin(GPIOD, 12, GPIO_AF2_PP_100MHz);
 423:src/main.c    **** 	RCC->APB1ENR |= RCC_APB1ENR_TIM4EN;
 424:src/main.c    **** 	TIM4->PSC = 83; // 84MHz/84=1MHz
 425:src/main.c    **** 	TIM4->ARR = 15; // 1MHz/16=62.5kHz
 426:src/main.c    **** 	TIM4->CCR1 = 8;
ARM GAS  C:\Users\Daro\AppData\Local\Temp\cc83WZOx.s 			page 27


 427:src/main.c    **** 	TIM4->CCMR1 |= TIM_CCMR1_OC1M_1 | TIM_CCMR1_OC1M_2;
 428:src/main.c    **** 	TIM4->CR1 |= TIM_CR1_ARPE;
 429:src/main.c    **** 	TIM4->CCER |= TIM_CCER_CC1E;
 430:src/main.c    **** 	TIM4->CR1 |= TIM_CR1_CEN;*/
 431:src/main.c    **** 
 432:src/main.c    **** 	while(1)
 433:src/main.c    **** 	{
 434:src/main.c    **** 
 435:src/main.c    **** 		uint32_t t = readtemp();
 1048              		.loc 1 435 0 discriminator 1
 1049 002a FFF7FEFF 		bl	readtemp	@
 1050 002e F860     		str	r0, [r7, #12]	@, t
 436:src/main.c    **** 
 437:src/main.c    **** 			char buf[10];
 438:src/main.c    **** 			itoa(t, buf, 16);
 1051              		.loc 1 438 0 discriminator 1
 1052 0030 FA68     		ldr	r2, [r7, #12]	@ t.13, t
 1053 0032 3B46     		mov	r3, r7	@ tmp112,
 1054 0034 1046     		mov	r0, r2	@, t.13
 1055 0036 1946     		mov	r1, r3	@, tmp112
 1056 0038 1022     		movs	r2, #16	@,
 1057 003a FFF7FEFF 		bl	itoa	@
 439:src/main.c    **** 			Serial_Puts(buf);
 1058              		.loc 1 439 0 discriminator 1
 1059 003e 3B46     		mov	r3, r7	@ tmp113,
 1060 0040 1846     		mov	r0, r3	@, tmp113
 1061 0042 FFF7FEFF 		bl	Serial_Puts	@
 440:src/main.c    **** 
 441:src/main.c    **** 			delay_ms(100);
 1062              		.loc 1 441 0 discriminator 1
 1063 0046 6420     		movs	r0, #100	@,
 1064 0048 FFF7FEFF 		bl	delay_ms	@
 1065              	.LBE2:
 442:src/main.c    **** 
 443:src/main.c    **** 
 444:src/main.c    **** 		/*delay_ms(100);
 445:src/main.c    **** 
 446:src/main.c    **** 		acc_t acc;
 447:src/main.c    **** 		mems_read_axis(&acc);
 448:src/main.c    **** 
 449:src/main.c    **** 		char x[4] = {0},
 450:src/main.c    **** 			 y[4] = {0},
 451:src/main.c    **** 			 z[4] = {0};
 452:src/main.c    **** 
 453:src/main.c    **** 		itoa(acc.x, x, 10);
 454:src/main.c    **** 		Serial_Puts(x);
 455:src/main.c    **** 
 456:src/main.c    **** 		Serial_Puts("\t");
 457:src/main.c    **** 		itoa(acc.y, y, 10);
 458:src/main.c    **** 		Serial_Puts(y);
 459:src/main.c    **** 
 460:src/main.c    **** 		Serial_Puts("\t");
 461:src/main.c    **** 		itoa(acc.z, z, 10);
 462:src/main.c    **** 		Serial_Puts(z);
 463:src/main.c    **** 
 464:src/main.c    **** 		Serial_Puts("\r\n");
 465:src/main.c    **** */
ARM GAS  C:\Users\Daro\AppData\Local\Temp\cc83WZOx.s 			page 28


 466:src/main.c    **** 	}
 1066              		.loc 1 466 0 discriminator 1
 1067 004c EDE7     		b	.L58	@
 1068              	.L60:
 1069 004e 00BF     		.align	2
 1070              	.L59:
 1071 0050 00127A00 		.word	8000000
 1072 0054 007A030A 		.word	168000000
 1073 0058 00000000 		.word	.LC0
 1074              		.cfi_endproc
 1075              	.LFE121:
 1076              		.size	main, .-main
 1077              		.section	.text.TIM1_UP_TIM10_IRQHandler,"ax",%progbits
 1078              		.align	2
 1079              		.global	TIM1_UP_TIM10_IRQHandler
 1080              		.thumb
 1081              		.thumb_func
 1082              		.type	TIM1_UP_TIM10_IRQHandler, %function
 1083              	TIM1_UP_TIM10_IRQHandler:
 1084              	.LFB122:
 467:src/main.c    **** 
 468:src/main.c    **** 	return 0;
 469:src/main.c    **** }
 470:src/main.c    **** 
 471:src/main.c    **** void TIM1_UP_TIM10_IRQHandler(void)
 472:src/main.c    **** {
 1085              		.loc 1 472 0
 1086              		.cfi_startproc
 1087              		@ args = 0, pretend = 0, frame = 0
 1088              		@ frame_needed = 1, uses_anonymous_args = 0
 1089              		@ link register save eliminated.
 1090 0000 80B4     		push	{r7}	@
 1091              		.cfi_def_cfa_offset 4
 1092              		.cfi_offset 7, -4
 1093 0002 00AF     		add	r7, sp, #0	@,,
 1094              		.cfi_def_cfa_register 7
 473:src/main.c    **** 	if (TIM1->SR & TIM_SR_UIF)
 1095              		.loc 1 473 0
 1096 0004 094B     		ldr	r3, .L63	@ D.5317,
 1097 0006 1B8A     		ldrh	r3, [r3, #16]	@ movhi	@ tmp119, _1->SR
 1098 0008 9BB2     		uxth	r3, r3	@ D.5318, tmp119
 1099 000a 03F00103 		and	r3, r3, #1	@ D.5319, D.5319,
 1100 000e 002B     		cmp	r3, #0	@ D.5319,
 1101 0010 07D0     		beq	.L61	@,
 474:src/main.c    **** 	{
 475:src/main.c    **** 		TIM1->SR &= ~TIM_SR_UIF;
 1102              		.loc 1 475 0
 1103 0012 064B     		ldr	r3, .L63	@ D.5317,
 1104 0014 054A     		ldr	r2, .L63	@ D.5317,
 1105 0016 128A     		ldrh	r2, [r2, #16]	@ movhi	@ tmp121, _6->SR
 1106 0018 92B2     		uxth	r2, r2	@ D.5318, tmp121
 1107 001a 22F00102 		bic	r2, r2, #1	@ tmp122, D.5318,
 1108 001e 92B2     		uxth	r2, r2	@ D.5318, tmp122
 1109 0020 1A82     		strh	r2, [r3, #16]	@ movhi	@ tmp123, _5->SR
 1110              	.L61:
 476:src/main.c    **** 		//TIM4->CCR1 += 1;
 477:src/main.c    **** 	}
ARM GAS  C:\Users\Daro\AppData\Local\Temp\cc83WZOx.s 			page 29


 478:src/main.c    **** }
 1111              		.loc 1 478 0
 1112 0022 BD46     		mov	sp, r7	@,
 1113              		@ sp needed	@
 1114 0024 5DF8047B 		ldr	r7, [sp], #4	@,
 1115 0028 7047     		bx	lr	@
 1116              	.L64:
 1117 002a 00BF     		.align	2
 1118              	.L63:
 1119 002c 00000140 		.word	1073807360
 1120              		.cfi_endproc
 1121              	.LFE122:
 1122              		.size	TIM1_UP_TIM10_IRQHandler, .-TIM1_UP_TIM10_IRQHandler
 1123              		.text
 1124              	.Letext0:
 1125              		.file 2 "i:\\arm\\toolchains\\gcc-arm-none-eabi-4_8-131228\\arm-none-eabi\\include\\machine\\_defa
 1126              		.file 3 "i:\\arm\\toolchains\\gcc-arm-none-eabi-4_8-131228\\arm-none-eabi\\include\\stdint.h"
 1127              		.file 4 "I:\\arm\\lib\\stm32f4xx/stm32f4xx.h"
 1128              		.file 5 "./include/delay.h"
 1129              		.file 6 "I:\\arm\\lib\\cmsis/core_cm4.h"