ARM GAS  C:\Users\Daro\AppData\Local\Temp\ccOq9nul.s 			page 1


   1              		.syntax unified
   2              		.cpu cortex-m3
   3              		.fpu softvfp
   4              		.eabi_attribute 20, 1	@ Tag_ABI_FP_denormal
   5              		.eabi_attribute 21, 1	@ Tag_ABI_FP_exceptions
   6              		.eabi_attribute 23, 3	@ Tag_ABI_FP_number_model
   7              		.eabi_attribute 24, 1	@ Tag_ABI_align8_needed
   8              		.eabi_attribute 25, 1	@ Tag_ABI_align8_preserved
   9              		.eabi_attribute 26, 1	@ Tag_ABI_enum_size
  10              		.eabi_attribute 30, 6	@ Tag_ABI_optimization_goals
  11              		.eabi_attribute 34, 1	@ Tag_CPU_unaligned_access
  12              		.eabi_attribute 18, 4	@ Tag_ABI_PCS_wchar_t
  13              		.file	"gpio.c"
  14              	@ GNU C (GNU Tools for ARM Embedded Processors / bleeding-edge-toolchain-141220) version 4.9.3 2014
  15              	@	compiled by GNU C version 4.9.2, GMP version 6.0.0, MPFR version 3.1.2, MPC version 1.0.2
  16              	@ GGC heuristics: --param ggc-min-expand=100 --param ggc-min-heapsize=131072
  17              	@ options passed:  -I . -imultilib armv7-m
  18              	@ -iprefix c:\dev\arm\toolchains\gcc-arm-none-eabi-4_9-141220\bin\../lib/gcc/arm-none-eabi/4.9.3/
  19              	@ -isysroot c:\dev\arm\toolchains\gcc-arm-none-eabi-4_9-141220\bin\../arm-none-eabi
  20              	@ -MD out/gpio.d -MF out/gpio.d -MP -MQ out/gpio.o -D__USES_INITFINI__
  21              	@ -D STM32F10X_MD gpio.c -mcpu=cortex-m3 -mthumb -auxbase-strip out/gpio.o
  22              	@ -g -ggdb3 -O0 -Wall -Wstrict-prototypes -Wextra -std=gnu90
  23              	@ -ffunction-sections -fdata-sections -fverbose-asm
  24              	@ options enabled:  -faggressive-loop-optimizations -fauto-inc-dec -fcommon
  25              	@ -fdata-sections -fdelete-null-pointer-checks -fdwarf2-cfi-asm
  26              	@ -fearly-inlining -feliminate-unused-debug-types -ffunction-cse
  27              	@ -ffunction-sections -fgcse-lm -fgnu-runtime -fgnu-unique -fident
  28              	@ -finline-atomics -fira-hoist-pressure -fira-share-save-slots
  29              	@ -fira-share-spill-slots -fivopts -fkeep-static-consts
  30              	@ -fleading-underscore -fmath-errno -fmerge-debug-strings -fpeephole
  31              	@ -fprefetch-loop-arrays -freg-struct-return
  32              	@ -fsched-critical-path-heuristic -fsched-dep-count-heuristic
  33              	@ -fsched-group-heuristic -fsched-interblock -fsched-last-insn-heuristic
  34              	@ -fsched-rank-heuristic -fsched-spec -fsched-spec-insn-heuristic
  35              	@ -fsched-stalled-insns-dep -fshow-column -fsigned-zeros
  36              	@ -fsplit-ivs-in-unroller -fstrict-volatile-bitfields -fsync-libcalls
  37              	@ -ftrapping-math -ftree-coalesce-vars -ftree-cselim -ftree-forwprop
  38              	@ -ftree-loop-if-convert -ftree-loop-im -ftree-loop-ivcanon
  39              	@ -ftree-loop-optimize -ftree-parallelize-loops= -ftree-phiprop
  40              	@ -ftree-reassoc -ftree-scev-cprop -funit-at-a-time -fverbose-asm
  41              	@ -fzero-initialized-in-bss -mfix-cortex-m3-ldrd -mlittle-endian -mlra
  42              	@ -mpic-data-is-text-relative -msched-prolog -mthumb -munaligned-access
  43              	@ -mvectorize-with-neon-quad
  44              	
  45              		.text
  46              	.Ltext0:
  47              		.cfi_sections	.debug_frame
  48              		.section	.text.gpio_init,"ax",%progbits
  49              		.align	2
  50              		.global	gpio_init
  51              		.thumb
  52              		.thumb_func
  53              		.type	gpio_init, %function
  54              	gpio_init:
  55              	.LFB29:
  56              		.file 1 "gpio.c"
   1:gpio.c        **** /** \file gpio.c
ARM GAS  C:\Users\Daro\AppData\Local\Temp\ccOq9nul.s 			page 2


   2:gpio.c        ****  * \brief GPIO driver.
   3:gpio.c        ****  * \details GPIO default configuration and function for configuring a pin
   4:gpio.c        ****  * \author Freddie Chopin, http://www.freddiechopin.info/
   5:gpio.c        ****  * \date 2012-01-07
   6:gpio.c        ****  */
   7:gpio.c        **** 
   8:gpio.c        **** /******************************************************************************
   9:gpio.c        **** * chip: STM32F1x
  10:gpio.c        **** * compiler: arm-none-eabi-gcc (Sourcery CodeBench Lite 2011.09-69) 4.6.1
  11:gpio.c        **** *
  12:gpio.c        **** * prefix: gpio_
  13:gpio.c        **** *
  14:gpio.c        **** * available global functions:
  15:gpio.c        **** * 	void gpio_init(void)
  16:gpio.c        **** * 	void gpio_pin_cfg(GPIO_TypeDef *port_ptr, uint32_t pin, uint32_t mode_cnf_value)
  17:gpio.c        **** *
  18:gpio.c        **** * available local functions:
  19:gpio.c        **** *
  20:gpio.c        **** * available interrupt handlers:
  21:gpio.c        **** ******************************************************************************/
  22:gpio.c        **** 
  23:gpio.c        **** /*
  24:gpio.c        **** +=============================================================================+
  25:gpio.c        **** | includes
  26:gpio.c        **** +=============================================================================+
  27:gpio.c        **** */
  28:gpio.c        **** 
  29:gpio.c        **** #include <stdint.h>
  30:gpio.c        **** 
  31:gpio.c        **** #include "inc/stm32f10x.h"
  32:gpio.c        **** 
  33:gpio.c        **** #include "hdr/hdr_gpio.h"
  34:gpio.c        **** 
  35:gpio.c        **** #include "gpio.h"
  36:gpio.c        **** 
  37:gpio.c        **** /*
  38:gpio.c        **** +=============================================================================+
  39:gpio.c        **** | module variables
  40:gpio.c        **** +=============================================================================+
  41:gpio.c        **** */
  42:gpio.c        **** 
  43:gpio.c        **** /*
  44:gpio.c        **** +=============================================================================+
  45:gpio.c        **** | local functions' declarations
  46:gpio.c        **** +=============================================================================+
  47:gpio.c        **** */
  48:gpio.c        **** 
  49:gpio.c        **** /*
  50:gpio.c        **** +=============================================================================+
  51:gpio.c        **** | global functions
  52:gpio.c        **** +=============================================================================+
  53:gpio.c        **** */
  54:gpio.c        **** 
  55:gpio.c        **** /*------------------------------------------------------------------------*//**
  56:gpio.c        **** * \brief GPIO initialization.
  57:gpio.c        **** * \details Enables AFIO, all GPIO ports and sets them to input with pull-downs.
  58:gpio.c        **** *//*-------------------------------------------------------------------------*/
ARM GAS  C:\Users\Daro\AppData\Local\Temp\ccOq9nul.s 			page 3


  59:gpio.c        **** 
  60:gpio.c        **** void gpio_init(void)
  61:gpio.c        **** {
  57              		.loc 1 61 0
  58              		.cfi_startproc
  59              		@ args = 0, pretend = 0, frame = 0
  60              		@ frame_needed = 1, uses_anonymous_args = 0
  61              		@ link register save eliminated.
  62 0000 80B4     		push	{r7}	@
  63              		.cfi_def_cfa_offset 4
  64              		.cfi_offset 7, -4
  65 0002 00AF     		add	r7, sp, #0	@,,
  66              		.cfi_def_cfa_register 7
  62:gpio.c        **** 	RCC->APB2ENR = RCC_APB2ENR_IOPAEN | RCC_APB2ENR_IOPBEN | RCC_APB2ENR_IOPCEN |
  67              		.loc 1 62 0
  68 0004 1E4B     		ldr	r3, .L2	@ D.5011,
  69 0006 7D22     		movs	r2, #125	@ tmp126,
  70 0008 9A61     		str	r2, [r3, #24]	@ tmp126, _1->APB2ENR
  63:gpio.c        **** 			RCC_APB2ENR_IOPDEN | RCC_APB2ENR_IOPEEN | RCC_APB2ENR_AFIOEN;	// enable all GPIOs and AFIO
  64:gpio.c        **** 
  65:gpio.c        **** 	// set all ports to input with pull-down
  66:gpio.c        **** 	GPIOA->CRL = 0x88888888;
  71              		.loc 1 66 0
  72 000a 1E4B     		ldr	r3, .L2+4	@ D.5012,
  73 000c 4FF08832 		mov	r2, #-2004318072	@ tmp127,
  74 0010 1A60     		str	r2, [r3]	@ tmp127, _2->CRL
  67:gpio.c        **** 	GPIOA->CRH = 0x88888888;
  75              		.loc 1 67 0
  76 0012 1C4B     		ldr	r3, .L2+4	@ D.5012,
  77 0014 4FF08832 		mov	r2, #-2004318072	@ tmp128,
  78 0018 5A60     		str	r2, [r3, #4]	@ tmp128, _3->CRH
  68:gpio.c        **** 	GPIOA->ODR = 0;
  79              		.loc 1 68 0
  80 001a 1A4B     		ldr	r3, .L2+4	@ D.5012,
  81 001c 0022     		movs	r2, #0	@ tmp129,
  82 001e DA60     		str	r2, [r3, #12]	@ tmp129, _4->ODR
  69:gpio.c        **** 	GPIOB->CRL = 0x88888888;
  83              		.loc 1 69 0
  84 0020 194B     		ldr	r3, .L2+8	@ D.5012,
  85 0022 4FF08832 		mov	r2, #-2004318072	@ tmp130,
  86 0026 1A60     		str	r2, [r3]	@ tmp130, _5->CRL
  70:gpio.c        **** 	GPIOB->CRH = 0x88888888;
  87              		.loc 1 70 0
  88 0028 174B     		ldr	r3, .L2+8	@ D.5012,
  89 002a 4FF08832 		mov	r2, #-2004318072	@ tmp131,
  90 002e 5A60     		str	r2, [r3, #4]	@ tmp131, _6->CRH
  71:gpio.c        **** 	GPIOB->ODR = 0;
  91              		.loc 1 71 0
  92 0030 154B     		ldr	r3, .L2+8	@ D.5012,
  93 0032 0022     		movs	r2, #0	@ tmp132,
  94 0034 DA60     		str	r2, [r3, #12]	@ tmp132, _7->ODR
  72:gpio.c        **** 	GPIOC->CRL = 0x88888888;
  95              		.loc 1 72 0
  96 0036 154B     		ldr	r3, .L2+12	@ D.5012,
  97 0038 4FF08832 		mov	r2, #-2004318072	@ tmp133,
  98 003c 1A60     		str	r2, [r3]	@ tmp133, _8->CRL
  73:gpio.c        **** 	GPIOC->CRH = 0x88888888;
ARM GAS  C:\Users\Daro\AppData\Local\Temp\ccOq9nul.s 			page 4


  99              		.loc 1 73 0
 100 003e 134B     		ldr	r3, .L2+12	@ D.5012,
 101 0040 4FF08832 		mov	r2, #-2004318072	@ tmp134,
 102 0044 5A60     		str	r2, [r3, #4]	@ tmp134, _9->CRH
  74:gpio.c        **** 	GPIOC->ODR = 0;
 103              		.loc 1 74 0
 104 0046 114B     		ldr	r3, .L2+12	@ D.5012,
 105 0048 0022     		movs	r2, #0	@ tmp135,
 106 004a DA60     		str	r2, [r3, #12]	@ tmp135, _10->ODR
  75:gpio.c        **** 	GPIOD->CRL = 0x88888888;
 107              		.loc 1 75 0
 108 004c 104B     		ldr	r3, .L2+16	@ D.5012,
 109 004e 4FF08832 		mov	r2, #-2004318072	@ tmp136,
 110 0052 1A60     		str	r2, [r3]	@ tmp136, _11->CRL
  76:gpio.c        **** 	GPIOD->CRH = 0x88888888;
 111              		.loc 1 76 0
 112 0054 0E4B     		ldr	r3, .L2+16	@ D.5012,
 113 0056 4FF08832 		mov	r2, #-2004318072	@ tmp137,
 114 005a 5A60     		str	r2, [r3, #4]	@ tmp137, _12->CRH
  77:gpio.c        **** 	GPIOD->ODR = 0;
 115              		.loc 1 77 0
 116 005c 0C4B     		ldr	r3, .L2+16	@ D.5012,
 117 005e 0022     		movs	r2, #0	@ tmp138,
 118 0060 DA60     		str	r2, [r3, #12]	@ tmp138, _13->ODR
  78:gpio.c        **** 	GPIOE->CRL = 0x88888888;
 119              		.loc 1 78 0
 120 0062 0C4B     		ldr	r3, .L2+20	@ D.5012,
 121 0064 4FF08832 		mov	r2, #-2004318072	@ tmp139,
 122 0068 1A60     		str	r2, [r3]	@ tmp139, _14->CRL
  79:gpio.c        **** 	GPIOE->CRH = 0x88888888;
 123              		.loc 1 79 0
 124 006a 0A4B     		ldr	r3, .L2+20	@ D.5012,
 125 006c 4FF08832 		mov	r2, #-2004318072	@ tmp140,
 126 0070 5A60     		str	r2, [r3, #4]	@ tmp140, _15->CRH
  80:gpio.c        **** 	GPIOE->ODR = 0;
 127              		.loc 1 80 0
 128 0072 084B     		ldr	r3, .L2+20	@ D.5012,
 129 0074 0022     		movs	r2, #0	@ tmp141,
 130 0076 DA60     		str	r2, [r3, #12]	@ tmp141, _16->ODR
  81:gpio.c        **** }
 131              		.loc 1 81 0
 132 0078 BD46     		mov	sp, r7	@,
 133              		.cfi_def_cfa_register 13
 134              		@ sp needed	@
 135 007a 5DF8047B 		ldr	r7, [sp], #4	@,
 136              		.cfi_restore 7
 137              		.cfi_def_cfa_offset 0
 138 007e 7047     		bx	lr	@
 139              	.L3:
 140              		.align	2
 141              	.L2:
 142 0080 00100240 		.word	1073876992
 143 0084 00080140 		.word	1073809408
 144 0088 000C0140 		.word	1073810432
 145 008c 00100140 		.word	1073811456
 146 0090 00140140 		.word	1073812480
 147 0094 00180140 		.word	1073813504
ARM GAS  C:\Users\Daro\AppData\Local\Temp\ccOq9nul.s 			page 5


 148              		.cfi_endproc
 149              	.LFE29:
 150              		.size	gpio_init, .-gpio_init
 151              		.section	.text.gpio_pin_cfg,"ax",%progbits
 152              		.align	2
 153              		.global	gpio_pin_cfg
 154              		.thumb
 155              		.thumb_func
 156              		.type	gpio_pin_cfg, %function
 157              	gpio_pin_cfg:
 158              	.LFB30:
  82:gpio.c        **** 
  83:gpio.c        **** /*------------------------------------------------------------------------*//**
  84:gpio.c        **** * \brief Configures pin.
  85:gpio.c        **** * \details Configures one pin in one port.
  86:gpio.c        **** *
  87:gpio.c        **** * \param [in] port_ptr points to the configuration structure of desired port
  88:gpio.c        **** * \param [in] pin selects one pin, [0,15]
  89:gpio.c        **** * \param [in] mode_cnf_value is a value of MODE and CNF which will be set for
  90:gpio.c        **** * selected pin, {GPIO_CRx_MODE_CNF_IN_ANALOG_value,
  91:gpio.c        **** * GPIO_CRx_MODE_CNF_IN_FLOATING_value, GPIO_CRx_MODE_CNF_IN_PULL_U_D_value,
  92:gpio.c        **** * GPIO_CRx_MODE_CNF_OUT_PP_2M_value, GPIO_CRx_MODE_CNF_OUT_PP_10M_value,
  93:gpio.c        **** * GPIO_CRx_MODE_CNF_OUT_PP_50M_value, GPIO_CRx_MODE_CNF_OUT_OD_2M_value,
  94:gpio.c        **** * GPIO_CRx_MODE_CNF_OUT_OD_10M_value, GPIO_CRx_MODE_CNF_OUT_OD_50M_value,
  95:gpio.c        **** * GPIO_CRx_MODE_CNF_ALT_PP_2M_value, GPIO_CRx_MODE_CNF_ALT_PP_10M_value,
  96:gpio.c        **** * GPIO_CRx_MODE_CNF_ALT_PP_50M_value, GPIO_CRx_MODE_CNF_ALT_OD_2M_value,
  97:gpio.c        **** * GPIO_CRx_MODE_CNF_ALT_OD_10M_value, GPIO_CRx_MODE_CNF_ALT_OD_50M_value} or
  98:gpio.c        **** * use m_GPIO_MODE_CNF_value(mode, cnf) macro
  99:gpio.c        **** *//*-------------------------------------------------------------------------*/
 100:gpio.c        **** 
 101:gpio.c        **** void gpio_pin_cfg(GPIO_TypeDef *port_ptr, uint32_t pin, uint32_t mode_cnf_value)
 102:gpio.c        **** {
 159              		.loc 1 102 0
 160              		.cfi_startproc
 161              		@ args = 0, pretend = 0, frame = 24
 162              		@ frame_needed = 1, uses_anonymous_args = 0
 163              		@ link register save eliminated.
 164 0000 80B4     		push	{r7}	@
 165              		.cfi_def_cfa_offset 4
 166              		.cfi_offset 7, -4
 167 0002 87B0     		sub	sp, sp, #28	@,,
 168              		.cfi_def_cfa_offset 32
 169 0004 00AF     		add	r7, sp, #0	@,,
 170              		.cfi_def_cfa_register 7
 171 0006 F860     		str	r0, [r7, #12]	@ port_ptr, port_ptr
 172 0008 B960     		str	r1, [r7, #8]	@ pin, pin
 173 000a 7A60     		str	r2, [r7, #4]	@ mode_cnf_value, mode_cnf_value
 103:gpio.c        **** 	volatile uint32_t *cr_ptr;
 104:gpio.c        **** 	uint32_t cr_value;
 105:gpio.c        **** 
 106:gpio.c        **** 	cr_ptr = &port_ptr->CRL;				// configuration of pins [0,7] is in CRL
 174              		.loc 1 106 0
 175 000c FB68     		ldr	r3, [r7, #12]	@ tmp118, port_ptr
 176 000e 7B61     		str	r3, [r7, #20]	@ tmp118, cr_ptr
 107:gpio.c        **** 
 108:gpio.c        **** 	if (pin >= 8)							// is pin in [8; 15]?
 177              		.loc 1 108 0
ARM GAS  C:\Users\Daro\AppData\Local\Temp\ccOq9nul.s 			page 6


 178 0010 BB68     		ldr	r3, [r7, #8]	@ tmp119, pin
 179 0012 072B     		cmp	r3, #7	@ tmp119,
 180 0014 05D9     		bls	.L5	@,
 109:gpio.c        **** 	{										// configuration of pins [8,15] is in CRH
 110:gpio.c        **** 		cr_ptr++;							// advance to next struct element CRL -> CRH
 181              		.loc 1 110 0
 182 0016 7B69     		ldr	r3, [r7, #20]	@ tmp121, cr_ptr
 183 0018 0433     		adds	r3, r3, #4	@ tmp120, tmp121,
 184 001a 7B61     		str	r3, [r7, #20]	@ tmp120, cr_ptr
 111:gpio.c        **** 		pin -= 8;							// crop the pin number
 185              		.loc 1 111 0
 186 001c BB68     		ldr	r3, [r7, #8]	@ tmp123, pin
 187 001e 083B     		subs	r3, r3, #8	@ tmp122, tmp123,
 188 0020 BB60     		str	r3, [r7, #8]	@ tmp122, pin
 189              	.L5:
 112:gpio.c        **** 	}
 113:gpio.c        **** 
 114:gpio.c        **** 	cr_value = *cr_ptr;						// localize the CRL / CRH value
 190              		.loc 1 114 0
 191 0022 7B69     		ldr	r3, [r7, #20]	@ tmp124, cr_ptr
 192 0024 1B68     		ldr	r3, [r3]	@ tmp125, *cr_ptr_2
 193 0026 3B61     		str	r3, [r7, #16]	@ tmp125, cr_value
 115:gpio.c        **** 
 116:gpio.c        **** 	cr_value &= ~(GPIO_CRx_MODE_CNF_mask << (pin * 4));	// clear the MODE and CNF fields (now that pin
 194              		.loc 1 116 0
 195 0028 BB68     		ldr	r3, [r7, #8]	@ tmp126, pin
 196 002a 9B00     		lsls	r3, r3, #2	@ D.5013, tmp126,
 197 002c 1A46     		mov	r2, r3	@ D.5014, D.5013
 198 002e 0F23     		movs	r3, #15	@ tmp127,
 199 0030 9340     		lsls	r3, r3, r2	@ D.5014, tmp127, D.5014
 200 0032 DB43     		mvns	r3, r3	@ D.5014, D.5014
 201 0034 1A46     		mov	r2, r3	@ D.5013, D.5014
 202 0036 3B69     		ldr	r3, [r7, #16]	@ tmp129, cr_value
 203 0038 1340     		ands	r3, r3, r2	@, tmp128, tmp129, D.5013
 204 003a 3B61     		str	r3, [r7, #16]	@ tmp128, cr_value
 117:gpio.c        **** 	cr_value |= (mode_cnf_value << (pin * 4));	// save new MODE and CNF value for desired pin
 205              		.loc 1 117 0
 206 003c BB68     		ldr	r3, [r7, #8]	@ tmp130, pin
 207 003e 9B00     		lsls	r3, r3, #2	@ D.5013, tmp130,
 208 0040 1A46     		mov	r2, r3	@ D.5014, D.5013
 209 0042 7B68     		ldr	r3, [r7, #4]	@ tmp131, mode_cnf_value
 210 0044 9340     		lsls	r3, r3, r2	@ D.5013, tmp131, D.5014
 211 0046 3A69     		ldr	r2, [r7, #16]	@ tmp133, cr_value
 212 0048 1343     		orrs	r3, r3, r2	@, tmp132, D.5013, tmp133
 213 004a 3B61     		str	r3, [r7, #16]	@ tmp132, cr_value
 118:gpio.c        **** 
 119:gpio.c        **** 	*cr_ptr = cr_value;						// save localized value to CRL / CRL
 214              		.loc 1 119 0
 215 004c 7B69     		ldr	r3, [r7, #20]	@ tmp134, cr_ptr
 216 004e 3A69     		ldr	r2, [r7, #16]	@ tmp135, cr_value
 217 0050 1A60     		str	r2, [r3]	@ tmp135, *cr_ptr_2
 120:gpio.c        **** }
 218              		.loc 1 120 0
 219 0052 1C37     		adds	r7, r7, #28	@,,
 220              		.cfi_def_cfa_offset 4
 221 0054 BD46     		mov	sp, r7	@,
 222              		.cfi_def_cfa_register 13
ARM GAS  C:\Users\Daro\AppData\Local\Temp\ccOq9nul.s 			page 7


 223              		@ sp needed	@
 224 0056 5DF8047B 		ldr	r7, [sp], #4	@,
 225              		.cfi_restore 7
 226              		.cfi_def_cfa_offset 0
 227 005a 7047     		bx	lr	@
 228              		.cfi_endproc
 229              	.LFE30:
 230              		.size	gpio_pin_cfg, .-gpio_pin_cfg
 231              		.text
 232              	.Letext0:
 233              		.file 2 "c:\\dev\\arm\\toolchains\\gcc-arm-none-eabi-4_9-141220\\arm-none-eabi\\include\\machine\\
 234              		.file 3 "c:\\dev\\arm\\toolchains\\gcc-arm-none-eabi-4_9-141220\\arm-none-eabi\\include\\stdint.h"
 235              		.file 4 "inc/stm32f10x.h"
 236              		.file 5 "inc/core_cm3.h"