ARM GAS  C:\Users\Daro\AppData\Local\Temp\cc3rTaeg.s 			page 1


   1              		.syntax unified
   2              		.cpu cortex-m3
   3              		.fpu softvfp
   4              		.eabi_attribute 20, 1	@ Tag_ABI_FP_denormal
   5              		.eabi_attribute 21, 1	@ Tag_ABI_FP_exceptions
   6              		.eabi_attribute 23, 3	@ Tag_ABI_FP_number_model
   7              		.eabi_attribute 24, 1	@ Tag_ABI_align8_needed
   8              		.eabi_attribute 25, 1	@ Tag_ABI_align8_preserved
   9              		.eabi_attribute 26, 1	@ Tag_ABI_enum_size
  10              		.eabi_attribute 30, 6	@ Tag_ABI_optimization_goals
  11              		.eabi_attribute 34, 1	@ Tag_CPU_unaligned_access
  12              		.eabi_attribute 18, 4	@ Tag_ABI_PCS_wchar_t
  13              		.file	"main.c"
  14              	@ GNU C (GNU Tools for ARM Embedded Processors / bleeding-edge-toolchain-141220) version 4.9.3 2014
  15              	@	compiled by GNU C version 4.9.2, GMP version 6.0.0, MPFR version 3.1.2, MPC version 1.0.2
  16              	@ GGC heuristics: --param ggc-min-expand=100 --param ggc-min-heapsize=131072
  17              	@ options passed:  -I . -imultilib armv7-m
  18              	@ -iprefix c:\dev\arm\toolchains\gcc-arm-none-eabi-4_9-141220\bin\../lib/gcc/arm-none-eabi/4.9.3/
  19              	@ -isysroot c:\dev\arm\toolchains\gcc-arm-none-eabi-4_9-141220\bin\../arm-none-eabi
  20              	@ -MD out/main.d -MF out/main.d -MP -MQ out/main.o -D__USES_INITFINI__
  21              	@ -D STM32F10X_MD main.c -mcpu=cortex-m3 -mthumb -auxbase-strip out/main.o
  22              	@ -g -ggdb3 -O0 -Wall -Wstrict-prototypes -Wextra -std=gnu90
  23              	@ -ffunction-sections -fdata-sections -fverbose-asm
  24              	@ options enabled:  -faggressive-loop-optimizations -fauto-inc-dec -fcommon
  25              	@ -fdata-sections -fdelete-null-pointer-checks -fdwarf2-cfi-asm
  26              	@ -fearly-inlining -feliminate-unused-debug-types -ffunction-cse
  27              	@ -ffunction-sections -fgcse-lm -fgnu-runtime -fgnu-unique -fident
  28              	@ -finline-atomics -fira-hoist-pressure -fira-share-save-slots
  29              	@ -fira-share-spill-slots -fivopts -fkeep-static-consts
  30              	@ -fleading-underscore -fmath-errno -fmerge-debug-strings -fpeephole
  31              	@ -fprefetch-loop-arrays -freg-struct-return
  32              	@ -fsched-critical-path-heuristic -fsched-dep-count-heuristic
  33              	@ -fsched-group-heuristic -fsched-interblock -fsched-last-insn-heuristic
  34              	@ -fsched-rank-heuristic -fsched-spec -fsched-spec-insn-heuristic
  35              	@ -fsched-stalled-insns-dep -fshow-column -fsigned-zeros
  36              	@ -fsplit-ivs-in-unroller -fstrict-volatile-bitfields -fsync-libcalls
  37              	@ -ftrapping-math -ftree-coalesce-vars -ftree-cselim -ftree-forwprop
  38              	@ -ftree-loop-if-convert -ftree-loop-im -ftree-loop-ivcanon
  39              	@ -ftree-loop-optimize -ftree-parallelize-loops= -ftree-phiprop
  40              	@ -ftree-reassoc -ftree-scev-cprop -funit-at-a-time -fverbose-asm
  41              	@ -fzero-initialized-in-bss -mfix-cortex-m3-ldrd -mlittle-endian -mlra
  42              	@ -mpic-data-is-text-relative -msched-prolog -mthumb -munaligned-access
  43              	@ -mvectorize-with-neon-quad
  44              	
  45              		.text
  46              	.Ltext0:
  47              		.cfi_sections	.debug_frame
  48              		.section	.text.main,"ax",%progbits
  49              		.align	2
  50              		.global	main
  51              		.thumb
  52              		.thumb_func
  53              		.type	main, %function
  54              	main:
  55              	.LFB29:
  56              		.file 1 "main.c"
   1:main.c        **** #include <stdint.h>
ARM GAS  C:\Users\Daro\AppData\Local\Temp\cc3rTaeg.s 			page 2


   2:main.c        **** #include "inc/stm32f10x.h"
   3:main.c        **** #include "config.h"
   4:main.c        **** #include "hdr/hdr_rcc.h"
   5:main.c        **** #include "hdr/hdr_gpio.h"
   6:main.c        **** #include "gpio.h"
   7:main.c        **** 
   8:main.c        **** static void flash_latency(uint32_t frequency);
   9:main.c        **** static uint32_t pll_start(uint32_t crystal, uint32_t frequency);
  10:main.c        **** static void system_init(void);
  11:main.c        **** 
  12:main.c        **** 
  13:main.c        **** int main(void)
  14:main.c        **** {
  57              		.loc 1 14 0
  58              		.cfi_startproc
  59              		@ args = 0, pretend = 0, frame = 8
  60              		@ frame_needed = 1, uses_anonymous_args = 0
  61 0000 80B5     		push	{r7, lr}	@
  62              		.cfi_def_cfa_offset 8
  63              		.cfi_offset 7, -8
  64              		.cfi_offset 14, -4
  65 0002 82B0     		sub	sp, sp, #8	@,,
  66              		.cfi_def_cfa_offset 16
  67 0004 00AF     		add	r7, sp, #0	@,,
  68              		.cfi_def_cfa_register 7
  15:main.c        **** 	volatile uint32_t count, count_max = 1000000;
  69              		.loc 1 15 0
  70 0006 144B     		ldr	r3, .L7	@ tmp121,
  71 0008 3B60     		str	r3, [r7]	@ tmp121, count_max
  16:main.c        **** 
  17:main.c        **** 	system_init();
  72              		.loc 1 17 0
  73 000a FFF7FEFF 		bl	system_init	@
  18:main.c        **** 	pll_start(CRYSTAL, FREQUENCY);
  74              		.loc 1 18 0
  75 000e 1348     		ldr	r0, .L7+4	@,
  76 0010 1349     		ldr	r1, .L7+8	@,
  77 0012 FFF7FEFF 		bl	pll_start	@
  19:main.c        **** 
  20:main.c        **** 	gpio_pin_cfg(LED_GPIO, LED_pin, GPIO_CRx_MODE_CNF_OUT_PP_10M_value);
  78              		.loc 1 20 0
  79 0016 1348     		ldr	r0, .L7+12	@,
  80 0018 0121     		movs	r1, #1	@,
  81 001a 0122     		movs	r2, #1	@,
  82 001c FFF7FEFF 		bl	gpio_pin_cfg	@
  83              	.L6:
  21:main.c        **** 
  22:main.c        **** 	while (1)
  23:main.c        **** 	{
  24:main.c        **** 		for (count = 0; count < count_max; count++);	// delay
  84              		.loc 1 24 0
  85 0020 0023     		movs	r3, #0	@ tmp122,
  86 0022 7B60     		str	r3, [r7, #4]	@ tmp122, count
  87 0024 02E0     		b	.L2	@
  88              	.L3:
  89              		.loc 1 24 0 is_stmt 0 discriminator 3
  90 0026 7B68     		ldr	r3, [r7, #4]	@ D.5061, count
ARM GAS  C:\Users\Daro\AppData\Local\Temp\cc3rTaeg.s 			page 3


  91 0028 0133     		adds	r3, r3, #1	@ D.5061, D.5061,
  92 002a 7B60     		str	r3, [r7, #4]	@ D.5061, count
  93              	.L2:
  94              		.loc 1 24 0 discriminator 1
  95 002c 7A68     		ldr	r2, [r7, #4]	@ D.5061, count
  96 002e 3B68     		ldr	r3, [r7]	@ D.5061, count_max
  97 0030 9A42     		cmp	r2, r3	@ D.5061, D.5061
  98 0032 F8D3     		bcc	.L3	@,
  25:main.c        **** 		LED_bb = 1;
  99              		.loc 1 25 0 is_stmt 1
 100 0034 0C4B     		ldr	r3, .L7+16	@ D.5062,
 101 0036 0122     		movs	r2, #1	@ tmp123,
 102 0038 1A60     		str	r2, [r3]	@ tmp123, *_3
  26:main.c        **** 		for (count = 0; count < count_max; count++);	// delay
 103              		.loc 1 26 0
 104 003a 0023     		movs	r3, #0	@ tmp124,
 105 003c 7B60     		str	r3, [r7, #4]	@ tmp124, count
 106 003e 02E0     		b	.L4	@
 107              	.L5:
 108              		.loc 1 26 0 is_stmt 0 discriminator 3
 109 0040 7B68     		ldr	r3, [r7, #4]	@ D.5061, count
 110 0042 0133     		adds	r3, r3, #1	@ D.5061, D.5061,
 111 0044 7B60     		str	r3, [r7, #4]	@ D.5061, count
 112              	.L4:
 113              		.loc 1 26 0 discriminator 1
 114 0046 7A68     		ldr	r2, [r7, #4]	@ D.5061, count
 115 0048 3B68     		ldr	r3, [r7]	@ D.5061, count_max
 116 004a 9A42     		cmp	r2, r3	@ D.5061, D.5061
 117 004c F8D3     		bcc	.L5	@,
  27:main.c        **** 		LED_bb = 0;
 118              		.loc 1 27 0 is_stmt 1
 119 004e 064B     		ldr	r3, .L7+16	@ D.5062,
 120 0050 0022     		movs	r2, #0	@ tmp125,
 121 0052 1A60     		str	r2, [r3]	@ tmp125, *_8
  28:main.c        **** 	}
 122              		.loc 1 28 0
 123 0054 E4E7     		b	.L6	@
 124              	.L8:
 125 0056 00BF     		.align	2
 126              	.L7:
 127 0058 40420F00 		.word	1000000
 128 005c 00127A00 		.word	8000000
 129 0060 00A24A04 		.word	72000000
 130 0064 000C0140 		.word	1073810432
 131 0068 84812142 		.word	1109492100
 132              		.cfi_endproc
 133              	.LFE29:
 134              		.size	main, .-main
 135              		.section	.text.flash_latency,"ax",%progbits
 136              		.align	2
 137              		.thumb
 138              		.thumb_func
 139              		.type	flash_latency, %function
 140              	flash_latency:
 141              	.LFB30:
  29:main.c        **** }
  30:main.c        **** 
ARM GAS  C:\Users\Daro\AppData\Local\Temp\cc3rTaeg.s 			page 4


  31:main.c        **** static void flash_latency(uint32_t frequency)
  32:main.c        **** {
 142              		.loc 1 32 0
 143              		.cfi_startproc
 144              		@ args = 0, pretend = 0, frame = 16
 145              		@ frame_needed = 1, uses_anonymous_args = 0
 146              		@ link register save eliminated.
 147 0000 80B4     		push	{r7}	@
 148              		.cfi_def_cfa_offset 4
 149              		.cfi_offset 7, -4
 150 0002 85B0     		sub	sp, sp, #20	@,,
 151              		.cfi_def_cfa_offset 24
 152 0004 00AF     		add	r7, sp, #0	@,,
 153              		.cfi_def_cfa_register 7
 154 0006 7860     		str	r0, [r7, #4]	@ frequency, frequency
  33:main.c        **** 	uint32_t wait_states;
  34:main.c        **** 
  35:main.c        **** 	if (frequency < 24000000UL)				// 0 wait states for core speed below 24MHz
 155              		.loc 1 35 0
 156 0008 7B68     		ldr	r3, [r7, #4]	@ tmp114, frequency
 157 000a 0D4A     		ldr	r2, .L13	@ tmp115,
 158 000c 9342     		cmp	r3, r2	@ tmp114, tmp115
 159 000e 02D8     		bhi	.L10	@,
  36:main.c        **** 		wait_states = 0;
 160              		.loc 1 36 0
 161 0010 0023     		movs	r3, #0	@ tmp116,
 162 0012 FB60     		str	r3, [r7, #12]	@ tmp116, wait_states
 163 0014 08E0     		b	.L11	@
 164              	.L10:
  37:main.c        **** 	else if (frequency < 48000000UL)		// 1 wait state for core speed between 24MHz and 48MHz
 165              		.loc 1 37 0
 166 0016 7B68     		ldr	r3, [r7, #4]	@ tmp117, frequency
 167 0018 0A4A     		ldr	r2, .L13+4	@ tmp118,
 168 001a 9342     		cmp	r3, r2	@ tmp117, tmp118
 169 001c 02D8     		bhi	.L12	@,
  38:main.c        **** 		wait_states = 1;
 170              		.loc 1 38 0
 171 001e 0123     		movs	r3, #1	@ tmp119,
 172 0020 FB60     		str	r3, [r7, #12]	@ tmp119, wait_states
 173 0022 01E0     		b	.L11	@
 174              	.L12:
  39:main.c        **** 	else									// 2 wait states for core speed over 48MHz
  40:main.c        **** 		wait_states = 2;
 175              		.loc 1 40 0
 176 0024 0223     		movs	r3, #2	@ tmp120,
 177 0026 FB60     		str	r3, [r7, #12]	@ tmp120, wait_states
 178              	.L11:
  41:main.c        **** 
  42:main.c        **** 	FLASH->ACR |= wait_states;				// set the latency
 179              		.loc 1 42 0
 180 0028 0749     		ldr	r1, .L13+8	@ D.5063,
 181 002a 074B     		ldr	r3, .L13+8	@ D.5063,
 182 002c 1A68     		ldr	r2, [r3]	@ D.5064, _7->ACR
 183 002e FB68     		ldr	r3, [r7, #12]	@ tmp121, wait_states
 184 0030 1343     		orrs	r3, r3, r2	@, D.5064, tmp121, D.5064
 185 0032 0B60     		str	r3, [r1]	@ D.5064, _6->ACR
  43:main.c        **** }
ARM GAS  C:\Users\Daro\AppData\Local\Temp\cc3rTaeg.s 			page 5


 186              		.loc 1 43 0
 187 0034 1437     		adds	r7, r7, #20	@,,
 188              		.cfi_def_cfa_offset 4
 189 0036 BD46     		mov	sp, r7	@,
 190              		.cfi_def_cfa_register 13
 191              		@ sp needed	@
 192 0038 5DF8047B 		ldr	r7, [sp], #4	@,
 193              		.cfi_restore 7
 194              		.cfi_def_cfa_offset 0
 195 003c 7047     		bx	lr	@
 196              	.L14:
 197 003e 00BF     		.align	2
 198              	.L13:
 199 0040 FF356E01 		.word	23999999
 200 0044 FF6BDC02 		.word	47999999
 201 0048 00200240 		.word	1073881088
 202              		.cfi_endproc
 203              	.LFE30:
 204              		.size	flash_latency, .-flash_latency
 205              		.section	.text.pll_start,"ax",%progbits
 206              		.align	2
 207              		.thumb
 208              		.thumb_func
 209              		.type	pll_start, %function
 210              	pll_start:
 211              	.LFB31:
  44:main.c        **** 
  45:main.c        **** static uint32_t pll_start(uint32_t crystal, uint32_t frequency)
  46:main.c        **** {
 212              		.loc 1 46 0
 213              		.cfi_startproc
 214              		@ args = 0, pretend = 0, frame = 16
 215              		@ frame_needed = 1, uses_anonymous_args = 0
 216 0000 80B5     		push	{r7, lr}	@
 217              		.cfi_def_cfa_offset 8
 218              		.cfi_offset 7, -8
 219              		.cfi_offset 14, -4
 220 0002 84B0     		sub	sp, sp, #16	@,,
 221              		.cfi_def_cfa_offset 24
 222 0004 00AF     		add	r7, sp, #0	@,,
 223              		.cfi_def_cfa_register 7
 224 0006 7860     		str	r0, [r7, #4]	@ crystal, crystal
 225 0008 3960     		str	r1, [r7]	@ frequency, frequency
  47:main.c        **** 	uint32_t mul;
  48:main.c        **** 
  49:main.c        **** 	RCC_CR_HSEON_bb = 1;					// enable HSE clock
 226              		.loc 1 49 0
 227 000a 1F4B     		ldr	r3, .L21	@ D.5065,
 228 000c 0122     		movs	r2, #1	@ tmp132,
 229 000e 1A60     		str	r2, [r3]	@ tmp132, *_2
  50:main.c        **** 	flash_latency(frequency);				// configure Flash latency for desired frequency
 230              		.loc 1 50 0
 231 0010 3868     		ldr	r0, [r7]	@, frequency
 232 0012 FFF7FEFF 		bl	flash_latency	@
  51:main.c        **** 
  52:main.c        **** 	mul = frequency / crystal;				// PLL multiplier calculation
 233              		.loc 1 52 0
ARM GAS  C:\Users\Daro\AppData\Local\Temp\cc3rTaeg.s 			page 6


 234 0016 3A68     		ldr	r2, [r7]	@ tmp135, frequency
 235 0018 7B68     		ldr	r3, [r7, #4]	@ tmp136, crystal
 236 001a B2FBF3F3 		udiv	r3, r2, r3	@ tmp134, tmp135, tmp136
 237 001e FB60     		str	r3, [r7, #12]	@ tmp134, mul
  53:main.c        **** 
  54:main.c        **** 	if (mul > 16)							// max PLL multiplier is 16
 238              		.loc 1 54 0
 239 0020 FB68     		ldr	r3, [r7, #12]	@ tmp137, mul
 240 0022 102B     		cmp	r3, #16	@ tmp137,
 241 0024 01D9     		bls	.L16	@,
  55:main.c        **** 		mul = 16;
 242              		.loc 1 55 0
 243 0026 1023     		movs	r3, #16	@ tmp138,
 244 0028 FB60     		str	r3, [r7, #12]	@ tmp138, mul
 245              	.L16:
  56:main.c        **** 
  57:main.c        **** 	frequency = crystal * mul;
 246              		.loc 1 57 0
 247 002a 7B68     		ldr	r3, [r7, #4]	@ tmp140, crystal
 248 002c FA68     		ldr	r2, [r7, #12]	@ tmp141, mul
 249 002e 02FB03F3 		mul	r3, r2, r3	@ tmp139, tmp141, tmp140
 250 0032 3B60     		str	r3, [r7]	@ tmp139, frequency
  58:main.c        **** 
  59:main.c        **** 	RCC->CFGR |= ((mul - 2) << RCC_CFGR_PLLMUL_bit) | RCC_CFGR_PLLSRC | RCC_CFGR_PPRE1_DIV2;	// config
 251              		.loc 1 59 0
 252 0034 1549     		ldr	r1, .L21+4	@ D.5066,
 253 0036 154B     		ldr	r3, .L21+4	@ D.5066,
 254 0038 5A68     		ldr	r2, [r3, #4]	@ D.5067, _9->CFGR
 255 003a FB68     		ldr	r3, [r7, #12]	@ tmp142, mul
 256 003c 023B     		subs	r3, r3, #2	@ D.5067, tmp142,
 257 003e 9B04     		lsls	r3, r3, #18	@ D.5067, D.5067,
 258 0040 1343     		orrs	r3, r3, r2	@, D.5067, D.5067, D.5067
 259 0042 43F48233 		orr	r3, r3, #66560	@ D.5067, D.5067,
 260 0046 4B60     		str	r3, [r1, #4]	@ D.5067, _8->CFGR
  60:main.c        **** 
  61:main.c        **** 	while (!RCC_CR_HSERDY_bb);				// wait for stable clock
 261              		.loc 1 61 0
 262 0048 00BF     		nop
 263              	.L17:
 264              		.loc 1 61 0 is_stmt 0 discriminator 1
 265 004a 114B     		ldr	r3, .L21+8	@ D.5065,
 266 004c 1B68     		ldr	r3, [r3]	@ D.5067, *_15
 267 004e 002B     		cmp	r3, #0	@ D.5067,
 268 0050 FBD0     		beq	.L17	@,
  62:main.c        **** 
  63:main.c        **** 	RCC_CR_PLLON_bb = 1;					// enable PLL
 269              		.loc 1 63 0 is_stmt 1
 270 0052 104B     		ldr	r3, .L21+12	@ D.5065,
 271 0054 0122     		movs	r2, #1	@ tmp143,
 272 0056 1A60     		str	r2, [r3]	@ tmp143, *_17
  64:main.c        **** 	while (!RCC_CR_PLLRDY_bb);				// wait for PLL lock
 273              		.loc 1 64 0
 274 0058 00BF     		nop
 275              	.L18:
 276              		.loc 1 64 0 is_stmt 0 discriminator 1
 277 005a 0F4B     		ldr	r3, .L21+16	@ D.5065,
 278 005c 1B68     		ldr	r3, [r3]	@ D.5067, *_18
ARM GAS  C:\Users\Daro\AppData\Local\Temp\cc3rTaeg.s 			page 7


 279 005e 002B     		cmp	r3, #0	@ D.5067,
 280 0060 FBD0     		beq	.L18	@,
  65:main.c        **** 
  66:main.c        **** 	RCC->CFGR |= RCC_CFGR_SW_PLL;			// change SYSCLK to PLL
 281              		.loc 1 66 0 is_stmt 1
 282 0062 0A4A     		ldr	r2, .L21+4	@ D.5066,
 283 0064 094B     		ldr	r3, .L21+4	@ D.5066,
 284 0066 5B68     		ldr	r3, [r3, #4]	@ D.5067, _21->CFGR
 285 0068 43F00203 		orr	r3, r3, #2	@ D.5067, D.5067,
 286 006c 5360     		str	r3, [r2, #4]	@ D.5067, _20->CFGR
  67:main.c        **** 	while (((RCC->CFGR) & RCC_CFGR_SWS) != RCC_CFGR_SWS_PLL);	// wait for switch
 287              		.loc 1 67 0
 288 006e 00BF     		nop
 289              	.L19:
 290              		.loc 1 67 0 is_stmt 0 discriminator 1
 291 0070 064B     		ldr	r3, .L21+4	@ D.5066,
 292 0072 5B68     		ldr	r3, [r3, #4]	@ D.5067, _24->CFGR
 293 0074 03F00C03 		and	r3, r3, #12	@ D.5067, D.5067,
 294 0078 082B     		cmp	r3, #8	@ D.5067,
 295 007a F9D1     		bne	.L19	@,
  68:main.c        **** 
  69:main.c        **** 	return frequency;
 296              		.loc 1 69 0 is_stmt 1
 297 007c 3B68     		ldr	r3, [r7]	@ D.5068, frequency
  70:main.c        **** }
 298              		.loc 1 70 0
 299 007e 1846     		mov	r0, r3	@, <retval>
 300 0080 1037     		adds	r7, r7, #16	@,,
 301              		.cfi_def_cfa_offset 8
 302 0082 BD46     		mov	sp, r7	@,
 303              		.cfi_def_cfa_register 13
 304              		@ sp needed	@
 305 0084 80BD     		pop	{r7, pc}	@
 306              	.L22:
 307 0086 00BF     		.align	2
 308              	.L21:
 309 0088 40004242 		.word	1111621696
 310 008c 00100240 		.word	1073876992
 311 0090 44004242 		.word	1111621700
 312 0094 60004242 		.word	1111621728
 313 0098 64004242 		.word	1111621732
 314              		.cfi_endproc
 315              	.LFE31:
 316              		.size	pll_start, .-pll_start
 317              		.section	.text.system_init,"ax",%progbits
 318              		.align	2
 319              		.thumb
 320              		.thumb_func
 321              		.type	system_init, %function
 322              	system_init:
 323              	.LFB32:
  71:main.c        **** 
  72:main.c        **** static void system_init(void)
  73:main.c        **** {
 324              		.loc 1 73 0
 325              		.cfi_startproc
 326              		@ args = 0, pretend = 0, frame = 0
ARM GAS  C:\Users\Daro\AppData\Local\Temp\cc3rTaeg.s 			page 8


 327              		@ frame_needed = 1, uses_anonymous_args = 0
 328 0000 80B5     		push	{r7, lr}	@
 329              		.cfi_def_cfa_offset 8
 330              		.cfi_offset 7, -8
 331              		.cfi_offset 14, -4
 332 0002 00AF     		add	r7, sp, #0	@,,
 333              		.cfi_def_cfa_register 7
  74:main.c        **** 	gpio_init();
 334              		.loc 1 74 0
 335 0004 FFF7FEFF 		bl	gpio_init	@
  75:main.c        **** }
 336              		.loc 1 75 0
 337 0008 80BD     		pop	{r7, pc}	@
 338              		.cfi_endproc
 339              	.LFE32:
 340              		.size	system_init, .-system_init
 341 000a 00BF     		.text
 342              	.Letext0:
 343              		.file 2 "c:\\dev\\arm\\toolchains\\gcc-arm-none-eabi-4_9-141220\\arm-none-eabi\\include\\machine\\
 344              		.file 3 "c:\\dev\\arm\\toolchains\\gcc-arm-none-eabi-4_9-141220\\arm-none-eabi\\include\\stdint.h"
 345              		.file 4 "inc/stm32f10x.h"
 346              		.file 5 "inc/core_cm3.h"